
15.elf:     file format elf32-littleriscv
15.elf
architecture: riscv:rv32, flags 0x00000112:
EXEC_P, HAS_SYMS, D_PAGED
start address 0x00000000

Program Header:
    LOAD off    0x00001000 vaddr 0x00000000 paddr 0x00000000 align 2**12
         filesz 0x0000c8ec memsz 0x0000c8ec flags r-x
    LOAD off    0x0000e000 vaddr 0x20000000 paddr 0x0000c8ec align 2**12
         filesz 0x000004f8 memsz 0x00001788 flags rw-
    LOAD off    0x0000e800 vaddr 0x20007800 paddr 0x20007800 align 2**12
         filesz 0x00000000 memsz 0x00000800 flags rw-

Sections:
Idx Name          Size      VMA       LMA       File off  Algn
  0 .init         00000004  00000000  00000000  00001000  2**1
                  CONTENTS, ALLOC, LOAD, READONLY, CODE
  1 .vector       000001bc  00000004  00000004  00001004  2**1
                  CONTENTS, ALLOC, LOAD, READONLY, CODE
  2 .text         0000c72c  000001c0  000001c0  000011c0  2**3
                  CONTENTS, ALLOC, LOAD, READONLY, CODE
  3 .fini         00000000  0000c8ec  0000c8ec  0000e4f8  2**0
                  CONTENTS, ALLOC, LOAD, CODE
  4 .dalign       00000000  20000000  20000000  0000e4f8  2**0
                  CONTENTS
  5 .dlalign      00000000  0000c8ec  0000c8ec  0000e4f8  2**0
                  CONTENTS
  6 .data         000004f8  20000000  0000c8ec  0000e000  2**2
                  CONTENTS, ALLOC, LOAD, DATA
  7 .bss          00001290  200004f8  0000cde4  0000e4f8  2**2
                  ALLOC
  8 .stack        00000800  20007800  20007800  0000e800  2**0
                  ALLOC
  9 .debug_info   0001b650  00000000  00000000  0000e4f8  2**0
                  CONTENTS, READONLY, DEBUGGING
 10 .debug_abbrev 00003d73  00000000  00000000  00029b48  2**0
                  CONTENTS, READONLY, DEBUGGING
 11 .debug_loc    00006997  00000000  00000000  0002d8bb  2**0
                  CONTENTS, READONLY, DEBUGGING
 12 .debug_aranges 00000c18  00000000  00000000  00034258  2**3
                  CONTENTS, READONLY, DEBUGGING
 13 .debug_ranges 00001248  00000000  00000000  00034e70  2**3
                  CONTENTS, READONLY, DEBUGGING
 14 .debug_line   00013bde  00000000  00000000  000360b8  2**0
                  CONTENTS, READONLY, DEBUGGING
 15 .debug_str    00003e72  00000000  00000000  00049c96  2**0
                  CONTENTS, READONLY, DEBUGGING
 16 .comment      00000033  00000000  00000000  0004db08  2**0
                  CONTENTS, READONLY
 17 .debug_frame  00003750  00000000  00000000  0004db3c  2**2
                  CONTENTS, READONLY, DEBUGGING
 18 .stab         00000084  00000000  00000000  0005128c  2**2
                  CONTENTS, READONLY, DEBUGGING
 19 .stabstr      00000117  00000000  00000000  00051310  2**0
                  CONTENTS, READONLY, DEBUGGING
SYMBOL TABLE:
00000000 l    d  .init	00000000 .init
00000004 l    d  .vector	00000000 .vector
000001c0 l    d  .text	00000000 .text
0000c8ec l    d  .fini	00000000 .fini
20000000 l    d  .dalign	00000000 .dalign
0000c8ec l    d  .dlalign	00000000 .dlalign
20000000 l    d  .data	00000000 .data
200004f8 l    d  .bss	00000000 .bss
20007800 l    d  .stack	00000000 .stack
00000000 l    d  .debug_info	00000000 .debug_info
00000000 l    d  .debug_abbrev	00000000 .debug_abbrev
00000000 l    d  .debug_loc	00000000 .debug_loc
00000000 l    d  .debug_aranges	00000000 .debug_aranges
00000000 l    d  .debug_ranges	00000000 .debug_ranges
00000000 l    d  .debug_line	00000000 .debug_line
00000000 l    d  .debug_str	00000000 .debug_str
00000000 l    d  .comment	00000000 .comment
00000000 l    d  .debug_frame	00000000 .debug_frame
00000000 l    d  .stab	00000000 .stab
00000000 l    d  .stabstr	00000000 .stabstr
00000000 l    df *ABS*	00000000 ./Startup/startup_ch32v30x_D8C.o
00000004 l       .vector	00000000 _vector_base
00000000 l    df *ABS*	00000000 ADS1234.c
20000578 l     O .bss	00000010 adc_data.5358
20000588 l     O .bss	00000010 diff_data.5360
200005a8 l     O .bss	00000010 g_zero_adc
200005b8 l     O .bss	00000010 prev_weight.5362
200005c8 l     O .bss	00000010 weight_data.5357
200005d8 l     O .bss	00000010 zero_data.5359
200004f8 l     O .bss	00000004 channel_received.5361
200004fc l     O .bss	00000004 g_is_calibrated
00000000 l    df *ABS*	00000000 CLoud_protocol.c
000009f0 l     F .text	0000003c CRC8
00000a2c l     F .text	00000042 Cloud_SendEscaped
200005e8 l     O .bss	00000100 g_cloud_frame_payload
200006e8 l     O .bss	00000200 g_cloud_rx_buf
20000500 l     O .bss	00000002 g_cloud_frame_len
20000502 l     O .bss	00000001 g_cloud_frame_ready
20000503 l     O .bss	00000001 g_cloud_frame_type
20000504 l     O .bss	00000002 g_cloud_rx_idx
00000000 l    df *ABS*	00000000 CLoude_bridge.c
200008e8 l     O .bss	000001a0 g_pending_list
20000506 l     O .bss	00000001 g_pending_count
00000000 l    df *ABS*	00000000 Card.c
00000000 l    df *ABS*	00000000 System.c
00000000 l    df *ABS*	00000000 Timer.c
00000000 l    df *ABS*	00000000 Uart.c
00000000 l    df *ABS*	00000000 Uart1.c
00000000 l    df *ABS*	00000000 ch32v30x_it.c
00000000 l    df *ABS*	00000000 main.c
2000051c l     O .bss	00000004 admin_processing.6525
20000538 l     O .bss	00000004 init_attempt.6523
2000053c l     O .bss	00000004 last_heartbeat.6482
20000540 l     O .bss	00000004 last_screen.6485
20000544 l     O .bss	00000004 last_uid.6524
20000548 l     O .bss	00000004 menu_div.6484
20000550 l     O .bss	00000004 rfid_div.6483
20000560 l     O .bss	00000004 timeout_cnt.6527
200004df l     O .data	00000001 first_send.6299
00000000 l    df *ABS*	00000000 system_ch32v30x.c
00000000 l    df *ABS*	00000000 ch32v30x_gpio.c
00000000 l    df *ABS*	00000000 ch32v30x_misc.c
00000000 l    df *ABS*	00000000 ch32v30x_rcc.c
200002fc l     O .data	00000010 APBAHBPrescTable
200004e8 l     O .data	00000004 ADCPrescTable
00000000 l    df *ABS*	00000000 ch32v30x_spi.c
00000000 l    df *ABS*	00000000 ch32v30x_tim.c
00000000 l    df *ABS*	00000000 ch32v30x_usart.c
00000000 l    df *ABS*	00000000 Audio.c
00000000 l    df *ABS*	00000000 debug.c
2000056c l     O .bss	00000002 p_ms
2000056e l     O .bss	00000001 p_us
200004ec l     O .data	00000004 curbrk.5273
00000000 l    df *ABS*	00000000 addsf3.c
00000000 l    df *ABS*	00000000 divsf3.c
00000000 l    df *ABS*	00000000 eqsf2.c
00000000 l    df *ABS*	00000000 gesf2.c
00000000 l    df *ABS*	00000000 lesf2.c
00000000 l    df *ABS*	00000000 mulsf3.c
00000000 l    df *ABS*	00000000 subsf3.c
00000000 l    df *ABS*	00000000 fixsfsi.c
00000000 l    df *ABS*	00000000 fixunssfsi.c
00000000 l    df *ABS*	00000000 floatsisf.c
00000000 l    df *ABS*	00000000 extendsfdf2.c
00000000 l    df *ABS*	00000000 truncdfsf2.c
00000000 l    df *ABS*	00000000 libgcc2.c
00000000 l    df *ABS*	00000000 atof.c
00000000 l    df *ABS*	00000000 memcmp.c
00000000 l    df *ABS*	00000000 memcpy.c
00000000 l    df *ABS*	00000000 printf.c
00000000 l    df *ABS*	00000000 putchar.c
00000000 l    df *ABS*	00000000 puts.c
00000000 l    df *ABS*	00000000 sprintf.c
00000000 l    df *ABS*	00000000 strchr.c
00000000 l    df *ABS*	00000000 strcpy.c
00000000 l    df *ABS*	00000000 strlen.c
00000000 l    df *ABS*	00000000 strstr.c
00000000 l    df *ABS*	00000000 strtod.c
0000572e l     F .text	0000004e sulp
0000c570 l     O .text	00000014 fpi.3395
0000c584 l     O .text	00000014 fpinan.3431
0000c598 l     O .text	00000028 tinytens
00000000 l    df *ABS*	00000000 wbuf.c
00000000 l    df *ABS*	00000000 wsetup.c
00000000 l    df *ABS*	00000000 fflush.c
00000000 l    df *ABS*	00000000 findfp.c
00006758 l     F .text	00000066 std
00000000 l    df *ABS*	00000000 fwalk.c
00000000 l    df *ABS*	00000000 gdtoa-gethex.c
00006986 l     F .text	00000076 rshift
00000000 l    df *ABS*	00000000 gdtoa-hexnan.c
00006f08 l     F .text	0000002c L_shift
00000000 l    df *ABS*	00000000 localeconv.c
00000000 l    df *ABS*	00000000 makebuf.c
00000000 l    df *ABS*	00000000 mbtowc_r.c
00000000 l    df *ABS*	00000000 mprec.c
0000c720 l     O .text	0000000c p05.3319
00000000 l    df *ABS*	00000000 nano-mallocr.c
00000000 l    df *ABS*	00000000 nano-mallocr.c
00000000 l    df *ABS*	00000000 nano-mallocr.c
00000000 l    df *ABS*	00000000 nano-vfprintf.c
00000000 l    df *ABS*	00000000 nano-vfprintf.c
00008064 l     F .text	00000028 __sfputc_r
00000000 l    df *ABS*	00000000 nano-vfprintf_i.c
00000000 l    df *ABS*	00000000 putc.c
00000000 l    df *ABS*	00000000 sbrkr.c
00000000 l    df *ABS*	00000000 stdio.c
00000000 l    df *ABS*	00000000 strncmp.c
00000000 l    df *ABS*	00000000 wctomb_r.c
00000000 l    df *ABS*	00000000 writer.c
00000000 l    df *ABS*	00000000 closer.c
00000000 l    df *ABS*	00000000 fstatr.c
00000000 l    df *ABS*	00000000 isattyr.c
00000000 l    df *ABS*	00000000 lseekr.c
00000000 l    df *ABS*	00000000 malloc.c
00000000 l    df *ABS*	00000000 memchr.c
00000000 l    df *ABS*	00000000 memmove.c
00000000 l    df *ABS*	00000000 mlock.c
00000000 l    df *ABS*	00000000 nano-mallocr.c
00000000 l    df *ABS*	00000000 readr.c
00000000 l    df *ABS*	00000000 nano-mallocr.c
00000000 l    df *ABS*	00000000 adddf3.c
00000000 l    df *ABS*	00000000 divdf3.c
00000000 l    df *ABS*	00000000 eqdf2.c
00000000 l    df *ABS*	00000000 gedf2.c
00000000 l    df *ABS*	00000000 ledf2.c
00000000 l    df *ABS*	00000000 muldf3.c
00000000 l    df *ABS*	00000000 subdf3.c
00000000 l    df *ABS*	00000000 fixdfsi.c
00000000 l    df *ABS*	00000000 fixunsdfsi.c
00000000 l    df *ABS*	00000000 floatsidf.c
00000000 l    df *ABS*	00000000 floatunsidf.c
00000000 l    df *ABS*	00000000 close.c
00000000 l    df *ABS*	00000000 fstat.c
00000000 l    df *ABS*	00000000 isatty.c
00000000 l    df *ABS*	00000000 lseek.c
00000000 l    df *ABS*	00000000 read.c
00000000 l    df *ABS*	00000000 libgcc2.c
00000000 l    df *ABS*	00000000 locale.c
00000000 l    df *ABS*	00000000 ctype_.c
00000000 l    df *ABS*	00000000 impure.c
2000030c l     O .data	00000060 impure_data
00000000 l    df *ABS*	00000000 reent.c
00008aac g     F .text	00000014 _malloc_usable_size_r
00003a88  w      .text	00000000 EXTI2_IRQHandler
00005564 g     F .text	0000002c putchar
00003a88  w      .text	00000000 TIM8_TRG_COM_IRQHandler
00003a88  w      .text	00000000 TIM8_CC_IRQHandler
00007b28 g     F .text	00000046 __any_on
00008948 g     F .text	00000032 _isatty_r
000056d8 g     F .text	00000010 strcpy
00005590 g     F .text	000000de _puts_r
0000897a g     F .text	00000036 _lseek_r
20000510 g     O .bss	00000002 uart5_bytes
000041c8 g     F .text	00000012 IsAudioBusy
00001ef8 g     F .text	00000022 UART8_IRQHandler
00001850 g     F .text	000000a0 UART8_TX_Init
000097a4 g     F .text	0000006a .hidden __eqdf2
00003be2 g     F .text	0000000a GPIO_ReadOutputDataBit
000024cc g     F .text	000000d2 Send_Price_To_Screen
00000514 g     F .text	000000b6 ADS1234_SetChannel
00005522 g     F .text	00000042 printf
20000cd8 g       .data	00000000 __global_pointer$
000001c8 g     F .text	00000028 .hidden __riscv_save_8
00003a88  w      .text	00000000 TIM1_CC_IRQHandler
00008830 g     F .text	00000030 __sseek
00006810 g     F .text	0000006c __sinit
00003e60 g     F .text	00000004 SPI_I2S_SendData
00006404 g     F .text	000000bc __swbuf_r
00001a3c g     F .text	00000010 HardFault_Handler
000067c8 g     F .text	00000048 __sfmoreglue
00008a1c g     F .text	00000002 __malloc_unlock
00000214 g     F .text	0000000c .hidden __riscv_restore_3
00003a88  w      .text	00000000 TIM6_IRQHandler
00004608 g     F .text	000002b2 .hidden __divsf3
00000a6e g     F .text	00000050 Cloud_SendFrame
000016e0 g     F .text	00000016 SysTick_Handler
000069fc g     F .text	00000040 __hexdig_fun
00000bc8 g     F .text	00000044 Cloud_GetNextFrame
00003bfa g     F .text	0000005c NVIC_Init
20000000 g     O .data	000002ec g_price_table
00003a88  w      .text	00000000 PVD_IRQHandler
00003a88  w      .text	00000000 SDIO_IRQHandler
000089d4 g     F .text	00000046 memmove
00003a88  w      .text	00000000 TIM9_BRK_IRQHandler
00000200 g     F .text	00000020 .hidden __riscv_restore_10
00003e64 g     F .text	00000004 SPI_I2S_ReceiveData
00003a88  w      .text	00000000 DMA2_Channel8_IRQHandler
00001a3a g     F .text	00000002 NMI_Handler
000071e4 g     F .text	0000008c _Balloc
20000520 g     O .bss	00000004 admin_uid
00005044 g     F .text	00000062 .hidden __fixsfsi
20000566 g     O .bss	00000002 uart3_rx_index
00003a88  w      .text	00000000 CAN2_RX1_IRQHandler
00003a88  w      .text	00000000 EXTI3_IRQHandler
000001c8 g     F .text	00000028 .hidden __riscv_save_11
0000980e g     F .text	000000ae .hidden __gtdf2
00001602 g     F .text	0000005c PcdRead
00000dfe g     F .text	00000088 Cloud_GetPendingRecharge
000070c0 g     F .text	00000006 __localeconv_l
00003a88  w      .text	00000000 USBHS_IRQHandler
2000054c g     O .bss	00000001 rfid_busy
0000409a g     F .text	0000000a USART_GetFlagStatus
00003a88  w      .text	00000000 DMA2_Channel9_IRQHandler
00008914 g     F .text	00000034 _fstat_r
00003a88  w      .text	00000000 TIM10_CC_IRQHandler
20001784 g     O .bss	00000004 errno
00004148 g     F .text	0000000c audio_init
00001794 g     F .text	0000003c USART1_Config
200004f8 g       .bss	00000000 _sbss
00000800 g       *ABS*	00000000 __stack_size
00004cbc g     F .text	00000388 .hidden __subsf3
00003a88  w      .text	00000000 USBFS_IRQHandler
00002928 g     F .text	00000038 ReadBalance
00000214 g     F .text	0000000c .hidden __riscv_restore_2
00000abe g     F .text	0000010a Cloud_ProcessRX
000027ba g     F .text	000000d6 ReadUserInfoFromCard
000040e0 g     F .text	00000068 Usart6_Init
00000e86 g     F .text	000000c0 Cloud_ProcessPendingRecharges
000004a0 g     F .text	00000074 ADS1234_Init
00001322 g     F .text	00000050 PcdRequest
20000c88 g     O .bss	00000140 g_items
00005470 g     F .text	000000b2 memcpy
00006f62 g     F .text	0000015e __hexnan
000067be g     F .text	0000000a _cleanup_r
00007dfa g     F .text	0000026a _svfprintf_r
0000a62c g     F .text	00000072 .hidden __floatsidf
000098bc g     F .text	000000b6 .hidden __ltdf2
00002096 g     F .text	000000da CalculateTotalPrice
00003a88  w      .text	00000000 EXTI0_IRQHandler
00003a88  w      .text	00000000 I2C2_EV_IRQHandler
00003a88  w      .text	00000000 TIM10_TRG_COM_IRQHandler
0000165e g     F .text	00000030 PcdHalt
00003f60 g     F .text	00000018 TIM_Cmd
0000566e g     F .text	0000000c puts
200004e4 g     O .data	00000004 SystemCoreClock
00001bd2 g     F .text	000000fa Parse_K230_JSON
00007a7e g     F .text	00000074 __ratio
00004092 g     F .text	00000008 USART_ReceiveData
000089b0 g     F .text	0000000c malloc
00000d7c g     F .text	00000056 Cloud_ReportRechargeComplete
00001212 g     F .text	00000110 PcdComMF522
0000a716 g     F .text	00000010 _fstat
0000c658 g     O .text	000000c8 __mprec_tens
00000004 g       .init	00000000 _einit
00003fa2 g     F .text	0000000c TIM_ClearITPendingBit
0000499c g     F .text	0000008c .hidden __lesf2
00003dcc g     F .text	0000001e RCC_APB2PeriphClockCmd
0000a5d0 g     F .text	0000005c .hidden __fixunsdfsi
000001c0 g     F .text	00000030 .hidden __riscv_save_12
00003a88  w      .text	00000000 CAN2_SCE_IRQHandler
00003a88  w      .text	00000000 ADC1_2_IRQHandler
00003b18 g     F .text	000000c0 GPIO_Init
00001d66 g     F .text	0000009a CompensateCrosstalkSimple
00001fc4 g     F .text	000000a0 Print_Main_Header
00003a88  w      .text	00000000 Break_Point_Handler
000074a0 g     F .text	0000001c __i2b
00000200 g     F .text	00000020 .hidden __riscv_restore_11
20000568 g     O .bss	00000004 NVIC_Priority_Group
00003a88  w      .text	00000000 SPI1_IRQHandler
0000403e g     F .text	00000016 USART_Cmd
0000878a g     F .text	00000032 _sbrk_r
00003a88  w      .text	00000000 TAMPER_IRQHandler
000007dc g     F .text	00000214 ADS1234_ToWeight
000001f0 g     F .text	0000000c .hidden __riscv_save_1
000006aa g     F .text	00000132 ADS1234_AutoZero
00000214 g     F .text	0000000c .hidden __riscv_restore_0
00008a76 g     F .text	00000036 _read_r
000001d6 g     F .text	0000001a .hidden __riscv_save_7
00001912 g     F .text	00000098 UART5_Init
20000554 g     O .bss	00000001 show_fail_page
00001b42 g     F .text	00000090 Initialize_Data_Structures
00003a88  w      .text	00000000 CAN2_RX0_IRQHandler
20000508 g     O .bss	00000004 g_sys_tick
200004d8 g     O .data	00000006 Default_Key
000051c2 g     F .text	000000ac .hidden __extendsfdf2
00003a88  w      .text	00000000 TIM8_UP_IRQHandler
00003dea g     F .text	0000001e RCC_APB1PeriphClockCmd
00008ac0 g     F .text	00000730 .hidden __adddf3
000048ba g     F .text	0000005c .hidden __nesf2
00003a88  w      .text	00000000 Ecall_M_Mode_Handler
20007800 g       .stack	00000000 _heap_end
000078f6 g     F .text	000000b4 __b2d
0000a726 g     F .text	00000010 _isatty
200004f4 g     O .data	00000004 _global_impure_ptr
0000020a g     F .text	00000016 .hidden __riscv_restore_5
00008a1e g     F .text	00000058 _realloc_r
20000528 g     O .bss	00000001 g_items_updated
00003e68 g     F .text	0000000a SPI_I2S_GetFlagStatus
00003a88  w      .text	00000000 DMA2_Channel2_IRQHandler
00003a88  w      .text	00000000 DMA1_Channel4_IRQHandler
2000052c g     O .bss	00000004 g_k230_last_time
0000c630 g     O .text	00000028 __mprec_bigtens
0000734c g     F .text	000000a4 __s2b
0000a69e g     F .text	00000068 .hidden __floatunsidf
00004274 g     F .text	0000002a _sbrk
0000778c g     F .text	00000032 __mcmp
000010b8 g     F .text	00000022 RC522_ClearBit_Register
2000050c g     O .bss	00000001 UART5_RxFlag
000017d0 g     F .text	00000080 UART4_Init
00003a88  w      .text	00000000 TIM9_UP_IRQHandler
0000020a g     F .text	00000016 .hidden __riscv_restore_6
00001e44 g     F .text	000000b4 USART3_IRQHandler
00003a88  w      .text	00000000 RTC_IRQHandler
0000577c g     F .text	00000c6c _strtod_l
00006f34 g     F .text	0000002e __match
200004de g     O .data	00000001 Uart_Flag
20001788 g       .bss	00000000 _ebss
000040a4 g     F .text	0000003c USART_GetITStatus
00003a88  w      .text	00000000 DMA1_Channel7_IRQHandler
000019f8 g     F .text	00000028 UART4_SendByte
20000dc8 g     O .bss	00000150 g_merged_data
20000564 g     O .bss	00000001 uart3_rx_complete
000073f0 g     F .text	00000046 __hi0bits
00003a88  w      .text	00000000 CAN1_RX1_IRQHandler
0000a568 g     F .text	00000068 .hidden __fixdfsi
000041da g     F .text	00000026 Delay_Init
00003a88  w      .text	00000000 DVP_IRQHandler
000019aa g     F .text	0000004e UART5_IRQHandler
000063e8 g     F .text	0000001c strtod
20000558 g     O .bss	00000004 success_page_start
000029d0 g     F .text	0000056a RFID_Payment_Process
00008706 g     F .text	00000084 _putc_r
00001372 g     F .text	00000094 PcdAnticoll
00004154 g     F .text	0000004c audio_play
00005446 g     F .text	00000006 atof
00004916 g     F .text	00000086 .hidden __gtsf2
20000f18 g     O .bss	0000003c g_saved_dishes
00003bec g     F .text	00000004 GPIO_SetBits
00003a88  w      .text	00000000 TIM4_IRQHandler
00001506 g     F .text	0000006a PcdAuthState
000098bc g     F .text	000000b6 .hidden __ledf2
000001c8 g     F .text	00000028 .hidden __riscv_save_9
0000259e g     F .text	00000076 Send_Breakfast_To_Screen
00003a88  w      .text	00000000 DMA2_Channel1_IRQHandler
00001570 g     F .text	00000092 PcdWrite
00007600 g     F .text	000000be __pow5mult
0000c5c0 g     O .text	00000020 __sf_fake_stderr
000001d6 g     F .text	0000001a .hidden __riscv_save_4
00002614 g     F .text	000001a6 InitNewCard
00003a88  w      .text	00000000 I2C1_EV_IRQHandler
00007d16 g     F .text	000000e4 __ssputs_r
00003f8a g     F .text	00000018 TIM_GetITStatus
00003c56 g     F .text	00000176 RCC_GetClocksFreq
00001476 g     F .text	00000090 PcdSelect
00003a88  w      .text	00000000 DMA1_Channel6_IRQHandler
000053d8 g     F .text	0000006e .hidden __clzsi2
00000c0c g     F .text	00000042 Cloud_FeedRXByte
2000055c g     O .bss	00000004 system_mode
0000808c g     F .text	00000042 __sfputs_r
00003a88  w      .text	00000000 UART4_IRQHandler
00000f46 g     F .text	00000038 RC522_SPI_TransferByte
00003a88  w      .text	00000000 DMA2_Channel4_IRQHandler
000089bc g     F .text	00000018 memchr
00003fae g     F .text	00000090 USART_Init
00007b94 g     F .text	000000a8 _free_r
00001e00 g     F .text	00000044 TIM3_IRQHandler
00003a88  w      .text	00000000 RCC_IRQHandler
000041a0 g     F .text	00000028 BusyPin_Init
000001f0 g     F .text	0000000c .hidden __riscv_save_3
00003a88  w      .text	00000000 TIM1_TRG_COM_IRQHandler
00003a88  w      .text	00000000 DMA1_Channel1_IRQHandler
00000000 g       .init	00000000 _start
00003a88  w      .text	00000000 DMA2_Channel7_IRQHandler
200002ec g     O .data	00000010 AHBPrescTable
000056fa g     F .text	00000034 strstr
0000a736 g     F .text	00000010 _lseek
000076be g     F .text	000000ce __lshift
000050fc g     F .text	000000c6 .hidden __floatsisf
000010f0 g     F .text	000000b0 RC522_Rese
00003a88  w      .text	00000000 EXTI15_10_IRQHandler
00003f78 g     F .text	00000012 TIM_ITConfig
00002960 g     F .text	00000070 WriteBalance
00008866 g     F .text	00000028 strncmp
000018f0 g     F .text	00000022 UART8_SendByte
00004054 g     F .text	00000036 USART_ITConfig
000074bc g     F .text	00000144 __multiply
000048ba g     F .text	0000005c .hidden __eqsf2
000079aa g     F .text	000000d4 __d2b
20000555 g     O .bss	00000001 show_success_page
20000f54 g     O .bss	00000030 g_weights
00003bf0 g     F .text	00000004 GPIO_ResetBits
00003a88  w      .text	00000000 TIM7_IRQHandler
000088e2 g     F .text	00000032 _close_r
00001406 g     F .text	00000070 CalulateCRC
00003a88  w      .text	00000000 CAN2_TX_IRQHandler
20000000 g       .dalign	00000000 _data_vma
00003a88  w      .text	00000000 TIM5_IRQHandler
0000544c g     F .text	00000024 memcmp
20000524 g     O .bss	00000004 fail_page_start
00001750 g     F .text	00000044 USART1_GPIO_Config
000064c0 g     F .text	00000100 __swsetup_r
00003a88  w      .text	00000000 EXTI9_5_IRQHandler
000091f0 g     F .text	000005b4 .hidden __divdf3
0000687c g     F .text	000000a0 __sfp
00007af2 g     F .text	00000036 __copybits
00000dd2 g     F .text	0000002c Cloud_SendHeartbeat
000016da g     F .text	00000006 GetSysTick
20000530 g     O .bss	00000004 g_tick
00009972 g     F .text	000004b8 .hidden __muldf3
000001c8 g     F .text	00000028 .hidden __riscv_save_10
000087bc g     F .text	0000002c __sread
000016b4 g     F .text	00000026 delay_us
00003a88  w      .text	00000000 ETH_WKUP_IRQHandler
00008a1a g     F .text	00000002 __malloc_lock
0000020a g     F .text	00000016 .hidden __riscv_restore_4
00000200 g     F .text	00000020 .hidden __riscv_restore_8
000066f2 g     F .text	00000066 _fflush_r
000001d6 g     F .text	0000001a .hidden __riscv_save_6
00007b6e g     F .text	00000026 _calloc_r
00003a88  w      .text	00000000 SPI2_IRQHandler
0000c5e0 g     O .text	00000020 __sf_fake_stdin
00000220 g     F .text	000000a8 memset
0000109a g     F .text	0000001e RC522_SetBit_Register
00000200 g     F .text	00000020 .hidden __riscv_restore_9
0000020a g     F .text	00000016 .hidden __riscv_restore_7
00002f3a g     F .text	0000096c main
0000168e g     F .text	00000026 delay_ms
0000ba70 g     O .text	000000d0 g_item_map
00003a88  w      .text	00000000 TIM10_BRK_IRQHandler
20000534 g     O .bss	00000002 g_total_price
00003a88  w      .text	00000000 TIM9_CC_IRQHandler
0000499c g     F .text	0000008c .hidden __ltsf2
00008860 g     F .text	00000006 __sclose
00003a88  w      .text	00000000 DMA2_Channel5_IRQHandler
0000526e g     F .text	0000016a .hidden __truncdfsf2
000010da g     F .text	00000016 RC522_Antenna_On
00000f7e g     F .text	00000038 RC522_Read_Register
00002170 g     F .text	0000035c Send_Merged_Data_To_Screen
00007c3c g     F .text	000000da _malloc_r
20000514 g     O .bss	00000004 uart5_last_byte
0000888e g     F .text	0000001e __ascii_wctomb
00001a4c g     F .text	000000f6 find_json_value
20000a88 g     O .bss	00000200 UART5_RxBuf
00000ce8 g     F .text	00000094 Cloud_ReportTransaction
000011a0 g     F .text	00000072 RC522_Config_Type
00003a88  w      .text	00000000 DMA1_Channel5_IRQHandler
00003a88  w      .text	00000000 EXTI4_IRQHandler
00004200 g     F .text	00000036 Delay_Ms
00003a88  w      .text	00000000 USB_LP_CAN1_RX0_IRQHandler
00001ccc g     F .text	00000062 Process_K230_Data
00004a28 g     F .text	00000294 .hidden __mulsf3
000003e2 g     F .text	000000be ADS1234_GPIO_Config
20000598 g     O .bss	00000010 g_scale_factor
00003e46 g     F .text	0000001a SPI_Cmd
000002c8 g     F .text	0000011a strcmp
000038a6 g     F .text	000000b8 SystemInit
00003a88  w      .text	00000000 RNG_IRQHandler
000097a4 g     F .text	0000006a .hidden __nedf2
00005522 g     F .text	00000042 iprintf
00003a88  w      .text	00000000 USB_HP_CAN1_TX_IRQHandler
0000567a g     F .text	00000046 sprintf
0000c410 g     O .text	00000100 .hidden __clz_tab
00000000 g       .init	00000000 _sinit
00004916 g     F .text	00000086 .hidden __gesf2
000088ac g     F .text	00000036 _write_r
00000c4e g     F .text	00000012 CloudProtocol_Init
00003a88  w      .text	00000000 DMA1_Channel3_IRQHandler
20000537 g     O .bss	00000001 in_json_frame
000016f6 g     F .text	0000005a Tim3_Init
00003a88  w      .text	00000000 ETH_IRQHandler
00008358 g     F .text	0000010c _printf_common
200004f0 g     O .data	00000004 _impure_ptr
00003a88  w      .text	00000000 TIM1_UP_IRQHandler
000065c0 g     F .text	00000132 __sflush_r
00007dfa g     F .text	0000026a _svfiprintf_r
00003a88  w      .text	00000000 WWDG_IRQHandler
20000f84 g     O .bss	00000800 uart3_rx_buffer
00003a88  w      .text	00000000 USBHSWakeup_IRQHandler
00003a88  w      .text	00000000 DMA2_Channel11_IRQHandler
000071b2 g     F .text	00000032 __ascii_mbtowc
00003a88  w      .text	00000000 Ecall_U_Mode_Handler
000078b0 g     F .text	00000046 __ulp
00003a88  w      .text	00000000 DMA2_Channel6_IRQHandler
00002890 g     F .text	00000098 DisplayUserInfo
00003a88  w      .text	00000000 TIM2_IRQHandler
20008000 g       .stack	00000000 _eusrstack
000001f0 g     F .text	0000000c .hidden __riscv_save_2
00003a88  w      .text	00000000 SW_Handler
00001f1a g     F .text	000000aa UART3_Init_For_K230
00003a88  w      .text	00000000 TIM1_BRK_IRQHandler
000070c6 g     F .text	00000058 __swhatbuf_r
0000408a g     F .text	00000008 USART_SendData
00003a88  w      .text	00000000 DMA2_Channel10_IRQHandler
00003a88  w      .text	00000000 EXTI1_IRQHandler
000001d6 g     F .text	0000001a .hidden __riscv_save_5
00004236 g     F .text	0000003e _write
200004f8 g       .data	00000000 _edata
00000fe8 g     F .text	000000b2 RC522_Init
20001788 g       .bss	00000000 _end
2000050e g     O .bss	00000002 UART5_RxLen
00003e72 g     F .text	000000ee TIM_TimeBaseInit
00003a88  w      .text	00000000 RTCAlarm_IRQHandler
200004e0 g     O .data	00000001 g_price_count
0000c8ec g       .dlalign	00000000 _data_lma
00003a88  w      .text	00000000 TIM10_UP_IRQHandler
00003a88  w      .text	00000000 TIM9_TRG_COM_IRQHandler
00003a88  w      .text	00000000 UART7_IRQHandler
00003a88  w      .text	00000000 USART2_IRQHandler
00003a88  w      .text	00000000 UART6_IRQHandler
000087e8 g     F .text	00000048 __swrite
000080ce g     F .text	0000028a _vfiprintf_r
0000691c g     F .text	0000006a _fwalk_reent
0000395e g     F .text	0000012a SystemCoreClockUpdate
000077be g     F .text	000000f2 __mdiff
00003a88  w      .text	00000000 I2C2_ER_IRQHandler
00003a88  w      .text	00000000 DMA1_Channel2_IRQHandler
0000c600 g     O .text	00000020 __sf_fake_stdout
0000567a g     F .text	00000046 siprintf
000001fc g     F .text	00000024 .hidden __riscv_restore_12
00003a88  w      .text	00000000 TIM8_BRK_IRQHandler
0000c768 g     O .text	00000101 _ctype_
0000a746 g     F .text	00000010 _read
00003a8a  w      .text	00000000 handle_reset
00003a88  w      .text	00000000 CAN1_SCE_IRQHandler
000050a6 g     F .text	00000056 .hidden __fixunssfsi
00003a88  w      .text	00000000 FLASH_IRQHandler
000001f0 g     F .text	0000000c .hidden __riscv_save_0
00003a88  w      .text	00000000 USART1_IRQHandler
0000711e g     F .text	00000094 __smakebuf_r
00001a20 g     F .text	0000001a UART4_SendString
20000536 g     O .bss	00000001 g_weights_updated
000056e8 g     F .text	00000012 strlen
00008464 g     F .text	000002a2 _printf_i
00003a88  w      .text	00000000 SPI3_IRQHandler
0000980e g     F .text	000000ae .hidden __gedf2
00006a3c g     F .text	000004cc __gethex
20000574 g     O .bss	00000004 __malloc_sbrk_start
00001d2e g     F .text	00000038 Get_Chinese_Name
00003a88  w      .text	00000000 I2C1_ER_IRQHandler
00000fb6 g     F .text	00000032 RC522_Write_Register
000056c0 g     F .text	00000018 strchr
00003e08 g     F .text	0000003e SPI_Init
00003bf4 g     F .text	00000006 NVIC_PriorityGroupConfig
20000570 g     O .bss	00000004 __malloc_free_list
00000214 g     F .text	0000000c .hidden __riscv_restore_1
00009e2a g     F .text	0000073e .hidden __subdf3
000080ce g     F .text	0000028a _vfprintf_r
20000518 g     O .bss	00000004 Timer_2s
000005ca g     F .text	000000e0 ADS1234_ReadData
00007436 g     F .text	0000006a __lo0bits
00000c60 g     F .text	00000088 Cloud_ReportCardTap
00003bd8 g     F .text	0000000a GPIO_ReadInputDataBit
0000429e g     F .text	0000036a .hidden __addsf3
00002064 g     F .text	00000032 USART1_SendString
2000036c g     O .data	0000016c __global_locale
00003a88  w      .text	00000000 USBWakeUp_IRQHandler
0000a706 g     F .text	00000010 _close
00003a88  w      .text	00000000 DMA2_Channel3_IRQHandler
000072b4 g     F .text	00000098 __multadd
00007270 g     F .text	00000044 _Bfree



Disassembly of section .init:

00000000 <_sinit>:
   0:	28b0306f          	j	3a8a <handle_reset>

Disassembly of section .vector:

00000004 <_vector_base>:
	...
   c:	1a3a                	slli	s4,s4,0x2e
   e:	0000                	unimp
  10:	1a3c                	addi	a5,sp,312
  12:	0000                	unimp
  14:	0000                	unimp
  16:	0000                	unimp
  18:	3a88                	lbu	a0,17(a3)
	...
  22:	0000                	unimp
  24:	3a88                	lbu	a0,17(a3)
  26:	0000                	unimp
  28:	3a88                	lbu	a0,17(a3)
	...
  32:	0000                	unimp
  34:	16e0                	addi	s0,sp,876
  36:	0000                	unimp
  38:	0000                	unimp
  3a:	0000                	unimp
  3c:	3a88                	lbu	a0,17(a3)
  3e:	0000                	unimp
  40:	0000                	unimp
  42:	0000                	unimp
  44:	3a88                	lbu	a0,17(a3)
  46:	0000                	unimp
  48:	3a88                	lbu	a0,17(a3)
  4a:	0000                	unimp
  4c:	3a88                	lbu	a0,17(a3)
  4e:	0000                	unimp
  50:	3a88                	lbu	a0,17(a3)
  52:	0000                	unimp
  54:	3a88                	lbu	a0,17(a3)
  56:	0000                	unimp
  58:	3a88                	lbu	a0,17(a3)
  5a:	0000                	unimp
  5c:	3a88                	lbu	a0,17(a3)
  5e:	0000                	unimp
  60:	3a88                	lbu	a0,17(a3)
  62:	0000                	unimp
  64:	3a88                	lbu	a0,17(a3)
  66:	0000                	unimp
  68:	3a88                	lbu	a0,17(a3)
  6a:	0000                	unimp
  6c:	3a88                	lbu	a0,17(a3)
  6e:	0000                	unimp
  70:	3a88                	lbu	a0,17(a3)
  72:	0000                	unimp
  74:	3a88                	lbu	a0,17(a3)
  76:	0000                	unimp
  78:	3a88                	lbu	a0,17(a3)
  7a:	0000                	unimp
  7c:	3a88                	lbu	a0,17(a3)
  7e:	0000                	unimp
  80:	3a88                	lbu	a0,17(a3)
  82:	0000                	unimp
  84:	3a88                	lbu	a0,17(a3)
  86:	0000                	unimp
  88:	3a88                	lbu	a0,17(a3)
  8a:	0000                	unimp
  8c:	3a88                	lbu	a0,17(a3)
  8e:	0000                	unimp
  90:	3a88                	lbu	a0,17(a3)
  92:	0000                	unimp
  94:	3a88                	lbu	a0,17(a3)
  96:	0000                	unimp
  98:	3a88                	lbu	a0,17(a3)
  9a:	0000                	unimp
  9c:	3a88                	lbu	a0,17(a3)
  9e:	0000                	unimp
  a0:	3a88                	lbu	a0,17(a3)
  a2:	0000                	unimp
  a4:	3a88                	lbu	a0,17(a3)
  a6:	0000                	unimp
  a8:	3a88                	lbu	a0,17(a3)
  aa:	0000                	unimp
  ac:	3a88                	lbu	a0,17(a3)
  ae:	0000                	unimp
  b0:	3a88                	lbu	a0,17(a3)
  b2:	0000                	unimp
  b4:	3a88                	lbu	a0,17(a3)
  b6:	0000                	unimp
  b8:	1e00                	addi	s0,sp,816
  ba:	0000                	unimp
  bc:	3a88                	lbu	a0,17(a3)
  be:	0000                	unimp
  c0:	3a88                	lbu	a0,17(a3)
  c2:	0000                	unimp
  c4:	3a88                	lbu	a0,17(a3)
  c6:	0000                	unimp
  c8:	3a88                	lbu	a0,17(a3)
  ca:	0000                	unimp
  cc:	3a88                	lbu	a0,17(a3)
  ce:	0000                	unimp
  d0:	3a88                	lbu	a0,17(a3)
  d2:	0000                	unimp
  d4:	3a88                	lbu	a0,17(a3)
  d6:	0000                	unimp
  d8:	3a88                	lbu	a0,17(a3)
  da:	0000                	unimp
  dc:	3a88                	lbu	a0,17(a3)
  de:	0000                	unimp
  e0:	1e44                	addi	s1,sp,820
  e2:	0000                	unimp
  e4:	3a88                	lbu	a0,17(a3)
  e6:	0000                	unimp
  e8:	3a88                	lbu	a0,17(a3)
  ea:	0000                	unimp
  ec:	3a88                	lbu	a0,17(a3)
  ee:	0000                	unimp
  f0:	3a88                	lbu	a0,17(a3)
  f2:	0000                	unimp
  f4:	3a88                	lbu	a0,17(a3)
  f6:	0000                	unimp
  f8:	3a88                	lbu	a0,17(a3)
  fa:	0000                	unimp
  fc:	3a88                	lbu	a0,17(a3)
  fe:	0000                	unimp
 100:	3a88                	lbu	a0,17(a3)
 102:	0000                	unimp
 104:	0000                	unimp
 106:	0000                	unimp
 108:	3a88                	lbu	a0,17(a3)
 10a:	0000                	unimp
 10c:	3a88                	lbu	a0,17(a3)
 10e:	0000                	unimp
 110:	3a88                	lbu	a0,17(a3)
 112:	0000                	unimp
 114:	3a88                	lbu	a0,17(a3)
 116:	0000                	unimp
 118:	19aa                	slli	s3,s3,0x2a
 11a:	0000                	unimp
 11c:	3a88                	lbu	a0,17(a3)
 11e:	0000                	unimp
 120:	3a88                	lbu	a0,17(a3)
 122:	0000                	unimp
 124:	3a88                	lbu	a0,17(a3)
 126:	0000                	unimp
 128:	3a88                	lbu	a0,17(a3)
 12a:	0000                	unimp
 12c:	3a88                	lbu	a0,17(a3)
 12e:	0000                	unimp
 130:	3a88                	lbu	a0,17(a3)
 132:	0000                	unimp
 134:	3a88                	lbu	a0,17(a3)
 136:	0000                	unimp
 138:	3a88                	lbu	a0,17(a3)
 13a:	0000                	unimp
 13c:	3a88                	lbu	a0,17(a3)
 13e:	0000                	unimp
 140:	3a88                	lbu	a0,17(a3)
 142:	0000                	unimp
 144:	3a88                	lbu	a0,17(a3)
 146:	0000                	unimp
 148:	3a88                	lbu	a0,17(a3)
 14a:	0000                	unimp
 14c:	3a88                	lbu	a0,17(a3)
 14e:	0000                	unimp
 150:	3a88                	lbu	a0,17(a3)
 152:	0000                	unimp
 154:	3a88                	lbu	a0,17(a3)
 156:	0000                	unimp
 158:	3a88                	lbu	a0,17(a3)
 15a:	0000                	unimp
 15c:	3a88                	lbu	a0,17(a3)
 15e:	0000                	unimp
 160:	3a88                	lbu	a0,17(a3)
 162:	0000                	unimp
 164:	3a88                	lbu	a0,17(a3)
 166:	0000                	unimp
 168:	1ef8                	addi	a4,sp,892
 16a:	0000                	unimp
 16c:	3a88                	lbu	a0,17(a3)
 16e:	0000                	unimp
 170:	3a88                	lbu	a0,17(a3)
 172:	0000                	unimp
 174:	3a88                	lbu	a0,17(a3)
 176:	0000                	unimp
 178:	3a88                	lbu	a0,17(a3)
 17a:	0000                	unimp
 17c:	3a88                	lbu	a0,17(a3)
 17e:	0000                	unimp
 180:	3a88                	lbu	a0,17(a3)
 182:	0000                	unimp
 184:	3a88                	lbu	a0,17(a3)
 186:	0000                	unimp
 188:	3a88                	lbu	a0,17(a3)
 18a:	0000                	unimp
 18c:	3a88                	lbu	a0,17(a3)
 18e:	0000                	unimp
 190:	3a88                	lbu	a0,17(a3)
 192:	0000                	unimp
 194:	3a88                	lbu	a0,17(a3)
 196:	0000                	unimp
 198:	3a88                	lbu	a0,17(a3)
 19a:	0000                	unimp
 19c:	3a88                	lbu	a0,17(a3)
 19e:	0000                	unimp
 1a0:	3a88                	lbu	a0,17(a3)
	...

Disassembly of section .text:

000001c0 <__riscv_save_12>:
     1c0:	7139                	addi	sp,sp,-64
     1c2:	4301                	li	t1,0
     1c4:	c66e                	sw	s11,12(sp)
     1c6:	a019                	j	1cc <__riscv_save_10+0x4>

000001c8 <__riscv_save_10>:
     1c8:	7139                	addi	sp,sp,-64
     1ca:	5341                	li	t1,-16
     1cc:	c86a                	sw	s10,16(sp)
     1ce:	ca66                	sw	s9,20(sp)
     1d0:	cc62                	sw	s8,24(sp)
     1d2:	ce5e                	sw	s7,28(sp)
     1d4:	a019                	j	1da <__riscv_save_4+0x4>

000001d6 <__riscv_save_4>:
     1d6:	7139                	addi	sp,sp,-64
     1d8:	5301                	li	t1,-32
     1da:	d05a                	sw	s6,32(sp)
     1dc:	d256                	sw	s5,36(sp)
     1de:	d452                	sw	s4,40(sp)
     1e0:	d64e                	sw	s3,44(sp)
     1e2:	d84a                	sw	s2,48(sp)
     1e4:	da26                	sw	s1,52(sp)
     1e6:	dc22                	sw	s0,56(sp)
     1e8:	de06                	sw	ra,60(sp)
     1ea:	40610133          	sub	sp,sp,t1
     1ee:	8282                	jr	t0

000001f0 <__riscv_save_0>:
     1f0:	1141                	addi	sp,sp,-16
     1f2:	c04a                	sw	s2,0(sp)
     1f4:	c226                	sw	s1,4(sp)
     1f6:	c422                	sw	s0,8(sp)
     1f8:	c606                	sw	ra,12(sp)
     1fa:	8282                	jr	t0

000001fc <__riscv_restore_12>:
     1fc:	4db2                	lw	s11,12(sp)
     1fe:	0141                	addi	sp,sp,16

00000200 <__riscv_restore_10>:
     200:	4d02                	lw	s10,0(sp)
     202:	4c92                	lw	s9,4(sp)
     204:	4c22                	lw	s8,8(sp)
     206:	4bb2                	lw	s7,12(sp)
     208:	0141                	addi	sp,sp,16

0000020a <__riscv_restore_4>:
     20a:	4b02                	lw	s6,0(sp)
     20c:	4a92                	lw	s5,4(sp)
     20e:	4a22                	lw	s4,8(sp)
     210:	49b2                	lw	s3,12(sp)
     212:	0141                	addi	sp,sp,16

00000214 <__riscv_restore_0>:
     214:	4902                	lw	s2,0(sp)
     216:	4492                	lw	s1,4(sp)
     218:	4422                	lw	s0,8(sp)
     21a:	40b2                	lw	ra,12(sp)
     21c:	0141                	addi	sp,sp,16
     21e:	8082                	ret

00000220 <memset>:
     220:	433d                	li	t1,15
     222:	872a                	mv	a4,a0
     224:	02c37363          	bgeu	t1,a2,24a <memset+0x2a>
     228:	00f77793          	andi	a5,a4,15
     22c:	efbd                	bnez	a5,2aa <memset+0x8a>
     22e:	e5ad                	bnez	a1,298 <memset+0x78>
     230:	ff067693          	andi	a3,a2,-16
     234:	8a3d                	andi	a2,a2,15
     236:	96ba                	add	a3,a3,a4
     238:	c30c                	sw	a1,0(a4)
     23a:	c34c                	sw	a1,4(a4)
     23c:	c70c                	sw	a1,8(a4)
     23e:	c74c                	sw	a1,12(a4)
     240:	0741                	addi	a4,a4,16
     242:	fed76be3          	bltu	a4,a3,238 <memset+0x18>
     246:	e211                	bnez	a2,24a <memset+0x2a>
     248:	8082                	ret
     24a:	40c306b3          	sub	a3,t1,a2
     24e:	068a                	slli	a3,a3,0x2
     250:	00000297          	auipc	t0,0x0
     254:	9696                	add	a3,a3,t0
     256:	00a68067          	jr	10(a3)
     25a:	00b70723          	sb	a1,14(a4)
     25e:	00b706a3          	sb	a1,13(a4)
     262:	00b70623          	sb	a1,12(a4)
     266:	00b705a3          	sb	a1,11(a4)
     26a:	00b70523          	sb	a1,10(a4)
     26e:	00b704a3          	sb	a1,9(a4)
     272:	00b70423          	sb	a1,8(a4)
     276:	00b703a3          	sb	a1,7(a4)
     27a:	00b70323          	sb	a1,6(a4)
     27e:	00b702a3          	sb	a1,5(a4)
     282:	00b70223          	sb	a1,4(a4)
     286:	00b701a3          	sb	a1,3(a4)
     28a:	00b70123          	sb	a1,2(a4)
     28e:	00b700a3          	sb	a1,1(a4)
     292:	00b70023          	sb	a1,0(a4)
     296:	8082                	ret
     298:	0ff5f593          	andi	a1,a1,255
     29c:	00859693          	slli	a3,a1,0x8
     2a0:	8dd5                	or	a1,a1,a3
     2a2:	01059693          	slli	a3,a1,0x10
     2a6:	8dd5                	or	a1,a1,a3
     2a8:	b761                	j	230 <memset+0x10>
     2aa:	00279693          	slli	a3,a5,0x2
     2ae:	00000297          	auipc	t0,0x0
     2b2:	9696                	add	a3,a3,t0
     2b4:	8286                	mv	t0,ra
     2b6:	fa8680e7          	jalr	-88(a3)
     2ba:	8096                	mv	ra,t0
     2bc:	17c1                	addi	a5,a5,-16
     2be:	8f1d                	sub	a4,a4,a5
     2c0:	963e                	add	a2,a2,a5
     2c2:	f8c374e3          	bgeu	t1,a2,24a <memset+0x2a>
     2c6:	b7a5                	j	22e <memset+0xe>

000002c8 <strcmp>:
     2c8:	00b56733          	or	a4,a0,a1
     2cc:	53fd                	li	t2,-1
     2ce:	8b0d                	andi	a4,a4,3
     2d0:	e779                	bnez	a4,39e <strcmp+0xd6>
     2d2:	7f7f87b7          	lui	a5,0x7f7f8
     2d6:	f7f78793          	addi	a5,a5,-129 # 7f7f7f7f <_eusrstack+0x5f7eff7f>
     2da:	4110                	lw	a2,0(a0)
     2dc:	4194                	lw	a3,0(a1)
     2de:	00f672b3          	and	t0,a2,a5
     2e2:	00f66333          	or	t1,a2,a5
     2e6:	92be                	add	t0,t0,a5
     2e8:	0062e2b3          	or	t0,t0,t1
     2ec:	0c729563          	bne	t0,t2,3b6 <strcmp+0xee>
     2f0:	06d61863          	bne	a2,a3,360 <strcmp+0x98>
     2f4:	4150                	lw	a2,4(a0)
     2f6:	41d4                	lw	a3,4(a1)
     2f8:	00f672b3          	and	t0,a2,a5
     2fc:	00f66333          	or	t1,a2,a5
     300:	92be                	add	t0,t0,a5
     302:	0062e2b3          	or	t0,t0,t1
     306:	0a729663          	bne	t0,t2,3b2 <strcmp+0xea>
     30a:	04d61b63          	bne	a2,a3,360 <strcmp+0x98>
     30e:	4510                	lw	a2,8(a0)
     310:	4594                	lw	a3,8(a1)
     312:	00f672b3          	and	t0,a2,a5
     316:	00f66333          	or	t1,a2,a5
     31a:	92be                	add	t0,t0,a5
     31c:	0062e2b3          	or	t0,t0,t1
     320:	08729f63          	bne	t0,t2,3be <strcmp+0xf6>
     324:	02d61e63          	bne	a2,a3,360 <strcmp+0x98>
     328:	4550                	lw	a2,12(a0)
     32a:	45d4                	lw	a3,12(a1)
     32c:	00f672b3          	and	t0,a2,a5
     330:	00f66333          	or	t1,a2,a5
     334:	92be                	add	t0,t0,a5
     336:	0062e2b3          	or	t0,t0,t1
     33a:	08729863          	bne	t0,t2,3ca <strcmp+0x102>
     33e:	02d61163          	bne	a2,a3,360 <strcmp+0x98>
     342:	4910                	lw	a2,16(a0)
     344:	4994                	lw	a3,16(a1)
     346:	00f672b3          	and	t0,a2,a5
     34a:	00f66333          	or	t1,a2,a5
     34e:	92be                	add	t0,t0,a5
     350:	0062e2b3          	or	t0,t0,t1
     354:	08729163          	bne	t0,t2,3d6 <strcmp+0x10e>
     358:	0551                	addi	a0,a0,20
     35a:	05d1                	addi	a1,a1,20
     35c:	f6d60fe3          	beq	a2,a3,2da <strcmp+0x12>
     360:	01061713          	slli	a4,a2,0x10
     364:	01069793          	slli	a5,a3,0x10
     368:	00f71c63          	bne	a4,a5,380 <strcmp+0xb8>
     36c:	01065713          	srli	a4,a2,0x10
     370:	0106d793          	srli	a5,a3,0x10
     374:	40f70533          	sub	a0,a4,a5
     378:	0ff57593          	andi	a1,a0,255
     37c:	e991                	bnez	a1,390 <strcmp+0xc8>
     37e:	8082                	ret
     380:	8341                	srli	a4,a4,0x10
     382:	83c1                	srli	a5,a5,0x10
     384:	40f70533          	sub	a0,a4,a5
     388:	0ff57593          	andi	a1,a0,255
     38c:	e191                	bnez	a1,390 <strcmp+0xc8>
     38e:	8082                	ret
     390:	0ff77713          	andi	a4,a4,255
     394:	0ff7f793          	andi	a5,a5,255
     398:	40f70533          	sub	a0,a4,a5
     39c:	8082                	ret
     39e:	2110                	lbu	a2,0(a0)
     3a0:	2194                	lbu	a3,0(a1)
     3a2:	0505                	addi	a0,a0,1
     3a4:	0585                	addi	a1,a1,1
     3a6:	00d61363          	bne	a2,a3,3ac <strcmp+0xe4>
     3aa:	fa75                	bnez	a2,39e <strcmp+0xd6>
     3ac:	40d60533          	sub	a0,a2,a3
     3b0:	8082                	ret
     3b2:	0511                	addi	a0,a0,4
     3b4:	0591                	addi	a1,a1,4
     3b6:	fed614e3          	bne	a2,a3,39e <strcmp+0xd6>
     3ba:	4501                	li	a0,0
     3bc:	8082                	ret
     3be:	0521                	addi	a0,a0,8
     3c0:	05a1                	addi	a1,a1,8
     3c2:	fcd61ee3          	bne	a2,a3,39e <strcmp+0xd6>
     3c6:	4501                	li	a0,0
     3c8:	8082                	ret
     3ca:	0531                	addi	a0,a0,12
     3cc:	05b1                	addi	a1,a1,12
     3ce:	fcd618e3          	bne	a2,a3,39e <strcmp+0xd6>
     3d2:	4501                	li	a0,0
     3d4:	8082                	ret
     3d6:	0541                	addi	a0,a0,16
     3d8:	05c1                	addi	a1,a1,16
     3da:	fcd612e3          	bne	a2,a3,39e <strcmp+0xd6>
     3de:	4501                	li	a0,0
     3e0:	8082                	ret

000003e2 <ADS1234_GPIO_Config>:
     3e2:	df5ff2ef          	jal	t0,1d6 <__riscv_save_4>
     3e6:	1141                	addi	sp,sp,-16
     3e8:	4585                	li	a1,1
     3ea:	4531                	li	a0,12
     3ec:	40011437          	lui	s0,0x40011
     3f0:	1dd030ef          	jal	ra,3dcc <RCC_APB2PeriphClockCmd>
     3f4:	4785                	li	a5,1
     3f6:	44c1                	li	s1,16
     3f8:	490d                	li	s2,3
     3fa:	004c                	addi	a1,sp,4
     3fc:	80040513          	addi	a0,s0,-2048 # 40010800 <_eusrstack+0x20008800>
     400:	827c                	sh	a5,4(sp)
     402:	c626                	sw	s1,12(sp)
     404:	c44a                	sw	s2,8(sp)
     406:	712030ef          	jal	ra,3b18 <GPIO_Init>
     40a:	80040513          	addi	a0,s0,-2048
     40e:	4585                	li	a1,1
     410:	7e0030ef          	jal	ra,3bf0 <GPIO_ResetBits>
     414:	04800793          	li	a5,72
     418:	4989                	li	s3,2
     41a:	004c                	addi	a1,sp,4
     41c:	80040513          	addi	a0,s0,-2048
     420:	c63e                	sw	a5,12(sp)
     422:	01311223          	sh	s3,4(sp)
     426:	6f2030ef          	jal	ra,3b18 <GPIO_Init>
     42a:	004c                	addi	a1,sp,4
     42c:	c0040513          	addi	a0,s0,-1024
     430:	01311223          	sh	s3,4(sp)
     434:	c626                	sw	s1,12(sp)
     436:	c44a                	sw	s2,8(sp)
     438:	6e0030ef          	jal	ra,3b18 <GPIO_Init>
     43c:	c0040513          	addi	a0,s0,-1024
     440:	4589                	li	a1,2
     442:	7aa030ef          	jal	ra,3bec <GPIO_SetBits>
     446:	4791                	li	a5,4
     448:	004c                	addi	a1,sp,4
     44a:	c0040513          	addi	a0,s0,-1024
     44e:	827c                	sh	a5,4(sp)
     450:	c626                	sw	s1,12(sp)
     452:	6c6030ef          	jal	ra,3b18 <GPIO_Init>
     456:	02000793          	li	a5,32
     45a:	004c                	addi	a1,sp,4
     45c:	c0040513          	addi	a0,s0,-1024
     460:	827c                	sh	a5,4(sp)
     462:	0000b4b7          	lui	s1,0xb
     466:	6b2030ef          	jal	ra,3b18 <GPIO_Init>
     46a:	a0c48513          	addi	a0,s1,-1524 # aa0c <_read+0x2c6>
     46e:	200050ef          	jal	ra,566e <puts>
     472:	c0040513          	addi	a0,s0,-1024
     476:	4591                	li	a1,4
     478:	778030ef          	jal	ra,3bf0 <GPIO_ResetBits>
     47c:	02000593          	li	a1,32
     480:	c0040513          	addi	a0,s0,-1024
     484:	76c030ef          	jal	ra,3bf0 <GPIO_ResetBits>
     488:	a0c48513          	addi	a0,s1,-1524
     48c:	1e2050ef          	jal	ra,566e <puts>
     490:	0000b537          	lui	a0,0xb
     494:	a2050513          	addi	a0,a0,-1504 # aa20 <_read+0x2da>
     498:	1d6050ef          	jal	ra,566e <puts>
     49c:	0141                	addi	sp,sp,16
     49e:	b3b5                	j	20a <__riscv_restore_4>

000004a0 <ADS1234_Init>:
     4a0:	d51ff2ef          	jal	t0,1f0 <__riscv_save_0>
     4a4:	0000b537          	lui	a0,0xb
     4a8:	a6450513          	addi	a0,a0,-1436 # aa64 <_read+0x31e>
     4ac:	40011437          	lui	s0,0x40011
     4b0:	1be050ef          	jal	ra,566e <puts>
     4b4:	4589                	li	a1,2
     4b6:	c0040513          	addi	a0,s0,-1024 # 40010c00 <_eusrstack+0x20008c00>
     4ba:	736030ef          	jal	ra,3bf0 <GPIO_ResetBits>
     4be:	4529                	li	a0,10
     4c0:	1ce010ef          	jal	ra,168e <delay_ms>
     4c4:	4585                	li	a1,1
     4c6:	80040513          	addi	a0,s0,-2048
     4ca:	726030ef          	jal	ra,3bf0 <GPIO_ResetBits>
     4ce:	4529                	li	a0,10
     4d0:	1be010ef          	jal	ra,168e <delay_ms>
     4d4:	4589                	li	a1,2
     4d6:	c0040513          	addi	a0,s0,-1024
     4da:	712030ef          	jal	ra,3bec <GPIO_SetBits>
     4de:	0c800513          	li	a0,200
     4e2:	1ac010ef          	jal	ra,168e <delay_ms>
     4e6:	0000b4b7          	lui	s1,0xb
     4ea:	a7c48513          	addi	a0,s1,-1412 # aa7c <_read+0x336>
     4ee:	180050ef          	jal	ra,566e <puts>
     4f2:	4589                	li	a1,2
     4f4:	c0040513          	addi	a0,s0,-1024
     4f8:	6ea030ef          	jal	ra,3be2 <GPIO_ReadOutputDataBit>
     4fc:	85aa                	mv	a1,a0
     4fe:	0000b537          	lui	a0,0xb
     502:	a9050513          	addi	a0,a0,-1392 # aa90 <_read+0x34a>
     506:	01c050ef          	jal	ra,5522 <iprintf>
     50a:	a7c48513          	addi	a0,s1,-1412
     50e:	160050ef          	jal	ra,566e <puts>
     512:	b309                	j	214 <__riscv_restore_0>

00000514 <ADS1234_SetChannel>:
     514:	cddff2ef          	jal	t0,1f0 <__riscv_save_0>
     518:	4785                	li	a5,1
     51a:	04f50263          	beq	a0,a5,55e <ADS1234_SetChannel+0x4a>
     51e:	cd01                	beqz	a0,536 <ADS1234_SetChannel+0x22>
     520:	4789                	li	a5,2
     522:	06f50063          	beq	a0,a5,582 <ADS1234_SetChannel+0x6e>
     526:	478d                	li	a5,3
     528:	06f50f63          	beq	a0,a5,5a6 <ADS1234_SetChannel+0x92>
     52c:	06400513          	li	a0,100
     530:	184010ef          	jal	ra,16b4 <delay_us>
     534:	b1c5                	j	214 <__riscv_restore_0>
     536:	40011437          	lui	s0,0x40011
     53a:	4591                	li	a1,4
     53c:	c0040513          	addi	a0,s0,-1024 # 40010c00 <_eusrstack+0x20008c00>
     540:	6b0030ef          	jal	ra,3bf0 <GPIO_ResetBits>
     544:	c0040513          	addi	a0,s0,-1024
     548:	02000593          	li	a1,32
     54c:	6a4030ef          	jal	ra,3bf0 <GPIO_ResetBits>
     550:	0000b537          	lui	a0,0xb
     554:	ae850513          	addi	a0,a0,-1304 # aae8 <_read+0x3a2>
     558:	116050ef          	jal	ra,566e <puts>
     55c:	bfc1                	j	52c <ADS1234_SetChannel+0x18>
     55e:	40011437          	lui	s0,0x40011
     562:	4591                	li	a1,4
     564:	c0040513          	addi	a0,s0,-1024 # 40010c00 <_eusrstack+0x20008c00>
     568:	684030ef          	jal	ra,3bec <GPIO_SetBits>
     56c:	c0040513          	addi	a0,s0,-1024
     570:	02000593          	li	a1,32
     574:	67c030ef          	jal	ra,3bf0 <GPIO_ResetBits>
     578:	0000b537          	lui	a0,0xb
     57c:	b0850513          	addi	a0,a0,-1272 # ab08 <_read+0x3c2>
     580:	bfe1                	j	558 <ADS1234_SetChannel+0x44>
     582:	40011437          	lui	s0,0x40011
     586:	4591                	li	a1,4
     588:	c0040513          	addi	a0,s0,-1024 # 40010c00 <_eusrstack+0x20008c00>
     58c:	664030ef          	jal	ra,3bf0 <GPIO_ResetBits>
     590:	c0040513          	addi	a0,s0,-1024
     594:	02000593          	li	a1,32
     598:	654030ef          	jal	ra,3bec <GPIO_SetBits>
     59c:	0000b537          	lui	a0,0xb
     5a0:	b2850513          	addi	a0,a0,-1240 # ab28 <_read+0x3e2>
     5a4:	bf55                	j	558 <ADS1234_SetChannel+0x44>
     5a6:	40011437          	lui	s0,0x40011
     5aa:	4591                	li	a1,4
     5ac:	c0040513          	addi	a0,s0,-1024 # 40010c00 <_eusrstack+0x20008c00>
     5b0:	63c030ef          	jal	ra,3bec <GPIO_SetBits>
     5b4:	c0040513          	addi	a0,s0,-1024
     5b8:	02000593          	li	a1,32
     5bc:	630030ef          	jal	ra,3bec <GPIO_SetBits>
     5c0:	0000b537          	lui	a0,0xb
     5c4:	b4850513          	addi	a0,a0,-1208 # ab48 <_read+0x402>
     5c8:	bf41                	j	558 <ADS1234_SetChannel+0x44>

000005ca <ADS1234_ReadData>:
     5ca:	c0dff2ef          	jal	t0,1d6 <__riscv_save_4>
     5ce:	8a2a                	mv	s4,a0
     5d0:	3791                	jal	514 <ADS1234_SetChannel>
     5d2:	0fa00513          	li	a0,250
     5d6:	400114b7          	lui	s1,0x40011
     5da:	0b4010ef          	jal	ra,168e <delay_ms>
     5de:	1f500413          	li	s0,501
     5e2:	80048993          	addi	s3,s1,-2048 # 40010800 <_eusrstack+0x20008800>
     5e6:	4905                	li	s2,1
     5e8:	4589                	li	a1,2
     5ea:	854e                	mv	a0,s3
     5ec:	5ec030ef          	jal	ra,3bd8 <GPIO_ReadInputDataBit>
     5f0:	07250a63          	beq	a0,s2,664 <ADS1234_ReadData+0x9a>
     5f4:	40011937          	lui	s2,0x40011
     5f8:	44e1                	li	s1,24
     5fa:	4401                	li	s0,0
     5fc:	80090993          	addi	s3,s2,-2048 # 40010800 <_eusrstack+0x20008800>
     600:	4585                	li	a1,1
     602:	854e                	mv	a0,s3
     604:	5e8030ef          	jal	ra,3bec <GPIO_SetBits>
     608:	4509                	li	a0,2
     60a:	0aa010ef          	jal	ra,16b4 <delay_us>
     60e:	4589                	li	a1,2
     610:	854e                	mv	a0,s3
     612:	0406                	slli	s0,s0,0x1
     614:	5c4030ef          	jal	ra,3bd8 <GPIO_ReadInputDataBit>
     618:	c119                	beqz	a0,61e <ADS1234_ReadData+0x54>
     61a:	00146413          	ori	s0,s0,1
     61e:	4585                	li	a1,1
     620:	854e                	mv	a0,s3
     622:	5ce030ef          	jal	ra,3bf0 <GPIO_ResetBits>
     626:	14fd                	addi	s1,s1,-1
     628:	4509                	li	a0,2
     62a:	0ff4f493          	andi	s1,s1,255
     62e:	086010ef          	jal	ra,16b4 <delay_us>
     632:	f4f9                	bnez	s1,600 <ADS1234_ReadData+0x36>
     634:	4585                	li	a1,1
     636:	80090513          	addi	a0,s2,-2048
     63a:	5b2030ef          	jal	ra,3bec <GPIO_SetBits>
     63e:	4509                	li	a0,2
     640:	074010ef          	jal	ra,16b4 <delay_us>
     644:	4585                	li	a1,1
     646:	80090513          	addi	a0,s2,-2048
     64a:	5a6030ef          	jal	ra,3bf0 <GPIO_ResetBits>
     64e:	4509                	li	a0,2
     650:	064010ef          	jal	ra,16b4 <delay_us>
     654:	00841793          	slli	a5,s0,0x8
     658:	0407d763          	bgez	a5,6a6 <ADS1234_ReadData+0xdc>
     65c:	ff0007b7          	lui	a5,0xff000
     660:	8c5d                	or	s0,s0,a5
     662:	a091                	j	6a6 <ADS1234_ReadData+0xdc>
     664:	147d                	addi	s0,s0,-1
     666:	028010ef          	jal	ra,168e <delay_ms>
     66a:	fc3d                	bnez	s0,5e8 <ADS1234_ReadData+0x1e>
     66c:	4591                	li	a1,4
     66e:	c0048513          	addi	a0,s1,-1024
     672:	570030ef          	jal	ra,3be2 <GPIO_ReadOutputDataBit>
     676:	842a                	mv	s0,a0
     678:	02000593          	li	a1,32
     67c:	c0048513          	addi	a0,s1,-1024
     680:	562030ef          	jal	ra,3be2 <GPIO_ReadOutputDataBit>
     684:	862a                	mv	a2,a0
     686:	0000b537          	lui	a0,0xb
     68a:	85a2                	mv	a1,s0
     68c:	aac50513          	addi	a0,a0,-1364 # aaac <_read+0x366>
     690:	693040ef          	jal	ra,5522 <iprintf>
     694:	0000b537          	lui	a0,0xb
     698:	001a0593          	addi	a1,s4,1
     69c:	acc50513          	addi	a0,a0,-1332 # aacc <_read+0x386>
     6a0:	683040ef          	jal	ra,5522 <iprintf>
     6a4:	4401                	li	s0,0
     6a6:	8522                	mv	a0,s0
     6a8:	b68d                	j	20a <__riscv_restore_4>

000006aa <ADS1234_AutoZero>:
     6aa:	b1fff2ef          	jal	t0,1c8 <__riscv_save_10>
     6ae:	0000ca37          	lui	s4,0xc
     6b2:	1141                	addi	sp,sp,-16
     6b4:	ea4a0513          	addi	a0,s4,-348 # bea4 <g_item_map+0x434>
     6b8:	c002                	sw	zero,0(sp)
     6ba:	c202                	sw	zero,4(sp)
     6bc:	c402                	sw	zero,8(sp)
     6be:	c602                	sw	zero,12(sp)
     6c0:	0000a9b7          	lui	s3,0xa
     6c4:	7ab040ef          	jal	ra,566e <puts>
     6c8:	76898513          	addi	a0,s3,1896 # a768 <_read+0x22>
     6cc:	7a3040ef          	jal	ra,566e <puts>
     6d0:	0000a537          	lui	a0,0xa
     6d4:	7c450513          	addi	a0,a0,1988 # a7c4 <_read+0x7e>
     6d8:	797040ef          	jal	ra,566e <puts>
     6dc:	0000a937          	lui	s2,0xa
     6e0:	7f490513          	addi	a0,s2,2036 # a7f4 <_read+0xae>
     6e4:	78b040ef          	jal	ra,566e <puts>
     6e8:	0000b537          	lui	a0,0xb
     6ec:	85050513          	addi	a0,a0,-1968 # a850 <_read+0x10a>
     6f0:	77f040ef          	jal	ra,566e <puts>
     6f4:	0000b537          	lui	a0,0xb
     6f8:	88050513          	addi	a0,a0,-1920 # a880 <_read+0x13a>
     6fc:	773040ef          	jal	ra,566e <puts>
     700:	0000b4b7          	lui	s1,0xb
     704:	8b048513          	addi	a0,s1,-1872 # a8b0 <_read+0x16a>
     708:	767040ef          	jal	ra,566e <puts>
     70c:	4479                	li	s0,30
     70e:	4c11                	li	s8,4
     710:	8a8a                	mv	s5,sp
     712:	8bd6                	mv	s7,s5
     714:	4b01                	li	s6,0
     716:	855a                	mv	a0,s6
     718:	3d4d                	jal	5ca <ADS1234_ReadData>
     71a:	000ba783          	lw	a5,0(s7)
     71e:	0b05                	addi	s6,s6,1
     720:	0b91                	addi	s7,s7,4
     722:	953e                	add	a0,a0,a5
     724:	feabae23          	sw	a0,-4(s7)
     728:	02e00513          	li	a0,46
     72c:	639040ef          	jal	ra,5564 <putchar>
     730:	ff8b13e3          	bne	s6,s8,716 <ADS1234_AutoZero+0x6c>
     734:	147d                	addi	s0,s0,-1
     736:	06400513          	li	a0,100
     73a:	0ff47413          	andi	s0,s0,255
     73e:	751000ef          	jal	ra,168e <delay_ms>
     742:	f479                	bnez	s0,710 <ADS1234_AutoZero+0x66>
     744:	8d018713          	addi	a4,gp,-1840 # 200005a8 <g_zero_adc>
     748:	4781                	li	a5,0
     74a:	8d018413          	addi	s0,gp,-1840 # 200005a8 <g_zero_adc>
     74e:	4879                	li	a6,30
     750:	82418693          	addi	a3,gp,-2012 # 200004fc <g_is_calibrated>
     754:	4505                	li	a0,1
     756:	4591                	li	a1,4
     758:	000aa603          	lw	a2,0(s5)
     75c:	0711                	addi	a4,a4,4
     75e:	0a91                	addi	s5,s5,4
     760:	03064633          	div	a2,a2,a6
     764:	fec72e23          	sw	a2,-4(a4)
     768:	00f68633          	add	a2,a3,a5
     76c:	a208                	sb	a0,0(a2)
     76e:	0785                	addi	a5,a5,1
     770:	feb794e3          	bne	a5,a1,758 <ADS1234_AutoZero+0xae>
     774:	ea4a0513          	addi	a0,s4,-348
     778:	6f7040ef          	jal	ra,566e <puts>
     77c:	76898513          	addi	a0,s3,1896
     780:	6ef040ef          	jal	ra,566e <puts>
     784:	0000b537          	lui	a0,0xb
     788:	90c50513          	addi	a0,a0,-1780 # a90c <_read+0x1c6>
     78c:	6e3040ef          	jal	ra,566e <puts>
     790:	7f490513          	addi	a0,s2,2036
     794:	6db040ef          	jal	ra,566e <puts>
     798:	400c                	lw	a1,0(s0)
     79a:	0000b537          	lui	a0,0xb
     79e:	93c50513          	addi	a0,a0,-1732 # a93c <_read+0x1f6>
     7a2:	581040ef          	jal	ra,5522 <iprintf>
     7a6:	404c                	lw	a1,4(s0)
     7a8:	0000b537          	lui	a0,0xb
     7ac:	97050513          	addi	a0,a0,-1680 # a970 <_read+0x22a>
     7b0:	573040ef          	jal	ra,5522 <iprintf>
     7b4:	440c                	lw	a1,8(s0)
     7b6:	0000b537          	lui	a0,0xb
     7ba:	9a450513          	addi	a0,a0,-1628 # a9a4 <_read+0x25e>
     7be:	565040ef          	jal	ra,5522 <iprintf>
     7c2:	444c                	lw	a1,12(s0)
     7c4:	0000b537          	lui	a0,0xb
     7c8:	9d850513          	addi	a0,a0,-1576 # a9d8 <_read+0x292>
     7cc:	557040ef          	jal	ra,5522 <iprintf>
     7d0:	8b048513          	addi	a0,s1,-1872
     7d4:	69b040ef          	jal	ra,566e <puts>
     7d8:	0141                	addi	sp,sp,16
     7da:	b41d                	j	200 <__riscv_restore_10>

000007dc <ADS1234_ToWeight>:
     7dc:	9e5ff2ef          	jal	t0,1c0 <__riscv_save_12>
     7e0:	82418793          	addi	a5,gp,-2012 # 200004fc <g_is_calibrated>
     7e4:	97aa                	add	a5,a5,a0
     7e6:	239c                	lbu	a5,0(a5)
     7e8:	7159                	addi	sp,sp,-112
     7ea:	84aa                	mv	s1,a0
     7ec:	892e                	mv	s2,a1
     7ee:	cf91                	beqz	a5,80a <__stack_size+0xa>
     7f0:	00251413          	slli	s0,a0,0x2
     7f4:	8c018793          	addi	a5,gp,-1856 # 20000598 <g_scale_factor>
     7f8:	97a2                	add	a5,a5,s0
     7fa:	0007a983          	lw	s3,0(a5) # ff000000 <_eusrstack+0xdeff8000>
     7fe:	00000593          	li	a1,0
     802:	854e                	mv	a0,s3
     804:	0b6040ef          	jal	ra,48ba <__eqsf2>
     808:	ed19                	bnez	a0,826 <__stack_size+0x26>
     80a:	0000b537          	lui	a0,0xb
     80e:	864a                	mv	a2,s2
     810:	00148593          	addi	a1,s1,1
     814:	b7c50513          	addi	a0,a0,-1156 # ab7c <_read+0x436>
     818:	50b040ef          	jal	ra,5522 <iprintf>
     81c:	00000993          	li	s3,0
     820:	854e                	mv	a0,s3
     822:	6165                	addi	sp,sp,112
     824:	bae1                	j	1fc <__riscv_restore_12>
     826:	8d018793          	addi	a5,gp,-1840 # 200005a8 <g_zero_adc>
     82a:	97a2                	add	a5,a5,s0
     82c:	0007ab03          	lw	s6,0(a5)
     830:	412b0bb3          	sub	s7,s6,s2
     834:	855e                	mv	a0,s7
     836:	0c7040ef          	jal	ra,50fc <__floatsisf>
     83a:	85ce                	mv	a1,s3
     83c:	1ec040ef          	jal	ra,4a28 <__mulsf3>
     840:	00000593          	li	a1,0
     844:	8aaa                	mv	s5,a0
     846:	156040ef          	jal	ra,499c <__lesf2>
     84a:	00055463          	bgez	a0,852 <__stack_size+0x52>
     84e:	00000a93          	li	s5,0
     852:	8e018713          	addi	a4,gp,-1824 # 200005b8 <prev_weight.5362>
     856:	9722                	add	a4,a4,s0
     858:	00072c83          	lw	s9,0(a4)
     85c:	8556                	mv	a0,s5
     85e:	8e018c13          	addi	s8,gp,-1824 # 200005b8 <prev_weight.5362>
     862:	85e6                	mv	a1,s9
     864:	458040ef          	jal	ra,4cbc <__subsf3>
     868:	00000593          	li	a1,0
     86c:	89aa                	mv	s3,a0
     86e:	12e040ef          	jal	ra,499c <__lesf2>
     872:	00055663          	bgez	a0,87e <__stack_size+0x7e>
     876:	800007b7          	lui	a5,0x80000
     87a:	0137c9b3          	xor	s3,a5,s3
     87e:	0000b7b7          	lui	a5,0xb
     882:	b707a583          	lw	a1,-1168(a5) # ab70 <_read+0x42a>
     886:	854e                	mv	a0,s3
     888:	0000ba37          	lui	s4,0xb
     88c:	08a040ef          	jal	ra,4916 <__gesf2>
     890:	14a04d63          	bgtz	a0,9ea <__stack_size+0x1ea>
     894:	0000b7b7          	lui	a5,0xb
     898:	b6c7a983          	lw	s3,-1172(a5) # ab6c <_read+0x426>
     89c:	85ce                	mv	a1,s3
     89e:	8556                	mv	a0,s5
     8a0:	188040ef          	jal	ra,4a28 <__mulsf3>
     8a4:	8aaa                	mv	s5,a0
     8a6:	b68a2503          	lw	a0,-1176(s4) # ab68 <_read+0x422>
     8aa:	85ce                	mv	a1,s3
     8ac:	410040ef          	jal	ra,4cbc <__subsf3>
     8b0:	85e6                	mv	a1,s9
     8b2:	176040ef          	jal	ra,4a28 <__mulsf3>
     8b6:	85d6                	mv	a1,s5
     8b8:	1e7030ef          	jal	ra,429e <__addsf3>
     8bc:	008c07b3          	add	a5,s8,s0
     8c0:	c388                	sw	a0,0(a5)
     8c2:	8f018793          	addi	a5,gp,-1808 # 200005c8 <weight_data.5357>
     8c6:	97a2                	add	a5,a5,s0
     8c8:	c388                	sw	a0,0(a5)
     8ca:	8a018793          	addi	a5,gp,-1888 # 20000578 <adc_data.5358>
     8ce:	97a2                	add	a5,a5,s0
     8d0:	0127a023          	sw	s2,0(a5)
     8d4:	90018793          	addi	a5,gp,-1792 # 200005d8 <zero_data.5359>
     8d8:	97a2                	add	a5,a5,s0
     8da:	0167a023          	sw	s6,0(a5)
     8de:	8b018793          	addi	a5,gp,-1872 # 20000588 <diff_data.5360>
     8e2:	943e                	add	s0,s0,a5
     8e4:	82018793          	addi	a5,gp,-2016 # 200004f8 <_edata>
     8e8:	94be                	add	s1,s1,a5
     8ea:	4785                	li	a5,1
     8ec:	a09c                	sb	a5,0(s1)
     8ee:	89aa                	mv	s3,a0
     8f0:	01742023          	sw	s7,0(s0)
     8f4:	4781                	li	a5,0
     8f6:	8f018e13          	addi	t3,gp,-1808 # 200005c8 <weight_data.5357>
     8fa:	8a018a13          	addi	s4,gp,-1888 # 20000578 <adc_data.5358>
     8fe:	90018a93          	addi	s5,gp,-1792 # 200005d8 <zero_data.5359>
     902:	8b018b13          	addi	s6,gp,-1872 # 20000588 <diff_data.5360>
     906:	82018913          	addi	s2,gp,-2016 # 200004f8 <_edata>
     90a:	4711                	li	a4,4
     90c:	00f906b3          	add	a3,s2,a5
     910:	2294                	lbu	a3,0(a3)
     912:	f00687e3          	beqz	a3,820 <__stack_size+0x20>
     916:	0785                	addi	a5,a5,1
     918:	fee79ae3          	bne	a5,a4,90c <__stack_size+0x10c>
     91c:	0000b7b7          	lui	a5,0xb
     920:	b747af03          	lw	t5,-1164(a5) # ab74 <_read+0x42e>
     924:	0000b7b7          	lui	a5,0xb
     928:	b787ad03          	lw	s10,-1160(a5) # ab78 <_read+0x432>
     92c:	000f4bb7          	lui	s7,0xf4
     930:	6c09                	lui	s8,0x2
     932:	4481                	li	s1,0
     934:	4c81                	li	s9,0
     936:	4401                	li	s0,0
     938:	240b8b93          	addi	s7,s7,576 # f4240 <_data_lma+0xe7954>
     93c:	06400d93          	li	s11,100
     940:	710c0c13          	addi	s8,s8,1808 # 2710 <InitNewCard+0xfc>
     944:	009e07b3          	add	a5,t3,s1
     948:	4398                	lw	a4,0(a5)
     94a:	85fa                	mv	a1,t5
     94c:	ce7a                	sw	t5,28(sp)
     94e:	853a                	mv	a0,a4
     950:	cc3a                	sw	a4,24(sp)
     952:	0d6040ef          	jal	ra,4a28 <__mulsf3>
     956:	6ee040ef          	jal	ra,5044 <__fixsfsi>
     95a:	4762                	lw	a4,24(sp)
     95c:	85ea                	mv	a1,s10
     95e:	ca2a                	sw	a0,20(sp)
     960:	942a                	add	s0,s0,a0
     962:	853a                	mv	a0,a4
     964:	0c4040ef          	jal	ra,4a28 <__mulsf3>
     968:	6dc040ef          	jal	ra,5044 <__fixsfsi>
     96c:	03854733          	div	a4,a0,s8
     970:	47d2                	lw	a5,20(sp)
     972:	009b05b3          	add	a1,s6,s1
     976:	009a86b3          	add	a3,s5,s1
     97a:	009a0633          	add	a2,s4,s1
     97e:	0c85                	addi	s9,s9,1
     980:	0491                	addi	s1,s1,4
     982:	03b76733          	rem	a4,a4,s11
     986:	037548b3          	div	a7,a0,s7
     98a:	c03a                	sw	a4,0(sp)
     98c:	4198                	lw	a4,0(a1)
     98e:	4294                	lw	a3,0(a3)
     990:	4210                	lw	a2,0(a2)
     992:	0000b537          	lui	a0,0xb
     996:	85e6                	mv	a1,s9
     998:	b9c50513          	addi	a0,a0,-1124 # ab9c <_read+0x456>
     99c:	03b7e833          	rem	a6,a5,s11
     9a0:	03b7c7b3          	div	a5,a5,s11
     9a4:	37f040ef          	jal	ra,5522 <iprintf>
     9a8:	4e91                	li	t4,4
     9aa:	4f72                	lw	t5,28(sp)
     9ac:	8f018e13          	addi	t3,gp,-1808 # 200005c8 <weight_data.5357>
     9b0:	f9dc9ae3          	bne	s9,t4,944 <__stack_size+0x144>
     9b4:	03b444b3          	div	s1,s0,s11
     9b8:	0000b537          	lui	a0,0xb
     9bc:	bf050513          	addi	a0,a0,-1040 # abf0 <_read+0x4aa>
     9c0:	03b46433          	rem	s0,s0,s11
     9c4:	85a6                	mv	a1,s1
     9c6:	8622                	mv	a2,s0
     9c8:	35b040ef          	jal	ra,5522 <iprintf>
     9cc:	0000b5b7          	lui	a1,0xb
     9d0:	86a2                	mv	a3,s0
     9d2:	8626                	mv	a2,s1
     9d4:	c1458593          	addi	a1,a1,-1004 # ac14 <_read+0x4ce>
     9d8:	1008                	addi	a0,sp,32
     9da:	4a1040ef          	jal	ra,567a <siprintf>
     9de:	1008                	addi	a0,sp,32
     9e0:	684010ef          	jal	ra,2064 <USART1_SendString>
     9e4:	00092023          	sw	zero,0(s2)
     9e8:	bd25                	j	820 <__stack_size+0x20>
     9ea:	b68a2983          	lw	s3,-1176(s4)
     9ee:	b57d                	j	89c <__stack_size+0x9c>

000009f0 <CRC8>:
     9f0:	95aa                	add	a1,a1,a0
     9f2:	05c2                	slli	a1,a1,0x10
     9f4:	4781                	li	a5,0
     9f6:	81c1                	srli	a1,a1,0x10
     9f8:	01051713          	slli	a4,a0,0x10
     9fc:	8341                	srli	a4,a4,0x10
     9fe:	00e59463          	bne	a1,a4,a06 <CRC8+0x16>
     a02:	853e                	mv	a0,a5
     a04:	8082                	ret
     a06:	0505                	addi	a0,a0,1
     a08:	fff54683          	lbu	a3,-1(a0)
     a0c:	4721                	li	a4,8
     a0e:	00d7c633          	xor	a2,a5,a3
     a12:	8a05                	andi	a2,a2,1
     a14:	8385                	srli	a5,a5,0x1
     a16:	c609                	beqz	a2,a20 <CRC8+0x30>
     a18:	f8c7c793          	xori	a5,a5,-116
     a1c:	0ff7f793          	andi	a5,a5,255
     a20:	177d                	addi	a4,a4,-1
     a22:	0ff77713          	andi	a4,a4,255
     a26:	8285                	srli	a3,a3,0x1
     a28:	f37d                	bnez	a4,a0e <CRC8+0x1e>
     a2a:	b7f9                	j	9f8 <CRC8+0x8>

00000a2c <Cloud_SendEscaped>:
     a2c:	fc4ff2ef          	jal	t0,1f0 <__riscv_save_0>
     a30:	0aa00713          	li	a4,170
     a34:	00e51b63          	bne	a0,a4,a4a <Cloud_SendEscaped+0x1e>
     a38:	0bb00513          	li	a0,187
     a3c:	6b5000ef          	jal	ra,18f0 <UART8_SendByte>
     a40:	4505                	li	a0,1
     a42:	6af000ef          	jal	ra,18f0 <UART8_SendByte>
     a46:	fceff06f          	j	214 <__riscv_restore_0>
     a4a:	05500713          	li	a4,85
     a4e:	00e51863          	bne	a0,a4,a5e <Cloud_SendEscaped+0x32>
     a52:	0bb00513          	li	a0,187
     a56:	69b000ef          	jal	ra,18f0 <UART8_SendByte>
     a5a:	4509                	li	a0,2
     a5c:	b7dd                	j	a42 <Cloud_SendEscaped+0x16>
     a5e:	0bb00713          	li	a4,187
     a62:	fee510e3          	bne	a0,a4,a42 <Cloud_SendEscaped+0x16>
     a66:	68b000ef          	jal	ra,18f0 <UART8_SendByte>
     a6a:	4501                	li	a0,0
     a6c:	bfd9                	j	a42 <Cloud_SendEscaped+0x16>

00000a6e <Cloud_SendFrame>:
     a6e:	f82ff2ef          	jal	t0,1f0 <__riscv_save_0>
     a72:	84aa                	mv	s1,a0
     a74:	0aa00513          	li	a0,170
     a78:	8432                	mv	s0,a2
     a7a:	892e                	mv	s2,a1
     a7c:	675000ef          	jal	ra,18f0 <UART8_SendByte>
     a80:	8526                	mv	a0,s1
     a82:	376d                	jal	a2c <Cloud_SendEscaped>
     a84:	00845513          	srli	a0,s0,0x8
     a88:	3755                	jal	a2c <Cloud_SendEscaped>
     a8a:	0ff47513          	andi	a0,s0,255
     a8e:	3f79                	jal	a2c <Cloud_SendEscaped>
     a90:	4481                	li	s1,0
     a92:	01049793          	slli	a5,s1,0x10
     a96:	83c1                	srli	a5,a5,0x10
     a98:	0087ed63          	bltu	a5,s0,ab2 <Cloud_SendFrame+0x44>
     a9c:	85a2                	mv	a1,s0
     a9e:	854a                	mv	a0,s2
     aa0:	3f81                	jal	9f0 <CRC8>
     aa2:	3769                	jal	a2c <Cloud_SendEscaped>
     aa4:	05500513          	li	a0,85
     aa8:	649000ef          	jal	ra,18f0 <UART8_SendByte>
     aac:	4505                	li	a0,1
     aae:	f66ff06f          	j	214 <__riscv_restore_0>
     ab2:	009907b3          	add	a5,s2,s1
     ab6:	2388                	lbu	a0,0(a5)
     ab8:	0485                	addi	s1,s1,1
     aba:	3f8d                	jal	a2c <Cloud_SendEscaped>
     abc:	bfd9                	j	a92 <Cloud_SendFrame+0x24>

00000abe <Cloud_ProcessRX>:
     abe:	f18ff2ef          	jal	t0,1d6 <__riscv_save_4>
     ac2:	82a18793          	addi	a5,gp,-2006 # 20000502 <g_cloud_frame_ready>
     ac6:	239c                	lbu	a5,0(a5)
     ac8:	7111                	addi	sp,sp,-256
     aca:	0ff7f793          	andi	a5,a5,255
     ace:	0e078a63          	beqz	a5,bc2 <Cloud_ProcessRX+0x104>
     ad2:	82c1d583          	lhu	a1,-2004(gp) # 20000504 <g_cloud_rx_idx>
     ad6:	82a18913          	addi	s2,gp,-2006 # 20000502 <g_cloud_frame_ready>
     ada:	15fd                	addi	a1,a1,-1
     adc:	4705                	li	a4,1
     ade:	4681                	li	a3,0
     ae0:	4781                	li	a5,0
     ae2:	82c18493          	addi	s1,gp,-2004 # 20000504 <g_cloud_rx_idx>
     ae6:	0fe00813          	li	a6,254
     aea:	a1018513          	addi	a0,gp,-1520 # 200006e8 <g_cloud_rx_buf>
     aee:	0bb00893          	li	a7,187
     af2:	4305                	li	t1,1
     af4:	4e09                	li	t3,2
     af6:	fbb00e93          	li	t4,-69
     afa:	05500f13          	li	t5,85
     afe:	faa00f93          	li	t6,-86
     b02:	0ab75963          	bge	a4,a1,bb4 <Cloud_ProcessRX+0xf6>
     b06:	04f87163          	bgeu	a6,a5,b48 <Cloud_ProcessRX+0x8a>
     b0a:	8080                	lbu	s0,1(sp)
     b0c:	8118                	lbu	a4,2(sp)
     b0e:	0422                	slli	s0,s0,0x8
     b10:	8c59                	or	s0,s0,a4
     b12:	00340993          	addi	s3,s0,3
     b16:	0af9d263          	bge	s3,a5,bba <Cloud_ProcessRX+0xfc>
     b1a:	85a2                	mv	a1,s0
     b1c:	00310513          	addi	a0,sp,3
     b20:	3dc1                	jal	9f0 <CRC8>
     b22:	021c                	addi	a5,sp,256
     b24:	99be                	add	s3,s3,a5
     b26:	f009c783          	lbu	a5,-256(s3)
     b2a:	08a79863          	bne	a5,a0,bba <Cloud_ProcessRX+0xfc>
     b2e:	8018                	lbu	a4,0(sp)
     b30:	8622                	mv	a2,s0
     b32:	00310593          	addi	a1,sp,3
     b36:	91018513          	addi	a0,gp,-1776 # 200005e8 <g_cloud_frame_payload>
     b3a:	82e185a3          	sb	a4,-2005(gp) # 20000503 <g_cloud_frame_type>
     b3e:	133040ef          	jal	ra,5470 <memcpy>
     b42:	82819423          	sh	s0,-2008(gp) # 20000500 <g_cloud_frame_len>
     b46:	a8a5                	j	bbe <Cloud_ProcessRX+0x100>
     b48:	00e50633          	add	a2,a0,a4
     b4c:	2210                	lbu	a2,0(a2)
     b4e:	c6b1                	beqz	a3,b9a <Cloud_ProcessRX+0xdc>
     b50:	02661063          	bne	a2,t1,b70 <Cloud_ProcessRX+0xb2>
     b54:	0210                	addi	a2,sp,256
     b56:	00178693          	addi	a3,a5,1
     b5a:	97b2                	add	a5,a5,a2
     b5c:	f1f78023          	sb	t6,-256(a5)
     b60:	01069793          	slli	a5,a3,0x10
     b64:	83c1                	srli	a5,a5,0x10
     b66:	4681                	li	a3,0
     b68:	0705                	addi	a4,a4,1
     b6a:	0742                	slli	a4,a4,0x10
     b6c:	8341                	srli	a4,a4,0x10
     b6e:	bf51                	j	b02 <Cloud_ProcessRX+0x44>
     b70:	01c61963          	bne	a2,t3,b82 <Cloud_ProcessRX+0xc4>
     b74:	0210                	addi	a2,sp,256
     b76:	00178693          	addi	a3,a5,1
     b7a:	97b2                	add	a5,a5,a2
     b7c:	f1e78023          	sb	t5,-256(a5)
     b80:	b7c5                	j	b60 <Cloud_ProcessRX+0xa2>
     b82:	4681                	li	a3,0
     b84:	f275                	bnez	a2,b68 <Cloud_ProcessRX+0xaa>
     b86:	0200                	addi	s0,sp,256
     b88:	00178613          	addi	a2,a5,1
     b8c:	97a2                	add	a5,a5,s0
     b8e:	f1d78023          	sb	t4,-256(a5)
     b92:	01061793          	slli	a5,a2,0x10
     b96:	83c1                	srli	a5,a5,0x10
     b98:	bfc1                	j	b68 <Cloud_ProcessRX+0xaa>
     b9a:	01160b63          	beq	a2,a7,bb0 <Cloud_ProcessRX+0xf2>
     b9e:	0200                	addi	s0,sp,256
     ba0:	00178293          	addi	t0,a5,1
     ba4:	97a2                	add	a5,a5,s0
     ba6:	f0c78023          	sb	a2,-256(a5)
     baa:	01029793          	slli	a5,t0,0x10
     bae:	b7e5                	j	b96 <Cloud_ProcessRX+0xd8>
     bb0:	4685                	li	a3,1
     bb2:	bf5d                	j	b68 <Cloud_ProcessRX+0xaa>
     bb4:	470d                	li	a4,3
     bb6:	f4f76ae3          	bltu	a4,a5,b0a <Cloud_ProcessRX+0x4c>
     bba:	00090023          	sb	zero,0(s2)
     bbe:	00049023          	sh	zero,0(s1)
     bc2:	6111                	addi	sp,sp,256
     bc4:	e46ff06f          	j	20a <__riscv_restore_4>

00000bc8 <Cloud_GetNextFrame>:
     bc8:	e0eff2ef          	jal	t0,1d6 <__riscv_save_4>
     bcc:	82a18493          	addi	s1,gp,-2006 # 20000502 <g_cloud_frame_ready>
     bd0:	209c                	lbu	a5,0(s1)
     bd2:	0ff7f793          	andi	a5,a5,255
     bd6:	cb8d                	beqz	a5,c08 <Cloud_GetNextFrame+0x40>
     bd8:	82818413          	addi	s0,gp,-2008 # 20000500 <g_cloud_frame_len>
     bdc:	00045983          	lhu	s3,0(s0)
     be0:	82b1c703          	lbu	a4,-2005(gp) # 20000503 <g_cloud_frame_type>
     be4:	87ae                	mv	a5,a1
     be6:	8932                	mv	s2,a2
     be8:	a118                	sb	a4,0(a0)
     bea:	864e                	mv	a2,s3
     bec:	91018593          	addi	a1,gp,-1776 # 200005e8 <g_cloud_frame_payload>
     bf0:	853e                	mv	a0,a5
     bf2:	07f040ef          	jal	ra,5470 <memcpy>
     bf6:	4505                	li	a0,1
     bf8:	01391023          	sh	s3,0(s2)
     bfc:	00048023          	sb	zero,0(s1)
     c00:	00041023          	sh	zero,0(s0)
     c04:	e06ff06f          	j	20a <__riscv_restore_4>
     c08:	4501                	li	a0,0
     c0a:	bfed                	j	c04 <Cloud_GetNextFrame+0x3c>

00000c0c <Cloud_FeedRXByte>:
     c0c:	82c1d683          	lhu	a3,-2004(gp) # 20000504 <g_cloud_rx_idx>
     c10:	82c18793          	addi	a5,gp,-2004 # 20000504 <g_cloud_rx_idx>
     c14:	e691                	bnez	a3,c20 <Cloud_FeedRXByte+0x14>
     c16:	0aa00713          	li	a4,170
     c1a:	00e50763          	beq	a0,a4,c28 <Cloud_FeedRXByte+0x1c>
     c1e:	8082                	ret
     c20:	1ff00713          	li	a4,511
     c24:	00d76963          	bltu	a4,a3,c36 <Cloud_FeedRXByte+0x2a>
     c28:	00168713          	addi	a4,a3,1
     c2c:	a39a                	sh	a4,0(a5)
     c2e:	a1018713          	addi	a4,gp,-1520 # 200006e8 <g_cloud_rx_buf>
     c32:	9736                	add	a4,a4,a3
     c34:	a308                	sb	a0,0(a4)
     c36:	05500713          	li	a4,85
     c3a:	00e51963          	bne	a0,a4,c4c <Cloud_FeedRXByte+0x40>
     c3e:	239a                	lhu	a4,0(a5)
     c40:	4795                	li	a5,5
     c42:	00e7f563          	bgeu	a5,a4,c4c <Cloud_FeedRXByte+0x40>
     c46:	4705                	li	a4,1
     c48:	82e18523          	sb	a4,-2006(gp) # 20000502 <g_cloud_frame_ready>
     c4c:	8082                	ret

00000c4e <CloudProtocol_Init>:
     c4e:	da2ff2ef          	jal	t0,1f0 <__riscv_save_0>
     c52:	6571                	lui	a0,0x1c
     c54:	20050513          	addi	a0,a0,512 # 1c200 <_data_lma+0xf914>
     c58:	3f9000ef          	jal	ra,1850 <UART8_TX_Init>
     c5c:	db8ff06f          	j	214 <__riscv_restore_0>

00000c60 <Cloud_ReportCardTap>:
     c60:	d90ff2ef          	jal	t0,1f0 <__riscv_save_0>
     c64:	715d                	addi	sp,sp,-80
     c66:	842e                	mv	s0,a1
     c68:	84b2                	mv	s1,a2
     c6a:	85aa                	mv	a1,a0
     c6c:	4611                	li	a2,4
     c6e:	0808                	addi	a0,sp,16
     c70:	c636                	sw	a3,12(sp)
     c72:	c43a                	sw	a4,8(sp)
     c74:	7fc040ef          	jal	ra,5470 <memcpy>
     c78:	01845793          	srli	a5,s0,0x18
     c7c:	00f10a23          	sb	a5,20(sp)
     c80:	01045793          	srli	a5,s0,0x10
     c84:	00f10aa3          	sb	a5,21(sp)
     c88:	00841793          	slli	a5,s0,0x8
     c8c:	0442                	slli	s0,s0,0x10
     c8e:	8041                	srli	s0,s0,0x10
     c90:	8021                	srli	s0,s0,0x8
     c92:	8c5d                	or	s0,s0,a5
     c94:	85a6                	mv	a1,s1
     c96:	4631                	li	a2,12
     c98:	0828                	addi	a0,sp,24
     c9a:	83e0                	sh	s0,22(sp)
     c9c:	7d4040ef          	jal	ra,5470 <memcpy>
     ca0:	4722                	lw	a4,8(sp)
     ca2:	46b2                	lw	a3,12(sp)
     ca4:	0000b5b7          	lui	a1,0xb
     ca8:	01875793          	srli	a5,a4,0x18
     cac:	02f102a3          	sb	a5,37(sp)
     cb0:	01075793          	srli	a5,a4,0x10
     cb4:	02f10323          	sb	a5,38(sp)
     cb8:	4611                	li	a2,4
     cba:	00875793          	srli	a5,a4,0x8
     cbe:	c4458593          	addi	a1,a1,-956 # ac44 <_read+0x4fe>
     cc2:	02910513          	addi	a0,sp,41
     cc6:	02d10223          	sb	a3,36(sp)
     cca:	02f103a3          	sb	a5,39(sp)
     cce:	02e10423          	sb	a4,40(sp)
     cd2:	79e040ef          	jal	ra,5470 <memcpy>
     cd6:	080c                	addi	a1,sp,16
     cd8:	4675                	li	a2,29
     cda:	4541                	li	a0,16
     cdc:	020106a3          	sb	zero,45(sp)
     ce0:	3379                	jal	a6e <Cloud_SendFrame>
     ce2:	6161                	addi	sp,sp,80
     ce4:	d30ff06f          	j	214 <__riscv_restore_0>

00000ce8 <Cloud_ReportTransaction>:
     ce8:	d08ff2ef          	jal	t0,1f0 <__riscv_save_0>
     cec:	7139                	addi	sp,sp,-64
     cee:	842a                	mv	s0,a0
     cf0:	85aa                	mv	a1,a0
     cf2:	4611                	li	a2,4
     cf4:	850a                	mv	a0,sp
     cf6:	77a040ef          	jal	ra,5470 <memcpy>
     cfa:	205e                	lhu	a5,4(s0)
     cfc:	00840593          	addi	a1,s0,8
     d00:	4631                	li	a2,12
     d02:	00879713          	slli	a4,a5,0x8
     d06:	83a1                	srli	a5,a5,0x8
     d08:	8f5d                	or	a4,a4,a5
     d0a:	405c                	lw	a5,4(s0)
     d0c:	8378                	sh	a4,6(sp)
     d0e:	01210513          	addi	a0,sp,18
     d12:	0187d693          	srli	a3,a5,0x18
     d16:	83c1                	srli	a5,a5,0x10
     d18:	82dc                	sb	a5,5(sp)
     d1a:	287e                	lhu	a5,22(s0)
     d1c:	8254                	sb	a3,4(sp)
     d1e:	00879713          	slli	a4,a5,0x8
     d22:	83a1                	srli	a5,a5,0x8
     d24:	8fd9                	or	a5,a5,a4
     d26:	847c                	sh	a5,8(sp)
     d28:	2c1e                	lhu	a5,24(s0)
     d2a:	00879713          	slli	a4,a5,0x8
     d2e:	83a1                	srli	a5,a5,0x8
     d30:	8f5d                	or	a4,a4,a5
     d32:	4c1c                	lw	a5,24(s0)
     d34:	8678                	sh	a4,12(sp)
     d36:	0187d693          	srli	a3,a5,0x18
     d3a:	83c1                	srli	a5,a5,0x10
     d3c:	85dc                	sb	a5,11(sp)
     d3e:	2c5e                	lhu	a5,28(s0)
     d40:	8554                	sb	a3,10(sp)
     d42:	00879713          	slli	a4,a5,0x8
     d46:	83a1                	srli	a5,a5,0x8
     d48:	8f5d                	or	a4,a4,a5
     d4a:	4c5c                	lw	a5,28(s0)
     d4c:	80f8                	sh	a4,16(sp)
     d4e:	0187d693          	srli	a3,a5,0x18
     d52:	83c1                	srli	a5,a5,0x10
     d54:	8754                	sb	a3,14(sp)
     d56:	87dc                	sb	a5,15(sp)
     d58:	718040ef          	jal	ra,5470 <memcpy>
     d5c:	02040593          	addi	a1,s0,32
     d60:	03c00613          	li	a2,60
     d64:	01e10513          	addi	a0,sp,30
     d68:	708040ef          	jal	ra,5470 <memcpy>
     d6c:	858a                	mv	a1,sp
     d6e:	05a00613          	li	a2,90
     d72:	4545                	li	a0,17
     d74:	39ed                	jal	a6e <Cloud_SendFrame>
     d76:	6121                	addi	sp,sp,64
     d78:	c9cff06f          	j	214 <__riscv_restore_0>

00000d7c <Cloud_ReportRechargeComplete>:
     d7c:	c74ff2ef          	jal	t0,1f0 <__riscv_save_0>
     d80:	1101                	addi	sp,sp,-32
     d82:	84ae                	mv	s1,a1
     d84:	8432                	mv	s0,a2
     d86:	85aa                	mv	a1,a0
     d88:	4611                	li	a2,4
     d8a:	850a                	mv	a0,sp
     d8c:	6e4040ef          	jal	ra,5470 <memcpy>
     d90:	0184d793          	srli	a5,s1,0x18
     d94:	825c                	sb	a5,4(sp)
     d96:	0104d793          	srli	a5,s1,0x10
     d9a:	82dc                	sb	a5,5(sp)
     d9c:	00849793          	slli	a5,s1,0x8
     da0:	04c2                	slli	s1,s1,0x10
     da2:	80c1                	srli	s1,s1,0x10
     da4:	80a1                	srli	s1,s1,0x8
     da6:	8cdd                	or	s1,s1,a5
     da8:	01845793          	srli	a5,s0,0x18
     dac:	845c                	sb	a5,8(sp)
     dae:	01045793          	srli	a5,s0,0x10
     db2:	84dc                	sb	a5,9(sp)
     db4:	00841793          	slli	a5,s0,0x8
     db8:	0442                	slli	s0,s0,0x10
     dba:	8041                	srli	s0,s0,0x10
     dbc:	8021                	srli	s0,s0,0x8
     dbe:	8c5d                	or	s0,s0,a5
     dc0:	858a                	mv	a1,sp
     dc2:	4631                	li	a2,12
     dc4:	4549                	li	a0,18
     dc6:	8364                	sh	s1,6(sp)
     dc8:	8560                	sh	s0,10(sp)
     dca:	3155                	jal	a6e <Cloud_SendFrame>
     dcc:	6105                	addi	sp,sp,32
     dce:	c46ff06f          	j	214 <__riscv_restore_0>

00000dd2 <Cloud_SendHeartbeat>:
     dd2:	c1eff2ef          	jal	t0,1f0 <__riscv_save_0>
     dd6:	687377b7          	lui	a5,0x68737
     dda:	1141                	addi	sp,sp,-16
     ddc:	96478793          	addi	a5,a5,-1692 # 68736964 <_eusrstack+0x4872e964>
     de0:	c03e                	sw	a5,0(sp)
     de2:	82e1c783          	lbu	a5,-2002(gp) # 20000506 <g_pending_count>
     de6:	858a                	mv	a1,sp
     de8:	4619                	li	a2,6
     dea:	00f037b3          	snez	a5,a5
     dee:	4549                	li	a0,18
     df0:	85dc                	sb	a5,11(sp)
     df2:	00010223          	sb	zero,4(sp)
     df6:	39a5                	jal	a6e <Cloud_SendFrame>
     df8:	0141                	addi	sp,sp,16
     dfa:	c1aff06f          	j	214 <__riscv_restore_0>

00000dfe <Cloud_GetPendingRecharge>:
     dfe:	bd8ff2ef          	jal	t0,1d6 <__riscv_save_4>
     e02:	313c                	lbu	a5,3(a0)
     e04:	2138                	lbu	a4,2(a0)
     e06:	3114                	lbu	a3,1(a0)
     e08:	2110                	lbu	a2,0(a0)
     e0a:	1141                	addi	sp,sp,-16
     e0c:	0000b5b7          	lui	a1,0xb
     e10:	c3058593          	addi	a1,a1,-976 # ac30 <_read+0x4ea>
     e14:	0048                	addi	a0,sp,4
     e16:	065040ef          	jal	ra,567a <siprintf>
     e1a:	4981                	li	s3,0
     e1c:	82e1c903          	lbu	s2,-2002(gp) # 20000506 <g_pending_count>
     e20:	03400b13          	li	s6,52
     e24:	82e18a93          	addi	s5,gp,-2002 # 20000506 <g_pending_count>
     e28:	c1018493          	addi	s1,gp,-1008 # 200008e8 <g_pending_list>
     e2c:	0ff9f413          	andi	s0,s3,255
     e30:	01246463          	bltu	s0,s2,e38 <Cloud_GetPendingRecharge+0x3a>
     e34:	4981                	li	s3,0
     e36:	a035                	j	e62 <Cloud_GetPendingRecharge+0x64>
     e38:	03698533          	mul	a0,s3,s6
     e3c:	004c                	addi	a1,sp,4
     e3e:	8a4e                	mv	s4,s3
     e40:	0985                	addi	s3,s3,1
     e42:	9526                	add	a0,a0,s1
     e44:	c84ff0ef          	jal	ra,2c8 <strcmp>
     e48:	f175                	bnez	a0,e2c <Cloud_GetPendingRecharge+0x2e>
     e4a:	036a0a33          	mul	s4,s4,s6
     e4e:	197d                	addi	s2,s2,-1
     e50:	9a26                	add	s4,s4,s1
     e52:	010a2983          	lw	s3,16(s4)
     e56:	03400a13          	li	s4,52
     e5a:	01244863          	blt	s0,s2,e6a <Cloud_GetPendingRecharge+0x6c>
     e5e:	012a8023          	sb	s2,0(s5)
     e62:	854e                	mv	a0,s3
     e64:	0141                	addi	sp,sp,16
     e66:	ba4ff06f          	j	20a <__riscv_restore_4>
     e6a:	03440533          	mul	a0,s0,s4
     e6e:	0405                	addi	s0,s0,1
     e70:	03400613          	li	a2,52
     e74:	034405b3          	mul	a1,s0,s4
     e78:	9526                	add	a0,a0,s1
     e7a:	0ff47413          	andi	s0,s0,255
     e7e:	95a6                	add	a1,a1,s1
     e80:	5f0040ef          	jal	ra,5470 <memcpy>
     e84:	bfd9                	j	e5a <Cloud_GetPendingRecharge+0x5c>

00000e86 <Cloud_ProcessPendingRecharges>:
     e86:	b50ff2ef          	jal	t0,1d6 <__riscv_save_4>
     e8a:	716d                	addi	sp,sp,-272
     e8c:	c1018413          	addi	s0,gp,-1008 # 200008e8 <g_pending_list>
     e90:	0000b937          	lui	s2,0xb
     e94:	00e10613          	addi	a2,sp,14
     e98:	080c                	addi	a1,sp,16
     e9a:	00d10513          	addi	a0,sp,13
     e9e:	332d                	jal	bc8 <Cloud_GetNextFrame>
     ea0:	e501                	bnez	a0,ea8 <Cloud_ProcessPendingRecharges+0x22>
     ea2:	6151                	addi	sp,sp,272
     ea4:	b66ff06f          	j	20a <__riscv_restore_4>
     ea8:	8698                	lbu	a4,13(sp)
     eaa:	02000793          	li	a5,32
     eae:	fef713e3          	bne	a4,a5,e94 <Cloud_ProcessPendingRecharges+0xe>
     eb2:	82e18a93          	addi	s5,gp,-2002 # 20000506 <g_pending_count>
     eb6:	000ac983          	lbu	s3,0(s5)
     eba:	479d                	li	a5,7
     ebc:	fd37ece3          	bltu	a5,s3,e94 <Cloud_ProcessPendingRecharges+0xe>
     ec0:	03400513          	li	a0,52
     ec4:	02a989b3          	mul	s3,s3,a0
     ec8:	01314783          	lbu	a5,19(sp)
     ecc:	01214703          	lbu	a4,18(sp)
     ed0:	01114683          	lbu	a3,17(sp)
     ed4:	01014603          	lbu	a2,16(sp)
     ed8:	c3090593          	addi	a1,s2,-976 # ac30 <_read+0x4ea>
     edc:	01340a33          	add	s4,s0,s3
     ee0:	8552                	mv	a0,s4
     ee2:	798040ef          	jal	ra,567a <siprintf>
     ee6:	01414783          	lbu	a5,20(sp)
     eea:	01514703          	lbu	a4,21(sp)
     eee:	01498513          	addi	a0,s3,20
     ef2:	07e2                	slli	a5,a5,0x18
     ef4:	0742                	slli	a4,a4,0x10
     ef6:	8fd9                	or	a5,a5,a4
     ef8:	01714703          	lbu	a4,23(sp)
     efc:	02000613          	li	a2,32
     f00:	086c                	addi	a1,sp,28
     f02:	8fd9                	or	a5,a5,a4
     f04:	01614703          	lbu	a4,22(sp)
     f08:	9522                	add	a0,a0,s0
     f0a:	0722                	slli	a4,a4,0x8
     f0c:	8fd9                	or	a5,a5,a4
     f0e:	00fa2623          	sw	a5,12(s4)
     f12:	01914703          	lbu	a4,25(sp)
     f16:	01814783          	lbu	a5,24(sp)
     f1a:	0742                	slli	a4,a4,0x10
     f1c:	07e2                	slli	a5,a5,0x18
     f1e:	8fd9                	or	a5,a5,a4
     f20:	01b14703          	lbu	a4,27(sp)
     f24:	8fd9                	or	a5,a5,a4
     f26:	01a14703          	lbu	a4,26(sp)
     f2a:	0722                	slli	a4,a4,0x8
     f2c:	8fd9                	or	a5,a5,a4
     f2e:	00fa2823          	sw	a5,16(s4)
     f32:	53e040ef          	jal	ra,5470 <memcpy>
     f36:	000ac783          	lbu	a5,0(s5)
     f3a:	020a09a3          	sb	zero,51(s4)
     f3e:	0785                	addi	a5,a5,1
     f40:	00fa8023          	sb	a5,0(s5)
     f44:	bf81                	j	e94 <Cloud_ProcessPendingRecharges+0xe>

00000f46 <RC522_SPI_TransferByte>:
     f46:	aaaff2ef          	jal	t0,1f0 <__riscv_save_0>
     f4a:	842a                	mv	s0,a0
     f4c:	4589                	li	a1,2
     f4e:	40013537          	lui	a0,0x40013
     f52:	717020ef          	jal	ra,3e68 <SPI_I2S_GetFlagStatus>
     f56:	d97d                	beqz	a0,f4c <RC522_SPI_TransferByte+0x6>
     f58:	85a2                	mv	a1,s0
     f5a:	40013537          	lui	a0,0x40013
     f5e:	703020ef          	jal	ra,3e60 <SPI_I2S_SendData>
     f62:	4585                	li	a1,1
     f64:	40013537          	lui	a0,0x40013
     f68:	701020ef          	jal	ra,3e68 <SPI_I2S_GetFlagStatus>
     f6c:	d97d                	beqz	a0,f62 <RC522_SPI_TransferByte+0x1c>
     f6e:	40013537          	lui	a0,0x40013
     f72:	6f3020ef          	jal	ra,3e64 <SPI_I2S_ReceiveData>
     f76:	0ff57513          	andi	a0,a0,255
     f7a:	a9aff06f          	j	214 <__riscv_restore_0>

00000f7e <RC522_Read_Register>:
     f7e:	a72ff2ef          	jal	t0,1f0 <__riscv_save_0>
     f82:	400114b7          	lui	s1,0x40011
     f86:	45c1                	li	a1,16
     f88:	842a                	mv	s0,a0
     f8a:	80048513          	addi	a0,s1,-2048 # 40010800 <_eusrstack+0x20008800>
     f8e:	463020ef          	jal	ra,3bf0 <GPIO_ResetBits>
     f92:	00141513          	slli	a0,s0,0x1
     f96:	07e57513          	andi	a0,a0,126
     f9a:	08056513          	ori	a0,a0,128
     f9e:	3765                	jal	f46 <RC522_SPI_TransferByte>
     fa0:	4501                	li	a0,0
     fa2:	3755                	jal	f46 <RC522_SPI_TransferByte>
     fa4:	842a                	mv	s0,a0
     fa6:	45c1                	li	a1,16
     fa8:	80048513          	addi	a0,s1,-2048
     fac:	441020ef          	jal	ra,3bec <GPIO_SetBits>
     fb0:	8522                	mv	a0,s0
     fb2:	a62ff06f          	j	214 <__riscv_restore_0>

00000fb6 <RC522_Write_Register>:
     fb6:	a3aff2ef          	jal	t0,1f0 <__riscv_save_0>
     fba:	400114b7          	lui	s1,0x40011
     fbe:	842a                	mv	s0,a0
     fc0:	892e                	mv	s2,a1
     fc2:	80048513          	addi	a0,s1,-2048 # 40010800 <_eusrstack+0x20008800>
     fc6:	45c1                	li	a1,16
     fc8:	429020ef          	jal	ra,3bf0 <GPIO_ResetBits>
     fcc:	00141513          	slli	a0,s0,0x1
     fd0:	07e57513          	andi	a0,a0,126
     fd4:	3f8d                	jal	f46 <RC522_SPI_TransferByte>
     fd6:	854a                	mv	a0,s2
     fd8:	37bd                	jal	f46 <RC522_SPI_TransferByte>
     fda:	45c1                	li	a1,16
     fdc:	80048513          	addi	a0,s1,-2048
     fe0:	40d020ef          	jal	ra,3bec <GPIO_SetBits>
     fe4:	a30ff06f          	j	214 <__riscv_restore_0>

00000fe8 <RC522_Init>:
     fe8:	a08ff2ef          	jal	t0,1f0 <__riscv_save_0>
     fec:	6505                	lui	a0,0x1
     fee:	1101                	addi	sp,sp,-32
     ff0:	4585                	li	a1,1
     ff2:	0531                	addi	a0,a0,12
     ff4:	c002                	sw	zero,0(sp)
     ff6:	c202                	sw	zero,4(sp)
     ff8:	c402                	sw	zero,8(sp)
     ffa:	c602                	sw	zero,12(sp)
     ffc:	c802                	sw	zero,16(sp)
     ffe:	ca02                	sw	zero,20(sp)
    1000:	cc02                	sw	zero,24(sp)
    1002:	00011e23          	sh	zero,28(sp)
    1006:	5c7020ef          	jal	ra,3dcc <RCC_APB2PeriphClockCmd>
    100a:	0e000793          	li	a5,224
    100e:	40011437          	lui	s0,0x40011
    1012:	807c                	sh	a5,0(sp)
    1014:	47e1                	li	a5,24
    1016:	c43e                	sw	a5,8(sp)
    1018:	858a                	mv	a1,sp
    101a:	478d                	li	a5,3
    101c:	80040513          	addi	a0,s0,-2048 # 40010800 <_eusrstack+0x20008800>
    1020:	c23e                	sw	a5,4(sp)
    1022:	2f7020ef          	jal	ra,3b18 <GPIO_Init>
    1026:	47c1                	li	a5,16
    1028:	44c1                	li	s1,16
    102a:	858a                	mv	a1,sp
    102c:	80040513          	addi	a0,s0,-2048
    1030:	807c                	sh	a5,0(sp)
    1032:	c426                	sw	s1,8(sp)
    1034:	2e5020ef          	jal	ra,3b18 <GPIO_Init>
    1038:	80040513          	addi	a0,s0,-2048
    103c:	45c1                	li	a1,16
    103e:	3af020ef          	jal	ra,3bec <GPIO_SetBits>
    1042:	4785                	li	a5,1
    1044:	858a                	mv	a1,sp
    1046:	c0040513          	addi	a0,s0,-1024
    104a:	807c                	sh	a5,0(sp)
    104c:	c426                	sw	s1,8(sp)
    104e:	2cb020ef          	jal	ra,3b18 <GPIO_Init>
    1052:	c0040513          	addi	a0,s0,-1024
    1056:	4585                	li	a1,1
    1058:	395020ef          	jal	ra,3bec <GPIO_SetBits>
    105c:	010407b7          	lui	a5,0x1040
    1060:	c63e                	sw	a5,12(sp)
    1062:	020007b7          	lui	a5,0x2000
    1066:	ca3e                	sw	a5,20(sp)
    1068:	006c                	addi	a1,sp,12
    106a:	03800793          	li	a5,56
    106e:	40013537          	lui	a0,0x40013
    1072:	cc3e                	sw	a5,24(sp)
    1074:	c802                	sw	zero,16(sp)
    1076:	593020ef          	jal	ra,3e08 <SPI_Init>
    107a:	4585                	li	a1,1
    107c:	40013537          	lui	a0,0x40013
    1080:	5c7020ef          	jal	ra,3e46 <SPI_Cmd>
    1084:	08d00593          	li	a1,141
    1088:	4549                	li	a0,18
    108a:	3735                	jal	fb6 <RC522_Write_Register>
    108c:	08300593          	li	a1,131
    1090:	4551                	li	a0,20
    1092:	3715                	jal	fb6 <RC522_Write_Register>
    1094:	6105                	addi	sp,sp,32
    1096:	97eff06f          	j	214 <__riscv_restore_0>

0000109a <RC522_SetBit_Register>:
    109a:	956ff2ef          	jal	t0,1f0 <__riscv_save_0>
    109e:	1141                	addi	sp,sp,-16
    10a0:	842a                	mv	s0,a0
    10a2:	c62e                	sw	a1,12(sp)
    10a4:	3de9                	jal	f7e <RC522_Read_Register>
    10a6:	45b2                	lw	a1,12(sp)
    10a8:	8dc9                	or	a1,a1,a0
    10aa:	0ff5f593          	andi	a1,a1,255
    10ae:	8522                	mv	a0,s0
    10b0:	3719                	jal	fb6 <RC522_Write_Register>
    10b2:	0141                	addi	sp,sp,16
    10b4:	960ff06f          	j	214 <__riscv_restore_0>

000010b8 <RC522_ClearBit_Register>:
    10b8:	938ff2ef          	jal	t0,1f0 <__riscv_save_0>
    10bc:	1141                	addi	sp,sp,-16
    10be:	842a                	mv	s0,a0
    10c0:	c62e                	sw	a1,12(sp)
    10c2:	3d75                	jal	f7e <RC522_Read_Register>
    10c4:	45b2                	lw	a1,12(sp)
    10c6:	fff5c593          	not	a1,a1
    10ca:	8de9                	and	a1,a1,a0
    10cc:	0ff5f593          	andi	a1,a1,255
    10d0:	8522                	mv	a0,s0
    10d2:	35d5                	jal	fb6 <RC522_Write_Register>
    10d4:	0141                	addi	sp,sp,16
    10d6:	93eff06f          	j	214 <__riscv_restore_0>

000010da <RC522_Antenna_On>:
    10da:	916ff2ef          	jal	t0,1f0 <__riscv_save_0>
    10de:	4551                	li	a0,20
    10e0:	3d79                	jal	f7e <RC522_Read_Register>
    10e2:	890d                	andi	a0,a0,3
    10e4:	e501                	bnez	a0,10ec <RC522_Antenna_On+0x12>
    10e6:	458d                	li	a1,3
    10e8:	4551                	li	a0,20
    10ea:	3f45                	jal	109a <RC522_SetBit_Register>
    10ec:	928ff06f          	j	214 <__riscv_restore_0>

000010f0 <RC522_Rese>:
    10f0:	900ff2ef          	jal	t0,1f0 <__riscv_save_0>
    10f4:	40011437          	lui	s0,0x40011
    10f8:	4585                	li	a1,1
    10fa:	c0040513          	addi	a0,s0,-1024 # 40010c00 <_eusrstack+0x20008c00>
    10fe:	2f3020ef          	jal	ra,3bf0 <GPIO_ResetBits>
    1102:	4515                	li	a0,5
    1104:	0fc030ef          	jal	ra,4200 <Delay_Ms>
    1108:	4585                	li	a1,1
    110a:	c0040513          	addi	a0,s0,-1024
    110e:	2df020ef          	jal	ra,3bec <GPIO_SetBits>
    1112:	4529                	li	a0,10
    1114:	0ec030ef          	jal	ra,4200 <Delay_Ms>
    1118:	45bd                	li	a1,15
    111a:	4505                	li	a0,1
    111c:	3d69                	jal	fb6 <RC522_Write_Register>
    111e:	4515                	li	a0,5
    1120:	0e0030ef          	jal	ra,4200 <Delay_Ms>
    1124:	03300413          	li	s0,51
    1128:	4505                	li	a0,1
    112a:	3d91                	jal	f7e <RC522_Read_Register>
    112c:	8941                	andi	a0,a0,16
    112e:	c119                	beqz	a0,1134 <RC522_Rese+0x44>
    1130:	147d                	addi	s0,s0,-1
    1132:	e03d                	bnez	s0,1198 <RC522_Rese+0xa8>
    1134:	08d00593          	li	a1,141
    1138:	02a00513          	li	a0,42
    113c:	3dad                	jal	fb6 <RC522_Write_Register>
    113e:	03e00593          	li	a1,62
    1142:	02b00513          	li	a0,43
    1146:	3d85                	jal	fb6 <RC522_Write_Register>
    1148:	45e9                	li	a1,26
    114a:	02d00513          	li	a0,45
    114e:	35a5                	jal	fb6 <RC522_Write_Register>
    1150:	4581                	li	a1,0
    1152:	02c00513          	li	a0,44
    1156:	3585                	jal	fb6 <RC522_Write_Register>
    1158:	04000593          	li	a1,64
    115c:	4555                	li	a0,21
    115e:	3da1                	jal	fb6 <RC522_Write_Register>
    1160:	03d00593          	li	a1,61
    1164:	4545                	li	a0,17
    1166:	3d81                	jal	fb6 <RC522_Write_Register>
    1168:	4515                	li	a0,5
    116a:	096030ef          	jal	ra,4200 <Delay_Ms>
    116e:	08000593          	li	a1,128
    1172:	4529                	li	a0,10
    1174:	3589                	jal	fb6 <RC522_Write_Register>
    1176:	07f00593          	li	a1,127
    117a:	4511                	li	a0,4
    117c:	3d2d                	jal	fb6 <RC522_Write_Register>
    117e:	07f00593          	li	a1,127
    1182:	4515                	li	a0,5
    1184:	3d0d                	jal	fb6 <RC522_Write_Register>
    1186:	4515                	li	a0,5
    1188:	078030ef          	jal	ra,4200 <Delay_Ms>
    118c:	37b9                	jal	10da <RC522_Antenna_On>
    118e:	4515                	li	a0,5
    1190:	070030ef          	jal	ra,4200 <Delay_Ms>
    1194:	880ff06f          	j	214 <__riscv_restore_0>
    1198:	4505                	li	a0,1
    119a:	066030ef          	jal	ra,4200 <Delay_Ms>
    119e:	b769                	j	1128 <RC522_Rese+0x38>

000011a0 <RC522_Config_Type>:
    11a0:	04100793          	li	a5,65
    11a4:	06f51663          	bne	a0,a5,1210 <RC522_Config_Type+0x70>
    11a8:	848ff2ef          	jal	t0,1f0 <__riscv_save_0>
    11ac:	45a1                	li	a1,8
    11ae:	4521                	li	a0,8
    11b0:	3721                	jal	10b8 <RC522_ClearBit_Register>
    11b2:	03d00593          	li	a1,61
    11b6:	4545                	li	a0,17
    11b8:	3bfd                	jal	fb6 <RC522_Write_Register>
    11ba:	08600593          	li	a1,134
    11be:	455d                	li	a0,23
    11c0:	3bdd                	jal	fb6 <RC522_Write_Register>
    11c2:	07f00593          	li	a1,127
    11c6:	02600513          	li	a0,38
    11ca:	33f5                	jal	fb6 <RC522_Write_Register>
    11cc:	08d00593          	li	a1,141
    11d0:	02a00513          	li	a0,42
    11d4:	33cd                	jal	fb6 <RC522_Write_Register>
    11d6:	03e00593          	li	a1,62
    11da:	02b00513          	li	a0,43
    11de:	3be1                	jal	fb6 <RC522_Write_Register>
    11e0:	0e800593          	li	a1,232
    11e4:	02d00513          	li	a0,45
    11e8:	33f9                	jal	fb6 <RC522_Write_Register>
    11ea:	458d                	li	a1,3
    11ec:	02c00513          	li	a0,44
    11f0:	33d9                	jal	fb6 <RC522_Write_Register>
    11f2:	08d00593          	li	a1,141
    11f6:	02a00513          	li	a0,42
    11fa:	3b75                	jal	fb6 <RC522_Write_Register>
    11fc:	03e00593          	li	a1,62
    1200:	02b00513          	li	a0,43
    1204:	3b4d                	jal	fb6 <RC522_Write_Register>
    1206:	4551                	li	a0,20
    1208:	2175                	jal	16b4 <delay_us>
    120a:	3dc1                	jal	10da <RC522_Antenna_On>
    120c:	808ff06f          	j	214 <__riscv_restore_0>
    1210:	8082                	ret

00001212 <PcdComMF522>:
    1212:	fb7fe2ef          	jal	t0,1c8 <__riscv_save_10>
    1216:	47b1                	li	a5,12
    1218:	89aa                	mv	s3,a0
    121a:	8bae                	mv	s7,a1
    121c:	8b32                	mv	s6,a2
    121e:	8936                	mv	s2,a3
    1220:	8a3a                	mv	s4,a4
    1222:	0cf50e63          	beq	a0,a5,12fe <PcdComMF522+0xec>
    1226:	47b9                	li	a5,14
    1228:	0ef50063          	beq	a0,a5,1308 <PcdComMF522+0xf6>
    122c:	4a81                	li	s5,0
    122e:	4401                	li	s0,0
    1230:	08046593          	ori	a1,s0,128
    1234:	4509                	li	a0,2
    1236:	3341                	jal	fb6 <RC522_Write_Register>
    1238:	08000593          	li	a1,128
    123c:	4511                	li	a0,4
    123e:	3dad                	jal	10b8 <RC522_ClearBit_Register>
    1240:	4581                	li	a1,0
    1242:	4505                	li	a0,1
    1244:	3b8d                	jal	fb6 <RC522_Write_Register>
    1246:	08000593          	li	a1,128
    124a:	4529                	li	a0,10
    124c:	35b9                	jal	109a <RC522_SetBit_Register>
    124e:	4481                	li	s1,0
    1250:	0b64ef63          	bltu	s1,s6,130e <PcdComMF522+0xfc>
    1254:	85ce                	mv	a1,s3
    1256:	4505                	li	a0,1
    1258:	3bb9                	jal	fb6 <RC522_Write_Register>
    125a:	47b1                	li	a5,12
    125c:	00f99663          	bne	s3,a5,1268 <PcdComMF522+0x56>
    1260:	08000593          	li	a1,128
    1264:	4535                	li	a0,13
    1266:	3d15                	jal	109a <RC522_SetBit_Register>
    1268:	6485                	lui	s1,0x1
    126a:	38848493          	addi	s1,s1,904 # 1388 <PcdAnticoll+0x16>
    126e:	001aea93          	ori	s5,s5,1
    1272:	4511                	li	a0,4
    1274:	3329                	jal	f7e <RC522_Read_Register>
    1276:	14fd                	addi	s1,s1,-1
    1278:	8b2a                	mv	s6,a0
    127a:	c481                	beqz	s1,1282 <PcdComMF522+0x70>
    127c:	015577b3          	and	a5,a0,s5
    1280:	dbed                	beqz	a5,1272 <PcdComMF522+0x60>
    1282:	08000593          	li	a1,128
    1286:	4535                	li	a0,13
    1288:	3d05                	jal	10b8 <RC522_ClearBit_Register>
    128a:	c8c9                	beqz	s1,131c <PcdComMF522+0x10a>
    128c:	4519                	li	a0,6
    128e:	39c5                	jal	f7e <RC522_Read_Register>
    1290:	896d                	andi	a0,a0,27
    1292:	e549                	bnez	a0,131c <PcdComMF522+0x10a>
    1294:	01647433          	and	s0,s0,s6
    1298:	8805                	andi	s0,s0,1
    129a:	02600a93          	li	s5,38
    129e:	c019                	beqz	s0,12a4 <PcdComMF522+0x92>
    12a0:	fcc00a93          	li	s5,-52
    12a4:	47b1                	li	a5,12
    12a6:	04f99263          	bne	s3,a5,12ea <PcdComMF522+0xd8>
    12aa:	4529                	li	a0,10
    12ac:	39c9                	jal	f7e <RC522_Read_Register>
    12ae:	84aa                	mv	s1,a0
    12b0:	4531                	li	a0,12
    12b2:	31f1                	jal	f7e <RC522_Read_Register>
    12b4:	891d                	andi	a0,a0,7
    12b6:	00349793          	slli	a5,s1,0x3
    12ba:	c509                	beqz	a0,12c4 <PcdComMF522+0xb2>
    12bc:	fff48793          	addi	a5,s1,-1
    12c0:	078e                	slli	a5,a5,0x3
    12c2:	97aa                	add	a5,a5,a0
    12c4:	00fa2023          	sw	a5,0(s4)
    12c8:	4405                	li	s0,1
    12ca:	c499                	beqz	s1,12d8 <PcdComMF522+0xc6>
    12cc:	47c9                	li	a5,18
    12ce:	0ff4f413          	andi	s0,s1,255
    12d2:	0097f363          	bgeu	a5,s1,12d8 <PcdComMF522+0xc6>
    12d6:	4449                	li	s0,18
    12d8:	4481                	li	s1,0
    12da:	4525                	li	a0,9
    12dc:	314d                	jal	f7e <RC522_Read_Register>
    12de:	009907b3          	add	a5,s2,s1
    12e2:	a388                	sb	a0,0(a5)
    12e4:	0485                	addi	s1,s1,1
    12e6:	fe84eae3          	bltu	s1,s0,12da <PcdComMF522+0xc8>
    12ea:	08000593          	li	a1,128
    12ee:	4531                	li	a0,12
    12f0:	336d                	jal	109a <RC522_SetBit_Register>
    12f2:	4581                	li	a1,0
    12f4:	4505                	li	a0,1
    12f6:	31c1                	jal	fb6 <RC522_Write_Register>
    12f8:	8556                	mv	a0,s5
    12fa:	f07fe06f          	j	200 <__riscv_restore_10>
    12fe:	03000a93          	li	s5,48
    1302:	07700413          	li	s0,119
    1306:	b72d                	j	1230 <PcdComMF522+0x1e>
    1308:	4ac1                	li	s5,16
    130a:	4449                	li	s0,18
    130c:	b715                	j	1230 <PcdComMF522+0x1e>
    130e:	009b87b3          	add	a5,s7,s1
    1312:	238c                	lbu	a1,0(a5)
    1314:	4525                	li	a0,9
    1316:	0485                	addi	s1,s1,1
    1318:	3979                	jal	fb6 <RC522_Write_Register>
    131a:	bf1d                	j	1250 <PcdComMF522+0x3e>
    131c:	fbb00a93          	li	s5,-69
    1320:	b7e9                	j	12ea <PcdComMF522+0xd8>

00001322 <PcdRequest>:
    1322:	ecffe2ef          	jal	t0,1f0 <__riscv_save_0>
    1326:	1101                	addi	sp,sp,-32
    1328:	84aa                	mv	s1,a0
    132a:	842e                	mv	s0,a1
    132c:	4521                	li	a0,8
    132e:	45a1                	li	a1,8
    1330:	3361                	jal	10b8 <RC522_ClearBit_Register>
    1332:	459d                	li	a1,7
    1334:	4535                	li	a0,13
    1336:	c81ff0ef          	jal	ra,fb6 <RC522_Write_Register>
    133a:	458d                	li	a1,3
    133c:	4551                	li	a0,20
    133e:	3bb1                	jal	109a <RC522_SetBit_Register>
    1340:	0074                	addi	a3,sp,12
    1342:	0038                	addi	a4,sp,8
    1344:	4605                	li	a2,1
    1346:	85b6                	mv	a1,a3
    1348:	4531                	li	a0,12
    134a:	8644                	sb	s1,12(sp)
    134c:	35d9                	jal	1212 <PcdComMF522>
    134e:	02600793          	li	a5,38
    1352:	00f51d63          	bne	a0,a5,136c <PcdRequest+0x4a>
    1356:	4722                	lw	a4,8(sp)
    1358:	47c1                	li	a5,16
    135a:	00f71963          	bne	a4,a5,136c <PcdRequest+0x4a>
    135e:	861c                	lbu	a5,12(sp)
    1360:	a01c                	sb	a5,0(s0)
    1362:	869c                	lbu	a5,13(sp)
    1364:	b01c                	sb	a5,1(s0)
    1366:	6105                	addi	sp,sp,32
    1368:	eadfe06f          	j	214 <__riscv_restore_0>
    136c:	fbb00513          	li	a0,-69
    1370:	bfdd                	j	1366 <PcdRequest+0x44>

00001372 <PcdAnticoll>:
    1372:	e7ffe2ef          	jal	t0,1f0 <__riscv_save_0>
    1376:	1101                	addi	sp,sp,-32
    1378:	08000593          	li	a1,128
    137c:	84aa                	mv	s1,a0
    137e:	4529                	li	a0,10
    1380:	3b29                	jal	109a <RC522_SetBit_Register>
    1382:	4581                	li	a1,0
    1384:	4505                	li	a0,1
    1386:	c31ff0ef          	jal	ra,fb6 <RC522_Write_Register>
    138a:	4529                	li	a0,10
    138c:	2625                	jal	16b4 <delay_us>
    138e:	45a1                	li	a1,8
    1390:	4521                	li	a0,8
    1392:	331d                	jal	10b8 <RC522_ClearBit_Register>
    1394:	4581                	li	a1,0
    1396:	4535                	li	a0,13
    1398:	c1fff0ef          	jal	ra,fb6 <RC522_Write_Register>
    139c:	08000593          	li	a1,128
    13a0:	4539                	li	a0,14
    13a2:	d17ff0ef          	jal	ra,10b8 <RC522_ClearBit_Register>
    13a6:	0074                	addi	a3,sp,12
    13a8:	6789                	lui	a5,0x2
    13aa:	09378793          	addi	a5,a5,147 # 2093 <USART1_SendString+0x2f>
    13ae:	0038                	addi	a4,sp,8
    13b0:	4609                	li	a2,2
    13b2:	85b6                	mv	a1,a3
    13b4:	4531                	li	a0,12
    13b6:	867c                	sh	a5,12(sp)
    13b8:	3da9                	jal	1212 <PcdComMF522>
    13ba:	02600793          	li	a5,38
    13be:	02f51963          	bne	a0,a5,13f0 <PcdAnticoll+0x7e>
    13c2:	4722                	lw	a4,8(sp)
    13c4:	02800793          	li	a5,40
    13c8:	02f71463          	bne	a4,a5,13f0 <PcdAnticoll+0x7e>
    13cc:	842a                	mv	s0,a0
    13ce:	4781                	li	a5,0
    13d0:	4701                	li	a4,0
    13d2:	4611                	li	a2,4
    13d4:	0074                	addi	a3,sp,12
    13d6:	96be                	add	a3,a3,a5
    13d8:	2294                	lbu	a3,0(a3)
    13da:	00f485b3          	add	a1,s1,a5
    13de:	0785                	addi	a5,a5,1
    13e0:	a194                	sb	a3,0(a1)
    13e2:	8f35                	xor	a4,a4,a3
    13e4:	fec798e3          	bne	a5,a2,13d4 <PcdAnticoll+0x62>
    13e8:	01014783          	lbu	a5,16(sp)
    13ec:	00e78463          	beq	a5,a4,13f4 <PcdAnticoll+0x82>
    13f0:	fbb00413          	li	s0,-69
    13f4:	08000593          	li	a1,128
    13f8:	4539                	li	a0,14
    13fa:	ca1ff0ef          	jal	ra,109a <RC522_SetBit_Register>
    13fe:	8522                	mv	a0,s0
    1400:	6105                	addi	sp,sp,32
    1402:	e13fe06f          	j	214 <__riscv_restore_0>

00001406 <CalulateCRC>:
    1406:	debfe2ef          	jal	t0,1f0 <__riscv_save_0>
    140a:	842a                	mv	s0,a0
    140c:	84ae                	mv	s1,a1
    140e:	4515                	li	a0,5
    1410:	4591                	li	a1,4
    1412:	8932                	mv	s2,a2
    1414:	ca5ff0ef          	jal	ra,10b8 <RC522_ClearBit_Register>
    1418:	4581                	li	a1,0
    141a:	4505                	li	a0,1
    141c:	b9bff0ef          	jal	ra,fb6 <RC522_Write_Register>
    1420:	08000593          	li	a1,128
    1424:	4529                	li	a0,10
    1426:	c75ff0ef          	jal	ra,109a <RC522_SetBit_Register>
    142a:	94a2                	add	s1,s1,s0
    142c:	02941f63          	bne	s0,s1,146a <CalulateCRC+0x64>
    1430:	458d                	li	a1,3
    1432:	4505                	li	a0,1
    1434:	b83ff0ef          	jal	ra,fb6 <RC522_Write_Register>
    1438:	0ff00413          	li	s0,255
    143c:	147d                	addi	s0,s0,-1
    143e:	4515                	li	a0,5
    1440:	0ff47413          	andi	s0,s0,255
    1444:	b3bff0ef          	jal	ra,f7e <RC522_Read_Register>
    1448:	c019                	beqz	s0,144e <CalulateCRC+0x48>
    144a:	8911                	andi	a0,a0,4
    144c:	d965                	beqz	a0,143c <CalulateCRC+0x36>
    144e:	02200513          	li	a0,34
    1452:	b2dff0ef          	jal	ra,f7e <RC522_Read_Register>
    1456:	00a90023          	sb	a0,0(s2)
    145a:	02100513          	li	a0,33
    145e:	b21ff0ef          	jal	ra,f7e <RC522_Read_Register>
    1462:	00a900a3          	sb	a0,1(s2)
    1466:	daffe06f          	j	214 <__riscv_restore_0>
    146a:	200c                	lbu	a1,0(s0)
    146c:	4525                	li	a0,9
    146e:	0405                	addi	s0,s0,1
    1470:	b47ff0ef          	jal	ra,fb6 <RC522_Write_Register>
    1474:	bf65                	j	142c <CalulateCRC+0x26>

00001476 <PcdSelect>:
    1476:	d7bfe2ef          	jal	t0,1f0 <__riscv_save_0>
    147a:	1141                	addi	sp,sp,-16
    147c:	842a                	mv	s0,a0
    147e:	08000593          	li	a1,128
    1482:	4529                	li	a0,10
    1484:	c17ff0ef          	jal	ra,109a <RC522_SetBit_Register>
    1488:	4551                	li	a0,20
    148a:	242d                	jal	16b4 <delay_us>
    148c:	679d                	lui	a5,0x7
    148e:	09378793          	addi	a5,a5,147 # 7093 <__hexnan+0x131>
    1492:	827c                	sh	a5,4(sp)
    1494:	201c                	lbu	a5,0(s0)
    1496:	4701                	li	a4,0
    1498:	4691                	li	a3,4
    149a:	835c                	sb	a5,6(sp)
    149c:	301c                	lbu	a5,1(s0)
    149e:	83dc                	sb	a5,7(sp)
    14a0:	203c                	lbu	a5,2(s0)
    14a2:	845c                	sb	a5,8(sp)
    14a4:	303c                	lbu	a5,3(s0)
    14a6:	84dc                	sb	a5,9(sp)
    14a8:	4781                	li	a5,0
    14aa:	00f40633          	add	a2,s0,a5
    14ae:	2210                	lbu	a2,0(a2)
    14b0:	0785                	addi	a5,a5,1
    14b2:	8f31                	xor	a4,a4,a2
    14b4:	fed79be3          	bne	a5,a3,14aa <PcdSelect+0x34>
    14b8:	00b10613          	addi	a2,sp,11
    14bc:	459d                	li	a1,7
    14be:	0048                	addi	a0,sp,4
    14c0:	8558                	sb	a4,10(sp)
    14c2:	3791                	jal	1406 <CalulateCRC>
    14c4:	0054                	addi	a3,sp,4
    14c6:	870a                	mv	a4,sp
    14c8:	4625                	li	a2,9
    14ca:	85b6                	mv	a1,a3
    14cc:	4531                	li	a0,12
    14ce:	d45ff0ef          	jal	ra,1212 <PcdComMF522>
    14d2:	02600793          	li	a5,38
    14d6:	02f51063          	bne	a0,a5,14f6 <PcdSelect+0x80>
    14da:	4782                	lw	a5,0(sp)
    14dc:	4761                	li	a4,24
    14de:	02e79163          	bne	a5,a4,1500 <PcdSelect+0x8a>
    14e2:	821c                	lbu	a5,4(sp)
    14e4:	4721                	li	a4,8
    14e6:	0ef7f693          	andi	a3,a5,239
    14ea:	00e68863          	beq	a3,a4,14fa <PcdSelect+0x84>
    14ee:	02000713          	li	a4,32
    14f2:	00e78463          	beq	a5,a4,14fa <PcdSelect+0x84>
    14f6:	fbb00513          	li	a0,-69
    14fa:	0141                	addi	sp,sp,16
    14fc:	d19fe06f          	j	214 <__riscv_restore_0>
    1500:	09000713          	li	a4,144
    1504:	b7fd                	j	14f2 <PcdSelect+0x7c>

00001506 <PcdAuthState>:
    1506:	cebfe2ef          	jal	t0,1f0 <__riscv_save_0>
    150a:	1101                	addi	sp,sp,-32
    150c:	007c                	addi	a5,sp,12
    150e:	8836                	mv	a6,a3
    1510:	8648                	sb	a0,12(sp)
    1512:	86cc                	sb	a1,13(sp)
    1514:	4701                	li	a4,0
    1516:	85be                	mv	a1,a5
    1518:	86be                	mv	a3,a5
    151a:	4519                	li	a0,6
    151c:	00e608b3          	add	a7,a2,a4
    1520:	0008c883          	lbu	a7,0(a7)
    1524:	0705                	addi	a4,a4,1
    1526:	0585                	addi	a1,a1,1
    1528:	011580a3          	sb	a7,1(a1)
    152c:	fea718e3          	bne	a4,a0,151c <PcdAuthState+0x16>
    1530:	4701                	li	a4,0
    1532:	4619                	li	a2,6
    1534:	00e805b3          	add	a1,a6,a4
    1538:	218c                	lbu	a1,0(a1)
    153a:	0705                	addi	a4,a4,1
    153c:	0785                	addi	a5,a5,1
    153e:	b3ec                	sb	a1,7(a5)
    1540:	fec71ae3          	bne	a4,a2,1534 <PcdAuthState+0x2e>
    1544:	0038                	addi	a4,sp,8
    1546:	4631                	li	a2,12
    1548:	85b6                	mv	a1,a3
    154a:	4539                	li	a0,14
    154c:	cc7ff0ef          	jal	ra,1212 <PcdComMF522>
    1550:	02600793          	li	a5,38
    1554:	842a                	mv	s0,a0
    1556:	00f51763          	bne	a0,a5,1564 <PcdAuthState+0x5e>
    155a:	4521                	li	a0,8
    155c:	a23ff0ef          	jal	ra,f7e <RC522_Read_Register>
    1560:	8921                	andi	a0,a0,8
    1562:	e119                	bnez	a0,1568 <PcdAuthState+0x62>
    1564:	fbb00413          	li	s0,-69
    1568:	8522                	mv	a0,s0
    156a:	6105                	addi	sp,sp,32
    156c:	ca9fe06f          	j	214 <__riscv_restore_0>

00001570 <PcdWrite>:
    1570:	c81fe2ef          	jal	t0,1f0 <__riscv_save_0>
    1574:	1101                	addi	sp,sp,-32
    1576:	fa000793          	li	a5,-96
    157a:	86c8                	sb	a0,13(sp)
    157c:	00e10613          	addi	a2,sp,14
    1580:	0068                	addi	a0,sp,12
    1582:	842e                	mv	s0,a1
    1584:	4589                	li	a1,2
    1586:	865c                	sb	a5,12(sp)
    1588:	3dbd                	jal	1406 <CalulateCRC>
    158a:	0074                	addi	a3,sp,12
    158c:	0038                	addi	a4,sp,8
    158e:	4611                	li	a2,4
    1590:	85b6                	mv	a1,a3
    1592:	4531                	li	a0,12
    1594:	c7fff0ef          	jal	ra,1212 <PcdComMF522>
    1598:	02600793          	li	a5,38
    159c:	04f51e63          	bne	a0,a5,15f8 <PcdWrite+0x88>
    15a0:	4722                	lw	a4,8(sp)
    15a2:	4791                	li	a5,4
    15a4:	04f71a63          	bne	a4,a5,15f8 <PcdWrite+0x88>
    15a8:	861c                	lbu	a5,12(sp)
    15aa:	4729                	li	a4,10
    15ac:	8bbd                	andi	a5,a5,15
    15ae:	04e79563          	bne	a5,a4,15f8 <PcdWrite+0x88>
    15b2:	4781                	li	a5,0
    15b4:	4741                	li	a4,16
    15b6:	00f40633          	add	a2,s0,a5
    15ba:	2210                	lbu	a2,0(a2)
    15bc:	0074                	addi	a3,sp,12
    15be:	96be                	add	a3,a3,a5
    15c0:	a290                	sb	a2,0(a3)
    15c2:	0785                	addi	a5,a5,1
    15c4:	fee799e3          	bne	a5,a4,15b6 <PcdWrite+0x46>
    15c8:	0870                	addi	a2,sp,28
    15ca:	45c1                	li	a1,16
    15cc:	0068                	addi	a0,sp,12
    15ce:	3d25                	jal	1406 <CalulateCRC>
    15d0:	0074                	addi	a3,sp,12
    15d2:	0038                	addi	a4,sp,8
    15d4:	4649                	li	a2,18
    15d6:	85b6                	mv	a1,a3
    15d8:	4531                	li	a0,12
    15da:	c39ff0ef          	jal	ra,1212 <PcdComMF522>
    15de:	02600793          	li	a5,38
    15e2:	00f51b63          	bne	a0,a5,15f8 <PcdWrite+0x88>
    15e6:	4722                	lw	a4,8(sp)
    15e8:	4791                	li	a5,4
    15ea:	00f71763          	bne	a4,a5,15f8 <PcdWrite+0x88>
    15ee:	861c                	lbu	a5,12(sp)
    15f0:	4729                	li	a4,10
    15f2:	8bbd                	andi	a5,a5,15
    15f4:	00e78463          	beq	a5,a4,15fc <PcdWrite+0x8c>
    15f8:	fbb00513          	li	a0,-69
    15fc:	6105                	addi	sp,sp,32
    15fe:	c17fe06f          	j	214 <__riscv_restore_0>

00001602 <PcdRead>:
    1602:	beffe2ef          	jal	t0,1f0 <__riscv_save_0>
    1606:	1101                	addi	sp,sp,-32
    1608:	03000793          	li	a5,48
    160c:	86c8                	sb	a0,13(sp)
    160e:	00e10613          	addi	a2,sp,14
    1612:	0068                	addi	a0,sp,12
    1614:	842e                	mv	s0,a1
    1616:	4589                	li	a1,2
    1618:	865c                	sb	a5,12(sp)
    161a:	33f5                	jal	1406 <CalulateCRC>
    161c:	0074                	addi	a3,sp,12
    161e:	0038                	addi	a4,sp,8
    1620:	4611                	li	a2,4
    1622:	85b6                	mv	a1,a3
    1624:	4531                	li	a0,12
    1626:	bedff0ef          	jal	ra,1212 <PcdComMF522>
    162a:	02600793          	li	a5,38
    162e:	02f51563          	bne	a0,a5,1658 <PcdRead+0x56>
    1632:	4722                	lw	a4,8(sp)
    1634:	09000793          	li	a5,144
    1638:	02f71063          	bne	a4,a5,1658 <PcdRead+0x56>
    163c:	4781                	li	a5,0
    163e:	4741                	li	a4,16
    1640:	0070                	addi	a2,sp,12
    1642:	963e                	add	a2,a2,a5
    1644:	2210                	lbu	a2,0(a2)
    1646:	00f406b3          	add	a3,s0,a5
    164a:	0785                	addi	a5,a5,1
    164c:	a290                	sb	a2,0(a3)
    164e:	fee799e3          	bne	a5,a4,1640 <PcdRead+0x3e>
    1652:	6105                	addi	sp,sp,32
    1654:	bc1fe06f          	j	214 <__riscv_restore_0>
    1658:	fbb00513          	li	a0,-69
    165c:	bfdd                	j	1652 <PcdRead+0x50>

0000165e <PcdHalt>:
    165e:	b93fe2ef          	jal	t0,1f0 <__riscv_save_0>
    1662:	1101                	addi	sp,sp,-32
    1664:	05000793          	li	a5,80
    1668:	00e10613          	addi	a2,sp,14
    166c:	0068                	addi	a0,sp,12
    166e:	4589                	li	a1,2
    1670:	867c                	sh	a5,12(sp)
    1672:	d95ff0ef          	jal	ra,1406 <CalulateCRC>
    1676:	0074                	addi	a3,sp,12
    1678:	0038                	addi	a4,sp,8
    167a:	4611                	li	a2,4
    167c:	85b6                	mv	a1,a3
    167e:	4531                	li	a0,12
    1680:	b93ff0ef          	jal	ra,1212 <PcdComMF522>
    1684:	02600513          	li	a0,38
    1688:	6105                	addi	sp,sp,32
    168a:	b8bfe06f          	j	214 <__riscv_restore_0>

0000168e <delay_ms>:
    168e:	80c1a703          	lw	a4,-2036(gp) # 200004e4 <SystemCoreClock>
    1692:	6785                	lui	a5,0x1
    1694:	fa078793          	addi	a5,a5,-96 # fa0 <RC522_Read_Register+0x22>
    1698:	02f75733          	divu	a4,a4,a5
    169c:	4781                	li	a5,0
    169e:	00a79963          	bne	a5,a0,16b0 <delay_ms+0x22>
    16a2:	8082                	ret
    16a4:	0001                	nop
    16a6:	0685                	addi	a3,a3,1
    16a8:	fee69ee3          	bne	a3,a4,16a4 <delay_ms+0x16>
    16ac:	0785                	addi	a5,a5,1
    16ae:	bfc5                	j	169e <delay_ms+0x10>
    16b0:	4681                	li	a3,0
    16b2:	bfdd                	j	16a8 <delay_ms+0x1a>

000016b4 <delay_us>:
    16b4:	80c1a783          	lw	a5,-2036(gp) # 200004e4 <SystemCoreClock>
    16b8:	000f4737          	lui	a4,0xf4
    16bc:	24070713          	addi	a4,a4,576 # f4240 <_data_lma+0xe7954>
    16c0:	02e7d7b3          	divu	a5,a5,a4
    16c4:	02a78533          	mul	a0,a5,a0
    16c8:	e111                	bnez	a0,16cc <delay_us+0x18>
    16ca:	4505                	li	a0,1
    16cc:	57fd                	li	a5,-1
    16ce:	157d                	addi	a0,a0,-1
    16d0:	00f51363          	bne	a0,a5,16d6 <delay_us+0x22>
    16d4:	8082                	ret
    16d6:	0001                	nop
    16d8:	bfdd                	j	16ce <delay_us+0x1a>

000016da <GetSysTick>:
    16da:	8301a503          	lw	a0,-2000(gp) # 20000508 <g_sys_tick>
    16de:	8082                	ret

000016e0 <SysTick_Handler>:
    16e0:	e000f7b7          	lui	a5,0xe000f
    16e4:	0007a223          	sw	zero,4(a5) # e000f004 <_eusrstack+0xc0007004>
    16e8:	83018793          	addi	a5,gp,-2000 # 20000508 <g_sys_tick>
    16ec:	4398                	lw	a4,0(a5)
    16ee:	0705                	addi	a4,a4,1
    16f0:	c398                	sw	a4,0(a5)
    16f2:	30200073          	mret

000016f6 <Tim3_Init>:
    16f6:	afbfe2ef          	jal	t0,1f0 <__riscv_save_0>
    16fa:	1101                	addi	sp,sp,-32
    16fc:	84aa                	mv	s1,a0
    16fe:	842e                	mv	s0,a1
    1700:	4509                	li	a0,2
    1702:	4585                	li	a1,1
    1704:	6e6020ef          	jal	ra,3dea <RCC_APB1PeriphClockCmd>
    1708:	82e0                	sh	s0,20(sp)
    170a:	40000437          	lui	s0,0x40000
    170e:	084c                	addi	a1,sp,20
    1710:	40040513          	addi	a0,s0,1024 # 40000400 <_eusrstack+0x1fff8400>
    1714:	84e4                	sh	s1,24(sp)
    1716:	00011d23          	sh	zero,26(sp)
    171a:	00011b23          	sh	zero,22(sp)
    171e:	754020ef          	jal	ra,3e72 <TIM_TimeBaseInit>
    1722:	4605                	li	a2,1
    1724:	4585                	li	a1,1
    1726:	40040513          	addi	a0,s0,1024
    172a:	04f020ef          	jal	ra,3f78 <TIM_ITConfig>
    172e:	4785                	li	a5,1
    1730:	12d00713          	li	a4,301
    1734:	0068                	addi	a0,sp,12
    1736:	c83e                	sw	a5,16(sp)
    1738:	8678                	sh	a4,12(sp)
    173a:	875c                	sb	a5,14(sp)
    173c:	4be020ef          	jal	ra,3bfa <NVIC_Init>
    1740:	4585                	li	a1,1
    1742:	40040513          	addi	a0,s0,1024
    1746:	01b020ef          	jal	ra,3f60 <TIM_Cmd>
    174a:	6105                	addi	sp,sp,32
    174c:	ac9fe06f          	j	214 <__riscv_restore_0>

00001750 <USART1_GPIO_Config>:
    1750:	aa1fe2ef          	jal	t0,1f0 <__riscv_save_0>
    1754:	1141                	addi	sp,sp,-16
    1756:	4585                	li	a1,1
    1758:	4511                	li	a0,4
    175a:	672020ef          	jal	ra,3dcc <RCC_APB2PeriphClockCmd>
    175e:	20000793          	li	a5,512
    1762:	40011437          	lui	s0,0x40011
    1766:	827c                	sh	a5,4(sp)
    1768:	47e1                	li	a5,24
    176a:	c63e                	sw	a5,12(sp)
    176c:	004c                	addi	a1,sp,4
    176e:	478d                	li	a5,3
    1770:	80040513          	addi	a0,s0,-2048 # 40010800 <_eusrstack+0x20008800>
    1774:	c43e                	sw	a5,8(sp)
    1776:	3a2020ef          	jal	ra,3b18 <GPIO_Init>
    177a:	40000793          	li	a5,1024
    177e:	827c                	sh	a5,4(sp)
    1780:	004c                	addi	a1,sp,4
    1782:	4791                	li	a5,4
    1784:	80040513          	addi	a0,s0,-2048
    1788:	c63e                	sw	a5,12(sp)
    178a:	38e020ef          	jal	ra,3b18 <GPIO_Init>
    178e:	0141                	addi	sp,sp,16
    1790:	a85fe06f          	j	214 <__riscv_restore_0>

00001794 <USART1_Config>:
    1794:	a5dfe2ef          	jal	t0,1f0 <__riscv_save_0>
    1798:	1141                	addi	sp,sp,-16
    179a:	842a                	mv	s0,a0
    179c:	4585                	li	a1,1
    179e:	6511                	lui	a0,0x4
    17a0:	62c020ef          	jal	ra,3dcc <RCC_APB2PeriphClockCmd>
    17a4:	c022                	sw	s0,0(sp)
    17a6:	40014437          	lui	s0,0x40014
    17aa:	000807b7          	lui	a5,0x80
    17ae:	858a                	mv	a1,sp
    17b0:	80040513          	addi	a0,s0,-2048 # 40013800 <_eusrstack+0x2000b800>
    17b4:	c43e                	sw	a5,8(sp)
    17b6:	c202                	sw	zero,4(sp)
    17b8:	00011623          	sh	zero,12(sp)
    17bc:	7f2020ef          	jal	ra,3fae <USART_Init>
    17c0:	4585                	li	a1,1
    17c2:	80040513          	addi	a0,s0,-2048
    17c6:	079020ef          	jal	ra,403e <USART_Cmd>
    17ca:	0141                	addi	sp,sp,16
    17cc:	a49fe06f          	j	214 <__riscv_restore_0>

000017d0 <UART4_Init>:
    17d0:	a21fe2ef          	jal	t0,1f0 <__riscv_save_0>
    17d4:	1101                	addi	sp,sp,-32
    17d6:	842a                	mv	s0,a0
    17d8:	4585                	li	a1,1
    17da:	00080537          	lui	a0,0x80
    17de:	60c020ef          	jal	ra,3dea <RCC_APB1PeriphClockCmd>
    17e2:	4585                	li	a1,1
    17e4:	4541                	li	a0,16
    17e6:	5e6020ef          	jal	ra,3dcc <RCC_APB2PeriphClockCmd>
    17ea:	40000793          	li	a5,1024
    17ee:	827c                	sh	a5,4(sp)
    17f0:	47e1                	li	a5,24
    17f2:	c63e                	sw	a5,12(sp)
    17f4:	004c                	addi	a1,sp,4
    17f6:	478d                	li	a5,3
    17f8:	40011537          	lui	a0,0x40011
    17fc:	c43e                	sw	a5,8(sp)
    17fe:	31a020ef          	jal	ra,3b18 <GPIO_Init>
    1802:	6785                	lui	a5,0x1
    1804:	80078793          	addi	a5,a5,-2048 # 800 <__stack_size>
    1808:	827c                	sh	a5,4(sp)
    180a:	004c                	addi	a1,sp,4
    180c:	4791                	li	a5,4
    180e:	40011537          	lui	a0,0x40011
    1812:	c63e                	sw	a5,12(sp)
    1814:	304020ef          	jal	ra,3b18 <GPIO_Init>
    1818:	c822                	sw	s0,16(sp)
    181a:	40005437          	lui	s0,0x40005
    181e:	000c07b7          	lui	a5,0xc0
    1822:	080c                	addi	a1,sp,16
    1824:	c0040513          	addi	a0,s0,-1024 # 40004c00 <_eusrstack+0x1fffcc00>
    1828:	cc3e                	sw	a5,24(sp)
    182a:	ca02                	sw	zero,20(sp)
    182c:	00011e23          	sh	zero,28(sp)
    1830:	77e020ef          	jal	ra,3fae <USART_Init>
    1834:	4585                	li	a1,1
    1836:	c0040513          	addi	a0,s0,-1024
    183a:	005020ef          	jal	ra,403e <USART_Cmd>
    183e:	0000b537          	lui	a0,0xb
    1842:	c4c50513          	addi	a0,a0,-948 # ac4c <_read+0x506>
    1846:	629030ef          	jal	ra,566e <puts>
    184a:	6105                	addi	sp,sp,32
    184c:	9c9fe06f          	j	214 <__riscv_restore_0>

00001850 <UART8_TX_Init>:
    1850:	9a1fe2ef          	jal	t0,1f0 <__riscv_save_0>
    1854:	7179                	addi	sp,sp,-48
    1856:	84aa                	mv	s1,a0
    1858:	4585                	li	a1,1
    185a:	10000513          	li	a0,256
    185e:	ca02                	sw	zero,20(sp)
    1860:	cc02                	sw	zero,24(sp)
    1862:	ce02                	sw	zero,28(sp)
    1864:	d002                	sw	zero,32(sp)
    1866:	d202                	sw	zero,36(sp)
    1868:	d402                	sw	zero,40(sp)
    186a:	d602                	sw	zero,44(sp)
    186c:	c602                	sw	zero,12(sp)
    186e:	c802                	sw	zero,16(sp)
    1870:	57a020ef          	jal	ra,3dea <RCC_APB1PeriphClockCmd>
    1874:	4585                	li	a1,1
    1876:	4541                	li	a0,16
    1878:	554020ef          	jal	ra,3dcc <RCC_APB2PeriphClockCmd>
    187c:	02000793          	li	a5,32
    1880:	4405                	li	s0,1
    1882:	82fc                	sh	a5,20(sp)
    1884:	084c                	addi	a1,sp,20
    1886:	4791                	li	a5,4
    1888:	40011537          	lui	a0,0x40011
    188c:	cc22                	sw	s0,24(sp)
    188e:	ce3e                	sw	a5,28(sp)
    1890:	288020ef          	jal	ra,3b18 <GPIO_Init>
    1894:	47c1                	li	a5,16
    1896:	82fc                	sh	a5,20(sp)
    1898:	084c                	addi	a1,sp,20
    189a:	47e1                	li	a5,24
    189c:	40011537          	lui	a0,0x40011
    18a0:	cc22                	sw	s0,24(sp)
    18a2:	ce3e                	sw	a5,28(sp)
    18a4:	274020ef          	jal	ra,3b18 <GPIO_Init>
    18a8:	000c07b7          	lui	a5,0xc0
    18ac:	100c                	addi	a1,sp,32
    18ae:	40002537          	lui	a0,0x40002
    18b2:	d43e                	sw	a5,40(sp)
    18b4:	d026                	sw	s1,32(sp)
    18b6:	d202                	sw	zero,36(sp)
    18b8:	02011623          	sh	zero,44(sp)
    18bc:	6f2020ef          	jal	ra,3fae <USART_Init>
    18c0:	4605                	li	a2,1
    18c2:	52500593          	li	a1,1317
    18c6:	40002537          	lui	a0,0x40002
    18ca:	78a020ef          	jal	ra,4054 <USART_ITConfig>
    18ce:	05900793          	li	a5,89
    18d2:	0068                	addi	a0,sp,12
    18d4:	867c                	sh	a5,12(sp)
    18d6:	c822                	sw	s0,16(sp)
    18d8:	00010723          	sb	zero,14(sp)
    18dc:	31e020ef          	jal	ra,3bfa <NVIC_Init>
    18e0:	4585                	li	a1,1
    18e2:	40002537          	lui	a0,0x40002
    18e6:	758020ef          	jal	ra,403e <USART_Cmd>
    18ea:	6145                	addi	sp,sp,48
    18ec:	929fe06f          	j	214 <__riscv_restore_0>

000018f0 <UART8_SendByte>:
    18f0:	901fe2ef          	jal	t0,1f0 <__riscv_save_0>
    18f4:	842a                	mv	s0,a0
    18f6:	08000593          	li	a1,128
    18fa:	40002537          	lui	a0,0x40002
    18fe:	79c020ef          	jal	ra,409a <USART_GetFlagStatus>
    1902:	d975                	beqz	a0,18f6 <UART8_SendByte+0x6>
    1904:	85a2                	mv	a1,s0
    1906:	40002537          	lui	a0,0x40002
    190a:	780020ef          	jal	ra,408a <USART_SendData>
    190e:	907fe06f          	j	214 <__riscv_restore_0>

00001912 <UART5_Init>:
    1912:	8dffe2ef          	jal	t0,1f0 <__riscv_save_0>
    1916:	7179                	addi	sp,sp,-48
    1918:	84aa                	mv	s1,a0
    191a:	4585                	li	a1,1
    191c:	00100537          	lui	a0,0x100
    1920:	ca02                	sw	zero,20(sp)
    1922:	cc02                	sw	zero,24(sp)
    1924:	ce02                	sw	zero,28(sp)
    1926:	d002                	sw	zero,32(sp)
    1928:	d202                	sw	zero,36(sp)
    192a:	d402                	sw	zero,40(sp)
    192c:	d602                	sw	zero,44(sp)
    192e:	c602                	sw	zero,12(sp)
    1930:	c802                	sw	zero,16(sp)
    1932:	4b8020ef          	jal	ra,3dea <RCC_APB1PeriphClockCmd>
    1936:	4585                	li	a1,1
    1938:	02000513          	li	a0,32
    193c:	490020ef          	jal	ra,3dcc <RCC_APB2PeriphClockCmd>
    1940:	4791                	li	a5,4
    1942:	40011537          	lui	a0,0x40011
    1946:	4405                	li	s0,1
    1948:	82fc                	sh	a5,20(sp)
    194a:	084c                	addi	a1,sp,20
    194c:	4791                	li	a5,4
    194e:	40050513          	addi	a0,a0,1024 # 40011400 <_eusrstack+0x20009400>
    1952:	cc22                	sw	s0,24(sp)
    1954:	ce3e                	sw	a5,28(sp)
    1956:	1c2020ef          	jal	ra,3b18 <GPIO_Init>
    195a:	000407b7          	lui	a5,0x40
    195e:	100c                	addi	a1,sp,32
    1960:	40005537          	lui	a0,0x40005
    1964:	d43e                	sw	a5,40(sp)
    1966:	d026                	sw	s1,32(sp)
    1968:	d202                	sw	zero,36(sp)
    196a:	02011623          	sh	zero,44(sp)
    196e:	640020ef          	jal	ra,3fae <USART_Init>
    1972:	4605                	li	a2,1
    1974:	52500593          	li	a1,1317
    1978:	40005537          	lui	a0,0x40005
    197c:	6d8020ef          	jal	ra,4054 <USART_ITConfig>
    1980:	04500793          	li	a5,69
    1984:	0068                	addi	a0,sp,12
    1986:	867c                	sh	a5,12(sp)
    1988:	c822                	sw	s0,16(sp)
    198a:	00010723          	sb	zero,14(sp)
    198e:	26c020ef          	jal	ra,3bfa <NVIC_Init>
    1992:	4585                	li	a1,1
    1994:	40005537          	lui	a0,0x40005
    1998:	6a6020ef          	jal	ra,403e <USART_Cmd>
    199c:	82018a23          	sb	zero,-1996(gp) # 2000050c <UART5_RxFlag>
    19a0:	82019b23          	sh	zero,-1994(gp) # 2000050e <UART5_RxLen>
    19a4:	6145                	addi	sp,sp,48
    19a6:	86ffe06f          	j	214 <__riscv_restore_0>

000019aa <UART5_IRQHandler>:
    19aa:	52500593          	li	a1,1317
    19ae:	40005537          	lui	a0,0x40005
    19b2:	6f2020ef          	jal	ra,40a4 <USART_GetITStatus>
    19b6:	cd1d                	beqz	a0,19f4 <UART5_IRQHandler+0x4a>
    19b8:	40005537          	lui	a0,0x40005
    19bc:	6d6020ef          	jal	ra,4092 <USART_ReceiveData>
    19c0:	83818713          	addi	a4,gp,-1992 # 20000510 <uart5_bytes>
    19c4:	231e                	lhu	a5,0(a4)
    19c6:	1fe00693          	li	a3,510
    19ca:	02f6e163          	bltu	a3,a5,19ec <UART5_IRQHandler+0x42>
    19ce:	231e                	lhu	a5,0(a4)
    19d0:	0ff57513          	andi	a0,a0,255
    19d4:	01079693          	slli	a3,a5,0x10
    19d8:	82c1                	srli	a3,a3,0x10
    19da:	00168793          	addi	a5,a3,1
    19de:	07c2                	slli	a5,a5,0x10
    19e0:	83c1                	srli	a5,a5,0x10
    19e2:	a31e                	sh	a5,0(a4)
    19e4:	db018793          	addi	a5,gp,-592 # 20000a88 <UART5_RxBuf>
    19e8:	97b6                	add	a5,a5,a3
    19ea:	a388                	sb	a0,0(a5)
    19ec:	cefff0ef          	jal	ra,16da <GetSysTick>
    19f0:	82a1ae23          	sw	a0,-1988(gp) # 20000514 <uart5_last_byte>
    19f4:	30200073          	mret

000019f8 <UART4_SendByte>:
    19f8:	ff8fe2ef          	jal	t0,1f0 <__riscv_save_0>
    19fc:	40005437          	lui	s0,0x40005
    1a00:	84aa                	mv	s1,a0
    1a02:	c0040913          	addi	s2,s0,-1024 # 40004c00 <_eusrstack+0x1fffcc00>
    1a06:	08000593          	li	a1,128
    1a0a:	854a                	mv	a0,s2
    1a0c:	68e020ef          	jal	ra,409a <USART_GetFlagStatus>
    1a10:	d97d                	beqz	a0,1a06 <UART4_SendByte+0xe>
    1a12:	85a6                	mv	a1,s1
    1a14:	c0040513          	addi	a0,s0,-1024
    1a18:	672020ef          	jal	ra,408a <USART_SendData>
    1a1c:	ff8fe06f          	j	214 <__riscv_restore_0>

00001a20 <UART4_SendString>:
    1a20:	fd0fe2ef          	jal	t0,1f0 <__riscv_save_0>
    1a24:	842a                	mv	s0,a0
    1a26:	00040503          	lb	a0,0(s0)
    1a2a:	e119                	bnez	a0,1a30 <UART4_SendString+0x10>
    1a2c:	fe8fe06f          	j	214 <__riscv_restore_0>
    1a30:	0ff57513          	andi	a0,a0,255
    1a34:	37d1                	jal	19f8 <UART4_SendByte>
    1a36:	0405                	addi	s0,s0,1
    1a38:	b7fd                	j	1a26 <UART4_SendString+0x6>

00001a3a <NMI_Handler>:
    1a3a:	a001                	j	1a3a <NMI_Handler>

00001a3c <HardFault_Handler>:
    1a3c:	beef07b7          	lui	a5,0xbeef0
    1a40:	e000e737          	lui	a4,0xe000e
    1a44:	08078793          	addi	a5,a5,128 # beef0080 <_eusrstack+0x9eee8080>
    1a48:	c73c                	sw	a5,72(a4)
    1a4a:	a001                	j	1a4a <HardFault_Handler+0xe>

00001a4c <find_json_value>:
    1a4c:	f8afe2ef          	jal	t0,1d6 <__riscv_save_4>
    1a50:	7159                	addi	sp,sp,-112
    1a52:	8932                	mv	s2,a2
    1a54:	862e                	mv	a2,a1
    1a56:	0000c5b7          	lui	a1,0xc
    1a5a:	842a                	mv	s0,a0
    1a5c:	a6858593          	addi	a1,a1,-1432 # ba68 <_read+0x1322>
    1a60:	0068                	addi	a0,sp,12
    1a62:	89b6                	mv	s3,a3
    1a64:	417030ef          	jal	ra,567a <siprintf>
    1a68:	006c                	addi	a1,sp,12
    1a6a:	8522                	mv	a0,s0
    1a6c:	48f030ef          	jal	ra,56fa <strstr>
    1a70:	c579                	beqz	a0,1b3e <find_json_value+0xf2>
    1a72:	03a00593          	li	a1,58
    1a76:	44b030ef          	jal	ra,56c0 <strchr>
    1a7a:	84aa                	mv	s1,a0
    1a7c:	4501                	li	a0,0
    1a7e:	c885                	beqz	s1,1aae <find_json_value+0x62>
    1a80:	0485                	addi	s1,s1,1
    1a82:	02000693          	li	a3,32
    1a86:	4725                	li	a4,9
    1a88:	00048783          	lb	a5,0(s1)
    1a8c:	02d78463          	beq	a5,a3,1ab4 <find_json_value+0x68>
    1a90:	02e78263          	beq	a5,a4,1ab4 <find_json_value+0x68>
    1a94:	02200713          	li	a4,34
    1a98:	02e79063          	bne	a5,a4,1ab8 <find_json_value+0x6c>
    1a9c:	0485                	addi	s1,s1,1
    1a9e:	02200593          	li	a1,34
    1aa2:	8526                	mv	a0,s1
    1aa4:	41d030ef          	jal	ra,56c0 <strchr>
    1aa8:	87aa                	mv	a5,a0
    1aaa:	4501                	li	a0,0
    1aac:	e7b9                	bnez	a5,1afa <find_json_value+0xae>
    1aae:	6165                	addi	sp,sp,112
    1ab0:	f5afe06f          	j	20a <__riscv_restore_4>
    1ab4:	0485                	addi	s1,s1,1
    1ab6:	bfc9                	j	1a88 <find_json_value+0x3c>
    1ab8:	fdf7f713          	andi	a4,a5,-33
    1abc:	05b00693          	li	a3,91
    1ac0:	87a6                	mv	a5,s1
    1ac2:	02d70163          	beq	a4,a3,1ae4 <find_json_value+0x98>
    1ac6:	02c00613          	li	a2,44
    1aca:	05d00693          	li	a3,93
    1ace:	00078703          	lb	a4,0(a5)
    1ad2:	c705                	beqz	a4,1afa <find_json_value+0xae>
    1ad4:	02c70363          	beq	a4,a2,1afa <find_json_value+0xae>
    1ad8:	fdf77713          	andi	a4,a4,-33
    1adc:	00d70f63          	beq	a4,a3,1afa <find_json_value+0xae>
    1ae0:	0785                	addi	a5,a5,1
    1ae2:	b7f5                	j	1ace <find_json_value+0x82>
    1ae4:	00148793          	addi	a5,s1,1
    1ae8:	4705                	li	a4,1
    1aea:	05b00613          	li	a2,91
    1aee:	05d00593          	li	a1,93
    1af2:	00078683          	lb	a3,0(a5)
    1af6:	c2a9                	beqz	a3,1b38 <find_json_value+0xec>
    1af8:	e70d                	bnez	a4,1b22 <find_json_value+0xd6>
    1afa:	8f85                	sub	a5,a5,s1
    1afc:	01079413          	slli	s0,a5,0x10
    1b00:	8041                	srli	s0,s0,0x10
    1b02:	01346663          	bltu	s0,s3,1b0e <find_json_value+0xc2>
    1b06:	fff98413          	addi	s0,s3,-1
    1b0a:	0442                	slli	s0,s0,0x10
    1b0c:	8041                	srli	s0,s0,0x10
    1b0e:	8622                	mv	a2,s0
    1b10:	85a6                	mv	a1,s1
    1b12:	854a                	mv	a0,s2
    1b14:	15d030ef          	jal	ra,5470 <memcpy>
    1b18:	944a                	add	s0,s0,s2
    1b1a:	00040023          	sb	zero,0(s0)
    1b1e:	4505                	li	a0,1
    1b20:	b779                	j	1aae <find_json_value+0x62>
    1b22:	fdf6f693          	andi	a3,a3,-33
    1b26:	00c69563          	bne	a3,a2,1b30 <find_json_value+0xe4>
    1b2a:	0705                	addi	a4,a4,1
    1b2c:	0785                	addi	a5,a5,1
    1b2e:	b7d1                	j	1af2 <find_json_value+0xa6>
    1b30:	feb69ee3          	bne	a3,a1,1b2c <find_json_value+0xe0>
    1b34:	177d                	addi	a4,a4,-1
    1b36:	bfdd                	j	1b2c <find_json_value+0xe0>
    1b38:	4501                	li	a0,0
    1b3a:	fb35                	bnez	a4,1aae <find_json_value+0x62>
    1b3c:	bf7d                	j	1afa <find_json_value+0xae>
    1b3e:	4501                	li	a0,0
    1b40:	b7bd                	j	1aae <find_json_value+0x62>

00001b42 <Initialize_Data_Structures>:
    1b42:	e94fe2ef          	jal	t0,1d6 <__riscv_save_4>
    1b46:	fb018413          	addi	s0,gp,-80 # 20000c88 <g_items>
    1b4a:	0000b4b7          	lui	s1,0xb
    1b4e:	14040993          	addi	s3,s0,320
    1b52:	8926                	mv	s2,s1
    1b54:	d5448593          	addi	a1,s1,-684 # ad54 <_read+0x60e>
    1b58:	8522                	mv	a0,s0
    1b5a:	37f030ef          	jal	ra,56d8 <strcpy>
    1b5e:	01440513          	addi	a0,s0,20
    1b62:	d5448593          	addi	a1,s1,-684
    1b66:	373030ef          	jal	ra,56d8 <strcpy>
    1b6a:	00000793          	li	a5,0
    1b6e:	c43c                	sw	a5,72(s0)
    1b70:	04040623          	sb	zero,76(s0)
    1b74:	05040413          	addi	s0,s0,80
    1b78:	fd341ee3          	bne	s0,s3,1b54 <Initialize_Data_Structures+0x12>
    1b7c:	27c18793          	addi	a5,gp,636 # 20000f54 <g_weights>
    1b80:	03078713          	addi	a4,a5,48
    1b84:	00000693          	li	a3,0
    1b88:	c394                	sw	a3,0(a5)
    1b8a:	00078223          	sb	zero,4(a5)
    1b8e:	0007a423          	sw	zero,8(a5)
    1b92:	07b1                	addi	a5,a5,12
    1b94:	fee798e3          	bne	a5,a4,1b84 <Initialize_Data_Structures+0x42>
    1b98:	0f018413          	addi	s0,gp,240 # 20000dc8 <g_merged_data>
    1b9c:	15040493          	addi	s1,s0,336
    1ba0:	d5490593          	addi	a1,s2,-684
    1ba4:	8522                	mv	a0,s0
    1ba6:	333030ef          	jal	ra,56d8 <strcpy>
    1baa:	01440513          	addi	a0,s0,20
    1bae:	d5490593          	addi	a1,s2,-684
    1bb2:	327030ef          	jal	ra,56d8 <strcpy>
    1bb6:	00000793          	li	a5,0
    1bba:	c43c                	sw	a5,72(s0)
    1bbc:	c47c                	sw	a5,76(s0)
    1bbe:	04040823          	sb	zero,80(s0)
    1bc2:	040408a3          	sb	zero,81(s0)
    1bc6:	05440413          	addi	s0,s0,84
    1bca:	fc941be3          	bne	s0,s1,1ba0 <Initialize_Data_Structures+0x5e>
    1bce:	e3cfe06f          	j	20a <__riscv_restore_4>

00001bd2 <Parse_K230_JSON>:
    1bd2:	e04fe2ef          	jal	t0,1d6 <__riscv_save_4>
    1bd6:	7171                	addi	sp,sp,-176
    1bd8:	0000b5b7          	lui	a1,0xb
    1bdc:	46d1                	li	a3,20
    1bde:	0050                	addi	a2,sp,4
    1be0:	e4c58593          	addi	a1,a1,-436 # ae4c <_read+0x706>
    1be4:	89aa                	mv	s3,a0
    1be6:	e67ff0ef          	jal	ra,1a4c <find_json_value>
    1bea:	e509                	bnez	a0,1bf4 <Parse_K230_JSON+0x22>
    1bec:	4501                	li	a0,0
    1bee:	614d                	addi	sp,sp,176
    1bf0:	e1afe06f          	j	20a <__riscv_restore_4>
    1bf4:	0000b5b7          	lui	a1,0xb
    1bf8:	03200693          	li	a3,50
    1bfc:	0830                	addi	a2,sp,24
    1bfe:	e5858593          	addi	a1,a1,-424 # ae58 <_read+0x712>
    1c02:	854e                	mv	a0,s3
    1c04:	e49ff0ef          	jal	ra,1a4c <find_json_value>
    1c08:	d175                	beqz	a0,1bec <Parse_K230_JSON+0x1a>
    1c0a:	0000b5b7          	lui	a1,0xb
    1c0e:	e6058593          	addi	a1,a1,-416 # ae60 <_read+0x71a>
    1c12:	0048                	addi	a0,sp,4
    1c14:	eb4fe0ef          	jal	ra,2c8 <strcmp>
    1c18:	84aa                	mv	s1,a0
    1c1a:	c915                	beqz	a0,1c4e <Parse_K230_JSON+0x7c>
    1c1c:	0000b5b7          	lui	a1,0xb
    1c20:	e6c58593          	addi	a1,a1,-404 # ae6c <_read+0x726>
    1c24:	0048                	addi	a0,sp,4
    1c26:	ea2fe0ef          	jal	ra,2c8 <strcmp>
    1c2a:	cd49                	beqz	a0,1cc4 <Parse_K230_JSON+0xf2>
    1c2c:	0000b5b7          	lui	a1,0xb
    1c30:	e7858593          	addi	a1,a1,-392 # ae78 <_read+0x732>
    1c34:	0048                	addi	a0,sp,4
    1c36:	e92fe0ef          	jal	ra,2c8 <strcmp>
    1c3a:	c559                	beqz	a0,1cc8 <Parse_K230_JSON+0xf6>
    1c3c:	0000b5b7          	lui	a1,0xb
    1c40:	e8458593          	addi	a1,a1,-380 # ae84 <_read+0x73e>
    1c44:	0048                	addi	a0,sp,4
    1c46:	e82fe0ef          	jal	ra,2c8 <strcmp>
    1c4a:	f14d                	bnez	a0,1bec <Parse_K230_JSON+0x1a>
    1c4c:	448d                	li	s1,3
    1c4e:	05000413          	li	s0,80
    1c52:	02848933          	mul	s2,s1,s0
    1c56:	fb018413          	addi	s0,gp,-80 # 20000c88 <g_items>
    1c5a:	082c                	addi	a1,sp,24
    1c5c:	01490513          	addi	a0,s2,20
    1c60:	9522                	add	a0,a0,s0
    1c62:	277030ef          	jal	ra,56d8 <strcpy>
    1c66:	944a                	add	s0,s0,s2
    1c68:	4785                	li	a5,1
    1c6a:	004c                	addi	a1,sp,4
    1c6c:	04f40623          	sb	a5,76(s0)
    1c70:	8522                	mv	a0,s0
    1c72:	267030ef          	jal	ra,56d8 <strcpy>
    1c76:	0000b5b7          	lui	a1,0xb
    1c7a:	06400693          	li	a3,100
    1c7e:	00f0                	addi	a2,sp,76
    1c80:	e9458593          	addi	a1,a1,-364 # ae94 <_read+0x74e>
    1c84:	854e                	mv	a0,s3
    1c86:	dc7ff0ef          	jal	ra,1a4c <find_json_value>
    1c8a:	c519                	beqz	a0,1c98 <Parse_K230_JSON+0xc6>
    1c8c:	00e8                	addi	a0,sp,76
    1c8e:	7b8030ef          	jal	ra,5446 <atof>
    1c92:	5dc030ef          	jal	ra,526e <__truncdfsf2>
    1c96:	c428                	sw	a0,72(s0)
    1c98:	85818413          	addi	s0,gp,-1960 # 20000530 <g_tick>
    1c9c:	400c                	lw	a1,0(s0)
    1c9e:	0000b537          	lui	a0,0xb
    1ca2:	ea050513          	addi	a0,a0,-352 # aea0 <_read+0x75a>
    1ca6:	07d030ef          	jal	ra,5522 <iprintf>
    1caa:	4018                	lw	a4,0(s0)
    1cac:	0000b537          	lui	a0,0xb
    1cb0:	0830                	addi	a2,sp,24
    1cb2:	85a6                	mv	a1,s1
    1cb4:	ec850513          	addi	a0,a0,-312 # aec8 <_read+0x782>
    1cb8:	84e1aa23          	sw	a4,-1964(gp) # 2000052c <g_k230_last_time>
    1cbc:	067030ef          	jal	ra,5522 <iprintf>
    1cc0:	4505                	li	a0,1
    1cc2:	b735                	j	1bee <Parse_K230_JSON+0x1c>
    1cc4:	4485                	li	s1,1
    1cc6:	b761                	j	1c4e <Parse_K230_JSON+0x7c>
    1cc8:	4489                	li	s1,2
    1cca:	b751                	j	1c4e <Parse_K230_JSON+0x7c>

00001ccc <Process_K230_Data>:
    1ccc:	d24fe2ef          	jal	t0,1f0 <__riscv_save_0>
    1cd0:	88c18493          	addi	s1,gp,-1908 # 20000564 <uart3_rx_complete>
    1cd4:	209c                	lbu	a5,0(s1)
    1cd6:	0ff7f793          	andi	a5,a5,255
    1cda:	cba1                	beqz	a5,1d2a <Process_K230_Data+0x5e>
    1cdc:	0000b537          	lui	a0,0xb
    1ce0:	2bc50513          	addi	a0,a0,700 # b2bc <_read+0xb76>
    1ce4:	d3dff0ef          	jal	ra,1a20 <UART4_SendString>
    1ce8:	20001437          	lui	s0,0x20001
    1cec:	f8440513          	addi	a0,s0,-124 # 20000f84 <uart3_rx_buffer>
    1cf0:	d31ff0ef          	jal	ra,1a20 <UART4_SendString>
    1cf4:	0000c537          	lui	a0,0xc
    1cf8:	82c50513          	addi	a0,a0,-2004 # b82c <_read+0x10e6>
    1cfc:	d25ff0ef          	jal	ra,1a20 <UART4_SendString>
    1d00:	f8440513          	addi	a0,s0,-124
    1d04:	ecfff0ef          	jal	ra,1bd2 <Parse_K230_JSON>
    1d08:	88019723          	sh	zero,-1906(gp) # 20000566 <uart3_rx_index>
    1d0c:	00048023          	sb	zero,0(s1)
    1d10:	84018fa3          	sb	zero,-1953(gp) # 20000537 <in_json_frame>
    1d14:	f8440413          	addi	s0,s0,-124
    1d18:	4781                	li	a5,0
    1d1a:	00878733          	add	a4,a5,s0
    1d1e:	0785                	addi	a5,a5,1
    1d20:	00070023          	sb	zero,0(a4) # e000e000 <_eusrstack+0xc0006000>
    1d24:	80078713          	addi	a4,a5,-2048
    1d28:	fb6d                	bnez	a4,1d1a <Process_K230_Data+0x4e>
    1d2a:	ceafe06f          	j	214 <__riscv_restore_0>

00001d2e <Get_Chinese_Name>:
    1d2e:	ca8fe2ef          	jal	t0,1d6 <__riscv_save_4>
    1d32:	67b1                	lui	a5,0xc
    1d34:	892a                	mv	s2,a0
    1d36:	a7078993          	addi	s3,a5,-1424 # ba70 <g_item_map>
    1d3a:	4401                	li	s0,0
    1d3c:	a7078493          	addi	s1,a5,-1424
    1d40:	4a69                	li	s4,26
    1d42:	0009a583          	lw	a1,0(s3)
    1d46:	854a                	mv	a0,s2
    1d48:	d80fe0ef          	jal	ra,2c8 <strcmp>
    1d4c:	e901                	bnez	a0,1d5c <Get_Chinese_Name+0x2e>
    1d4e:	040e                	slli	s0,s0,0x3
    1d50:	9426                	add	s0,s0,s1
    1d52:	00442903          	lw	s2,4(s0)
    1d56:	854a                	mv	a0,s2
    1d58:	cb2fe06f          	j	20a <__riscv_restore_4>
    1d5c:	0405                	addi	s0,s0,1
    1d5e:	09a1                	addi	s3,s3,8
    1d60:	ff4411e3          	bne	s0,s4,1d42 <Get_Chinese_Name+0x14>
    1d64:	bfcd                	j	1d56 <Get_Chinese_Name+0x28>

00001d66 <CompensateCrosstalkSimple>:
    1d66:	c62fe2ef          	jal	t0,1c8 <__riscv_save_10>
    1d6a:	0000b7b7          	lui	a5,0xb
    1d6e:	c907aa83          	lw	s5,-880(a5) # ac90 <_read+0x54a>
    1d72:	842a                	mv	s0,a0
    1d74:	4901                	li	s2,0
    1d76:	54fd                	li	s1,-1
    1d78:	4981                	li	s3,0
    1d7a:	4a11                	li	s4,4
    1d7c:	00291793          	slli	a5,s2,0x2
    1d80:	97a2                	add	a5,a5,s0
    1d82:	4388                	lw	a0,0(a5)
    1d84:	85d6                	mv	a1,s5
    1d86:	391020ef          	jal	ra,4916 <__gesf2>
    1d8a:	00054463          	bltz	a0,1d92 <CompensateCrosstalkSimple+0x2c>
    1d8e:	0985                	addi	s3,s3,1
    1d90:	84ca                	mv	s1,s2
    1d92:	0905                	addi	s2,s2,1
    1d94:	ff4914e3          	bne	s2,s4,1d7c <CompensateCrosstalkSimple+0x16>
    1d98:	4785                	li	a5,1
    1d9a:	06f99163          	bne	s3,a5,1dfc <CompensateCrosstalkSimple+0x96>
    1d9e:	0000b7b7          	lui	a5,0xb
    1da2:	c947ab83          	lw	s7,-876(a5) # ac94 <_read+0x54e>
    1da6:	4901                	li	s2,0
    1da8:	00000a13          	li	s4,0
    1dac:	4b11                	li	s6,4
    1dae:	03248d63          	beq	s1,s2,1de8 <CompensateCrosstalkSimple+0x82>
    1db2:	00291993          	slli	s3,s2,0x2
    1db6:	99a2                	add	s3,s3,s0
    1db8:	0009aa83          	lw	s5,0(s3)
    1dbc:	85de                	mv	a1,s7
    1dbe:	8556                	mv	a0,s5
    1dc0:	3dd020ef          	jal	ra,499c <__lesf2>
    1dc4:	02055263          	bgez	a0,1de8 <CompensateCrosstalkSimple+0x82>
    1dc8:	00000593          	li	a1,0
    1dcc:	8556                	mv	a0,s5
    1dce:	349020ef          	jal	ra,4916 <__gesf2>
    1dd2:	00a05b63          	blez	a0,1de8 <CompensateCrosstalkSimple+0x82>
    1dd6:	8552                	mv	a0,s4
    1dd8:	85d6                	mv	a1,s5
    1dda:	4c4020ef          	jal	ra,429e <__addsf3>
    1dde:	00000793          	li	a5,0
    1de2:	8a2a                	mv	s4,a0
    1de4:	00f9a023          	sw	a5,0(s3)
    1de8:	0905                	addi	s2,s2,1
    1dea:	fd6912e3          	bne	s2,s6,1dae <CompensateCrosstalkSimple+0x48>
    1dee:	048a                	slli	s1,s1,0x2
    1df0:	9426                	add	s0,s0,s1
    1df2:	4008                	lw	a0,0(s0)
    1df4:	85d2                	mv	a1,s4
    1df6:	4a8020ef          	jal	ra,429e <__addsf3>
    1dfa:	c008                	sw	a0,0(s0)
    1dfc:	c04fe06f          	j	200 <__riscv_restore_10>

00001e00 <TIM3_IRQHandler>:
    1e00:	40000537          	lui	a0,0x40000
    1e04:	4585                	li	a1,1
    1e06:	40050513          	addi	a0,a0,1024 # 40000400 <_eusrstack+0x1fff8400>
    1e0a:	180020ef          	jal	ra,3f8a <TIM_GetITStatus>
    1e0e:	c115                	beqz	a0,1e32 <TIM3_IRQHandler+0x32>
    1e10:	85818693          	addi	a3,gp,-1960 # 20000530 <g_tick>
    1e14:	84018793          	addi	a5,gp,-1984 # 20000518 <Timer_2s>
    1e18:	4290                	lw	a2,0(a3)
    1e1a:	4398                	lw	a4,0(a5)
    1e1c:	0605                	addi	a2,a2,1
    1e1e:	0705                	addi	a4,a4,1
    1e20:	c290                	sw	a2,0(a3)
    1e22:	c398                	sw	a4,0(a5)
    1e24:	4685                	li	a3,1
    1e26:	00e6f663          	bgeu	a3,a4,1e32 <TIM3_IRQHandler+0x32>
    1e2a:	0007a023          	sw	zero,0(a5)
    1e2e:	80d18323          	sb	a3,-2042(gp) # 200004de <Uart_Flag>
    1e32:	40000537          	lui	a0,0x40000
    1e36:	4585                	li	a1,1
    1e38:	40050513          	addi	a0,a0,1024 # 40000400 <_eusrstack+0x1fff8400>
    1e3c:	166020ef          	jal	ra,3fa2 <TIM_ClearITPendingBit>
    1e40:	30200073          	mret

00001e44 <USART3_IRQHandler>:
    1e44:	1141                	addi	sp,sp,-16
    1e46:	c622                	sw	s0,12(sp)
    1e48:	40005437          	lui	s0,0x40005
    1e4c:	52500593          	li	a1,1317
    1e50:	80040513          	addi	a0,s0,-2048 # 40004800 <_eusrstack+0x1fffc800>
    1e54:	c426                	sw	s1,8(sp)
    1e56:	24e020ef          	jal	ra,40a4 <USART_GetITStatus>
    1e5a:	c951                	beqz	a0,1eee <USART3_IRQHandler+0xaa>
    1e5c:	80040513          	addi	a0,s0,-2048
    1e60:	232020ef          	jal	ra,4092 <USART_ReceiveData>
    1e64:	0ff57513          	andi	a0,a0,255
    1e68:	07b00793          	li	a5,123
    1e6c:	88e18413          	addi	s0,gp,-1906 # 20000566 <uart3_rx_index>
    1e70:	85f18493          	addi	s1,gp,-1953 # 20000537 <in_json_frame>
    1e74:	00f51663          	bne	a0,a5,1e80 <USART3_IRQHandler+0x3c>
    1e78:	00041023          	sh	zero,0(s0)
    1e7c:	4785                	li	a5,1
    1e7e:	a09c                	sb	a5,0(s1)
    1e80:	209c                	lbu	a5,0(s1)
    1e82:	0ff7f793          	andi	a5,a5,255
    1e86:	c785                	beqz	a5,1eae <USART3_IRQHandler+0x6a>
    1e88:	201e                	lhu	a5,0(s0)
    1e8a:	7fe00713          	li	a4,2046
    1e8e:	02f76063          	bltu	a4,a5,1eae <USART3_IRQHandler+0x6a>
    1e92:	201e                	lhu	a5,0(s0)
    1e94:	07c2                	slli	a5,a5,0x10
    1e96:	83c1                	srli	a5,a5,0x10
    1e98:	00178713          	addi	a4,a5,1
    1e9c:	0742                	slli	a4,a4,0x10
    1e9e:	8341                	srli	a4,a4,0x10
    1ea0:	a01a                	sh	a4,0(s0)
    1ea2:	20001737          	lui	a4,0x20001
    1ea6:	f8470713          	addi	a4,a4,-124 # 20000f84 <uart3_rx_buffer>
    1eaa:	97ba                	add	a5,a5,a4
    1eac:	a388                	sb	a0,0(a5)
    1eae:	47a9                	li	a5,10
    1eb0:	02f51663          	bne	a0,a5,1edc <USART3_IRQHandler+0x98>
    1eb4:	209c                	lbu	a5,0(s1)
    1eb6:	0ff7f793          	andi	a5,a5,255
    1eba:	c38d                	beqz	a5,1edc <USART3_IRQHandler+0x98>
    1ebc:	201a                	lhu	a4,0(s0)
    1ebe:	20001537          	lui	a0,0x20001
    1ec2:	f8450793          	addi	a5,a0,-124 # 20000f84 <uart3_rx_buffer>
    1ec6:	97ba                	add	a5,a5,a4
    1ec8:	f8450513          	addi	a0,a0,-124
    1ecc:	00078023          	sb	zero,0(a5)
    1ed0:	00048023          	sb	zero,0(s1)
    1ed4:	cffff0ef          	jal	ra,1bd2 <Parse_K230_JSON>
    1ed8:	00041023          	sh	zero,0(s0)
    1edc:	201e                	lhu	a5,0(s0)
    1ede:	7fe00713          	li	a4,2046
    1ee2:	00f77663          	bgeu	a4,a5,1eee <USART3_IRQHandler+0xaa>
    1ee6:	00041023          	sh	zero,0(s0)
    1eea:	00048023          	sb	zero,0(s1)
    1eee:	4432                	lw	s0,12(sp)
    1ef0:	44a2                	lw	s1,8(sp)
    1ef2:	0141                	addi	sp,sp,16
    1ef4:	30200073          	mret

00001ef8 <UART8_IRQHandler>:
    1ef8:	52500593          	li	a1,1317
    1efc:	40002537          	lui	a0,0x40002
    1f00:	1a4020ef          	jal	ra,40a4 <USART_GetITStatus>
    1f04:	c909                	beqz	a0,1f16 <UART8_IRQHandler+0x1e>
    1f06:	40002537          	lui	a0,0x40002
    1f0a:	188020ef          	jal	ra,4092 <USART_ReceiveData>
    1f0e:	0ff57513          	andi	a0,a0,255
    1f12:	cfbfe0ef          	jal	ra,c0c <Cloud_FeedRXByte>
    1f16:	30200073          	mret

00001f1a <UART3_Init_For_K230>:
    1f1a:	ad6fe2ef          	jal	t0,1f0 <__riscv_save_0>
    1f1e:	7179                	addi	sp,sp,-48
    1f20:	4585                	li	a1,1
    1f22:	00040537          	lui	a0,0x40
    1f26:	6c5010ef          	jal	ra,3dea <RCC_APB1PeriphClockCmd>
    1f2a:	4585                	li	a1,1
    1f2c:	4521                	li	a0,8
    1f2e:	69f010ef          	jal	ra,3dcc <RCC_APB2PeriphClockCmd>
    1f32:	40000793          	li	a5,1024
    1f36:	82fc                	sh	a5,20(sp)
    1f38:	40011437          	lui	s0,0x40011
    1f3c:	47e1                	li	a5,24
    1f3e:	ce3e                	sw	a5,28(sp)
    1f40:	084c                	addi	a1,sp,20
    1f42:	478d                	li	a5,3
    1f44:	c0040513          	addi	a0,s0,-1024 # 40010c00 <_eusrstack+0x20008c00>
    1f48:	cc3e                	sw	a5,24(sp)
    1f4a:	3cf010ef          	jal	ra,3b18 <GPIO_Init>
    1f4e:	6785                	lui	a5,0x1
    1f50:	80078793          	addi	a5,a5,-2048 # 800 <__stack_size>
    1f54:	82fc                	sh	a5,20(sp)
    1f56:	084c                	addi	a1,sp,20
    1f58:	4791                	li	a5,4
    1f5a:	c0040513          	addi	a0,s0,-1024
    1f5e:	ce3e                	sw	a5,28(sp)
    1f60:	3b9010ef          	jal	ra,3b18 <GPIO_Init>
    1f64:	67f1                	lui	a5,0x1c
    1f66:	40005437          	lui	s0,0x40005
    1f6a:	20078793          	addi	a5,a5,512 # 1c200 <_data_lma+0xf914>
    1f6e:	d03e                	sw	a5,32(sp)
    1f70:	100c                	addi	a1,sp,32
    1f72:	000c07b7          	lui	a5,0xc0
    1f76:	80040513          	addi	a0,s0,-2048 # 40004800 <_eusrstack+0x1fffc800>
    1f7a:	d43e                	sw	a5,40(sp)
    1f7c:	d202                	sw	zero,36(sp)
    1f7e:	02011623          	sh	zero,44(sp)
    1f82:	02c020ef          	jal	ra,3fae <USART_Init>
    1f86:	4605                	li	a2,1
    1f88:	52500593          	li	a1,1317
    1f8c:	80040513          	addi	a0,s0,-2048
    1f90:	0c4020ef          	jal	ra,4054 <USART_ITConfig>
    1f94:	13700793          	li	a5,311
    1f98:	867c                	sh	a5,12(sp)
    1f9a:	4785                	li	a5,1
    1f9c:	875c                	sb	a5,14(sp)
    1f9e:	0068                	addi	a0,sp,12
    1fa0:	4785                	li	a5,1
    1fa2:	c83e                	sw	a5,16(sp)
    1fa4:	457010ef          	jal	ra,3bfa <NVIC_Init>
    1fa8:	4585                	li	a1,1
    1faa:	80040513          	addi	a0,s0,-2048
    1fae:	090020ef          	jal	ra,403e <USART_Cmd>
    1fb2:	0000c537          	lui	a0,0xc
    1fb6:	9d450513          	addi	a0,a0,-1580 # b9d4 <_read+0x128e>
    1fba:	6b4030ef          	jal	ra,566e <puts>
    1fbe:	6145                	addi	sp,sp,48
    1fc0:	a54fe06f          	j	214 <__riscv_restore_0>

00001fc4 <Print_Main_Header>:
    1fc4:	a2cfe2ef          	jal	t0,1f0 <__riscv_save_0>
    1fc8:	0000c537          	lui	a0,0xc
    1fcc:	dd050513          	addi	a0,a0,-560 # bdd0 <g_item_map+0x360>
    1fd0:	69e030ef          	jal	ra,566e <puts>
    1fd4:	0000b437          	lui	s0,0xb
    1fd8:	0b840513          	addi	a0,s0,184 # b0b8 <_read+0x972>
    1fdc:	692030ef          	jal	ra,566e <puts>
    1fe0:	0000b537          	lui	a0,0xb
    1fe4:	edc50513          	addi	a0,a0,-292 # aedc <_read+0x796>
    1fe8:	686030ef          	jal	ra,566e <puts>
    1fec:	80c1a583          	lw	a1,-2036(gp) # 200004e4 <SystemCoreClock>
    1ff0:	000f47b7          	lui	a5,0xf4
    1ff4:	24078793          	addi	a5,a5,576 # f4240 <_data_lma+0xe7954>
    1ff8:	02f5d5b3          	divu	a1,a1,a5
    1ffc:	0000b537          	lui	a0,0xb
    2000:	f2450513          	addi	a0,a0,-220 # af24 <_read+0x7de>
    2004:	51e030ef          	jal	ra,5522 <iprintf>
    2008:	0b840513          	addi	a0,s0,184
    200c:	662030ef          	jal	ra,566e <puts>
    2010:	0000b537          	lui	a0,0xb
    2014:	f6050513          	addi	a0,a0,-160 # af60 <_read+0x81a>
    2018:	656030ef          	jal	ra,566e <puts>
    201c:	0000b537          	lui	a0,0xb
    2020:	fa050513          	addi	a0,a0,-96 # afa0 <_read+0x85a>
    2024:	64a030ef          	jal	ra,566e <puts>
    2028:	0000b537          	lui	a0,0xb
    202c:	fe050513          	addi	a0,a0,-32 # afe0 <_read+0x89a>
    2030:	63e030ef          	jal	ra,566e <puts>
    2034:	0000b537          	lui	a0,0xb
    2038:	02050513          	addi	a0,a0,32 # b020 <_read+0x8da>
    203c:	632030ef          	jal	ra,566e <puts>
    2040:	0000b537          	lui	a0,0xb
    2044:	06050513          	addi	a0,a0,96 # b060 <_read+0x91a>
    2048:	626030ef          	jal	ra,566e <puts>
    204c:	0b840513          	addi	a0,s0,184
    2050:	61e030ef          	jal	ra,566e <puts>
    2054:	0000c537          	lui	a0,0xc
    2058:	ea450513          	addi	a0,a0,-348 # bea4 <g_item_map+0x434>
    205c:	612030ef          	jal	ra,566e <puts>
    2060:	9b4fe06f          	j	214 <__riscv_restore_0>

00002064 <USART1_SendString>:
    2064:	98cfe2ef          	jal	t0,1f0 <__riscv_save_0>
    2068:	400144b7          	lui	s1,0x40014
    206c:	842a                	mv	s0,a0
    206e:	80048493          	addi	s1,s1,-2048 # 40013800 <_eusrstack+0x2000b800>
    2072:	00040783          	lb	a5,0(s0)
    2076:	e399                	bnez	a5,207c <USART1_SendString+0x18>
    2078:	99cfe06f          	j	214 <__riscv_restore_0>
    207c:	08000593          	li	a1,128
    2080:	8526                	mv	a0,s1
    2082:	018020ef          	jal	ra,409a <USART_GetFlagStatus>
    2086:	d97d                	beqz	a0,207c <USART1_SendString+0x18>
    2088:	0405                	addi	s0,s0,1
    208a:	fff44583          	lbu	a1,-1(s0)
    208e:	8526                	mv	a0,s1
    2090:	7fb010ef          	jal	ra,408a <USART_SendData>
    2094:	bff9                	j	2072 <USART1_SendString+0xe>

00002096 <CalculateTotalPrice>:
    2096:	92afe2ef          	jal	t0,1c0 <__riscv_save_12>
    209a:	1101                	addi	sp,sp,-32
    209c:	65a9                	lui	a1,0xa
    209e:	4641                	li	a2,16
    20a0:	75858593          	addi	a1,a1,1880 # a758 <_read+0x12>
    20a4:	0808                	addi	a0,sp,16
    20a6:	3ca030ef          	jal	ra,5470 <memcpy>
    20aa:	8081cc83          	lbu	s9,-2040(gp) # 200004e0 <g_price_count>
    20ae:	0000b7b7          	lui	a5,0xb
    20b2:	c8c7a783          	lw	a5,-884(a5) # ac8c <_read+0x546>
    20b6:	20000ab7          	lui	s5,0x20000
    20ba:	fb018413          	addi	s0,gp,-80 # 20000c88 <g_items>
    20be:	4481                	li	s1,0
    20c0:	4b81                	li	s7,0
    20c2:	000a8993          	mv	s3,s5
    20c6:	02010d93          	addi	s11,sp,32
    20ca:	02200a13          	li	s4,34
    20ce:	27c18913          	addi	s2,gp,636 # 20000f54 <g_weights>
    20d2:	c43e                	sw	a5,8(sp)
    20d4:	4d11                	li	s10,4
    20d6:	04c44783          	lbu	a5,76(s0)
    20da:	cb91                	beqz	a5,20ee <CalculateTotalPrice+0x58>
    20dc:	01440b13          	addi	s6,s0,20
    20e0:	000a8613          	mv	a2,s5
    20e4:	4681                	li	a3,0
    20e6:	0ff6f793          	andi	a5,a3,255
    20ea:	0197eb63          	bltu	a5,s9,2100 <CalculateTotalPrice+0x6a>
    20ee:	0485                	addi	s1,s1,1
    20f0:	05040413          	addi	s0,s0,80
    20f4:	ffa491e3          	bne	s1,s10,20d6 <CalculateTotalPrice+0x40>
    20f8:	855e                	mv	a0,s7
    20fa:	6105                	addi	sp,sp,32
    20fc:	900fe06f          	j	1fc <__riscv_restore_12>
    2100:	85b2                	mv	a1,a2
    2102:	855a                	mv	a0,s6
    2104:	8c36                	mv	s8,a3
    2106:	c632                	sw	a2,12(sp)
    2108:	9c0fe0ef          	jal	ra,2c8 <strcmp>
    210c:	4632                	lw	a2,12(sp)
    210e:	001c0693          	addi	a3,s8,1
    2112:	02260613          	addi	a2,a2,34
    2116:	f961                	bnez	a0,20e6 <CalculateTotalPrice+0x50>
    2118:	0814                	addi	a3,sp,16
    211a:	428c                	lw	a1,0(a3)
    211c:	855a                	mv	a0,s6
    211e:	c636                	sw	a3,12(sp)
    2120:	9a8fe0ef          	jal	ra,2c8 <strcmp>
    2124:	c91d                	beqz	a0,215a <CalculateTotalPrice+0xc4>
    2126:	46b2                	lw	a3,12(sp)
    2128:	0691                	addi	a3,a3,4
    212a:	ffb698e3          	bne	a3,s11,211a <CalculateTotalPrice+0x84>
    212e:	47b1                	li	a5,12
    2130:	02f48b33          	mul	s6,s1,a5
    2134:	034c07b3          	mul	a5,s8,s4
    2138:	9b4a                	add	s6,s6,s2
    213a:	97ce                	add	a5,a5,s3
    213c:	338a                	lhu	a0,32(a5)
    213e:	7bf020ef          	jal	ra,50fc <__floatsisf>
    2142:	000b2583          	lw	a1,0(s6)
    2146:	0e3020ef          	jal	ra,4a28 <__mulsf3>
    214a:	45a2                	lw	a1,8(sp)
    214c:	4bc020ef          	jal	ra,4608 <__divsf3>
    2150:	757020ef          	jal	ra,50a6 <__fixunssfsi>
    2154:	9baa                	add	s7,s7,a0
    2156:	0bc2                	slli	s7,s7,0x10
    2158:	a809                	j	216a <CalculateTotalPrice+0xd4>
    215a:	034c07b3          	mul	a5,s8,s4
    215e:	97ce                	add	a5,a5,s3
    2160:	338a                	lhu	a0,32(a5)
    2162:	00ab8733          	add	a4,s7,a0
    2166:	01071b93          	slli	s7,a4,0x10
    216a:	010bdb93          	srli	s7,s7,0x10
    216e:	b741                	j	20ee <CalculateTotalPrice+0x58>

00002170 <Send_Merged_Data_To_Screen>:
    2170:	87d1c783          	lbu	a5,-1923(gp) # 20000555 <show_success_page>
    2174:	0ff7f793          	andi	a5,a5,255
    2178:	34079963          	bnez	a5,24ca <Send_Merged_Data_To_Screen+0x35a>
    217c:	87c1c783          	lbu	a5,-1924(gp) # 20000554 <show_fail_page>
    2180:	0ff7f793          	andi	a5,a5,255
    2184:	34079363          	bnez	a5,24ca <Send_Merged_Data_To_Screen+0x35a>
    2188:	838fe2ef          	jal	t0,1c0 <__riscv_save_12>
    218c:	80718793          	addi	a5,gp,-2041 # 200004df <first_send.6299>
    2190:	2398                	lbu	a4,0(a5)
    2192:	7139                	addi	sp,sp,-64
    2194:	c319                	beqz	a4,219a <Send_Merged_Data_To_Screen+0x2a>
    2196:	00078023          	sb	zero,0(a5)
    219a:	fb018693          	addi	a3,gp,-80 # 20000c88 <g_items>
    219e:	fb018613          	addi	a2,gp,-80 # 20000c88 <g_items>
    21a2:	4781                	li	a5,0
    21a4:	4701                	li	a4,0
    21a6:	fb018413          	addi	s0,gp,-80 # 20000c88 <g_items>
    21aa:	4591                	li	a1,4
    21ac:	04c64503          	lbu	a0,76(a2)
    21b0:	c909                	beqz	a0,21c2 <Send_Merged_Data_To_Screen+0x52>
    21b2:	0084                	addi	s1,sp,64
    21b4:	00178513          	addi	a0,a5,1
    21b8:	97a6                	add	a5,a5,s1
    21ba:	fce78e23          	sb	a4,-36(a5)
    21be:	0ff57793          	andi	a5,a0,255
    21c2:	0705                	addi	a4,a4,1
    21c4:	05060613          	addi	a2,a2,80
    21c8:	feb712e3          	bne	a4,a1,21ac <Send_Merged_Data_To_Screen+0x3c>
    21cc:	4701                	li	a4,0
    21ce:	4611                	li	a2,4
    21d0:	04c6c583          	lbu	a1,76(a3)
    21d4:	e989                	bnez	a1,21e6 <Send_Merged_Data_To_Screen+0x76>
    21d6:	0088                	addi	a0,sp,64
    21d8:	00178593          	addi	a1,a5,1
    21dc:	97aa                	add	a5,a5,a0
    21de:	fce78e23          	sb	a4,-36(a5)
    21e2:	0ff5f793          	andi	a5,a1,255
    21e6:	0705                	addi	a4,a4,1
    21e8:	05068693          	addi	a3,a3,80
    21ec:	fec712e3          	bne	a4,a2,21d0 <Send_Merged_Data_To_Screen+0x60>
    21f0:	4901                	li	s2,0
    21f2:	0000cab7          	lui	s5,0xc
    21f6:	05000b13          	li	s6,80
    21fa:	0000ca37          	lui	s4,0xc
    21fe:	4991                	li	s3,4
    2200:	087c                	addi	a5,sp,28
    2202:	97ca                	add	a5,a5,s2
    2204:	00290613          	addi	a2,s2,2
    2208:	8c8a8593          	addi	a1,s5,-1848 # b8c8 <_read+0x1182>
    220c:	1008                	addi	a0,sp,32
    220e:	2384                	lbu	s1,0(a5)
    2210:	46a030ef          	jal	ra,567a <siprintf>
    2214:	1008                	addi	a0,sp,32
    2216:	80bff0ef          	jal	ra,1a20 <UART4_SendString>
    221a:	03648533          	mul	a0,s1,s6
    221e:	00a407b3          	add	a5,s0,a0
    2222:	04c7c783          	lbu	a5,76(a5)
    2226:	c799                	beqz	a5,2234 <Send_Merged_Data_To_Screen+0xc4>
    2228:	0551                	addi	a0,a0,20
    222a:	9522                	add	a0,a0,s0
    222c:	b03ff0ef          	jal	ra,1d2e <Get_Chinese_Name>
    2230:	ff0ff0ef          	jal	ra,1a20 <UART4_SendString>
    2234:	8d8a0513          	addi	a0,s4,-1832 # b8d8 <_read+0x1192>
    2238:	fe8ff0ef          	jal	ra,1a20 <UART4_SendString>
    223c:	0ff00513          	li	a0,255
    2240:	fb8ff0ef          	jal	ra,19f8 <UART4_SendByte>
    2244:	0ff00513          	li	a0,255
    2248:	fb0ff0ef          	jal	ra,19f8 <UART4_SendByte>
    224c:	0ff00513          	li	a0,255
    2250:	fa8ff0ef          	jal	ra,19f8 <UART4_SendByte>
    2254:	03200513          	li	a0,50
    2258:	0905                	addi	s2,s2,1
    225a:	7a7010ef          	jal	ra,4200 <Delay_Ms>
    225e:	fb3911e3          	bne	s2,s3,2200 <Send_Merged_Data_To_Screen+0x90>
    2262:	0000b7b7          	lui	a5,0xb
    2266:	b707ab03          	lw	s6,-1168(a5) # ab70 <_read+0x42a>
    226a:	4481                	li	s1,0
    226c:	05000993          	li	s3,80
    2270:	0000ca37          	lui	s4,0xc
    2274:	27c18913          	addi	s2,gp,636 # 20000f54 <g_weights>
    2278:	4ab1                	li	s5,12
    227a:	0000cbb7          	lui	s7,0xc
    227e:	087c                	addi	a5,sp,28
    2280:	97a6                	add	a5,a5,s1
    2282:	239c                	lbu	a5,0(a5)
    2284:	01248613          	addi	a2,s1,18
    2288:	03378733          	mul	a4,a5,s3
    228c:	9722                	add	a4,a4,s0
    228e:	04c74703          	lbu	a4,76(a4)
    2292:	cf5d                	beqz	a4,2350 <Send_Merged_Data_To_Screen+0x1e0>
    2294:	035787b3          	mul	a5,a5,s5
    2298:	85da                	mv	a1,s6
    229a:	c432                	sw	a2,8(sp)
    229c:	97ca                	add	a5,a5,s2
    229e:	0007ac03          	lw	s8,0(a5)
    22a2:	8562                	mv	a0,s8
    22a4:	784020ef          	jal	ra,4a28 <__mulsf3>
    22a8:	59d020ef          	jal	ra,5044 <__fixsfsi>
    22ac:	4729                	li	a4,10
    22ae:	02e56733          	rem	a4,a0,a4
    22b2:	8562                	mv	a0,s8
    22b4:	c23a                	sw	a4,4(sp)
    22b6:	58f020ef          	jal	ra,5044 <__fixsfsi>
    22ba:	4712                	lw	a4,4(sp)
    22bc:	4622                	lw	a2,8(sp)
    22be:	86aa                	mv	a3,a0
    22c0:	8dcb8593          	addi	a1,s7,-1828 # b8dc <_read+0x1196>
    22c4:	1008                	addi	a0,sp,32
    22c6:	3b4030ef          	jal	ra,567a <siprintf>
    22ca:	1008                	addi	a0,sp,32
    22cc:	f54ff0ef          	jal	ra,1a20 <UART4_SendString>
    22d0:	0ff00513          	li	a0,255
    22d4:	f24ff0ef          	jal	ra,19f8 <UART4_SendByte>
    22d8:	0ff00513          	li	a0,255
    22dc:	f1cff0ef          	jal	ra,19f8 <UART4_SendByte>
    22e0:	0ff00513          	li	a0,255
    22e4:	f14ff0ef          	jal	ra,19f8 <UART4_SendByte>
    22e8:	4579                	li	a0,30
    22ea:	717010ef          	jal	ra,4200 <Delay_Ms>
    22ee:	0485                	addi	s1,s1,1
    22f0:	4791                	li	a5,4
    22f2:	f8f496e3          	bne	s1,a5,227e <Send_Merged_Data_To_Screen+0x10e>
    22f6:	200009b7          	lui	s3,0x20000
    22fa:	4901                	li	s2,0
    22fc:	05000a93          	li	s5,80
    2300:	0000cb37          	lui	s6,0xc
    2304:	00098c13          	mv	s8,s3
    2308:	02200c93          	li	s9,34
    230c:	06400a13          	li	s4,100
    2310:	0000cd37          	lui	s10,0xc
    2314:	087c                	addi	a5,sp,28
    2316:	97ca                	add	a5,a5,s2
    2318:	2388                	lbu	a0,0(a5)
    231a:	03550533          	mul	a0,a0,s5
    231e:	00a407b3          	add	a5,s0,a0
    2322:	04c7c783          	lbu	a5,76(a5)
    2326:	cf89                	beqz	a5,2340 <Send_Merged_Data_To_Screen+0x1d0>
    2328:	8081c603          	lbu	a2,-2040(gp) # 200004e0 <g_price_count>
    232c:	0551                	addi	a0,a0,20
    232e:	00a404b3          	add	s1,s0,a0
    2332:	00098713          	mv	a4,s3
    2336:	4781                	li	a5,0
    2338:	0ff7f693          	andi	a3,a5,255
    233c:	02c6e063          	bltu	a3,a2,235c <Send_Merged_Data_To_Screen+0x1ec>
    2340:	00a90613          	addi	a2,s2,10
    2344:	91cb0593          	addi	a1,s6,-1764 # b91c <_read+0x11d6>
    2348:	1008                	addi	a0,sp,32
    234a:	330030ef          	jal	ra,567a <siprintf>
    234e:	a0b1                	j	239a <Send_Merged_Data_To_Screen+0x22a>
    2350:	8f4a0593          	addi	a1,s4,-1804 # b8f4 <_read+0x11ae>
    2354:	1008                	addi	a0,sp,32
    2356:	324030ef          	jal	ra,567a <siprintf>
    235a:	bf85                	j	22ca <Send_Merged_Data_To_Screen+0x15a>
    235c:	85ba                	mv	a1,a4
    235e:	8526                	mv	a0,s1
    2360:	c632                	sw	a2,12(sp)
    2362:	8dbe                	mv	s11,a5
    2364:	c43e                	sw	a5,8(sp)
    2366:	c23a                	sw	a4,4(sp)
    2368:	f61fd0ef          	jal	ra,2c8 <strcmp>
    236c:	47a2                	lw	a5,8(sp)
    236e:	4712                	lw	a4,4(sp)
    2370:	4632                	lw	a2,12(sp)
    2372:	0785                	addi	a5,a5,1
    2374:	02270713          	addi	a4,a4,34
    2378:	f161                	bnez	a0,2338 <Send_Merged_Data_To_Screen+0x1c8>
    237a:	039d8db3          	mul	s11,s11,s9
    237e:	00a90613          	addi	a2,s2,10
    2382:	904d0593          	addi	a1,s10,-1788 # b904 <_read+0x11be>
    2386:	1008                	addi	a0,sp,32
    2388:	9de2                	add	s11,s11,s8
    238a:	020dd683          	lhu	a3,32(s11)
    238e:	0346f733          	remu	a4,a3,s4
    2392:	0346d6b3          	divu	a3,a3,s4
    2396:	2e4030ef          	jal	ra,567a <siprintf>
    239a:	1008                	addi	a0,sp,32
    239c:	e84ff0ef          	jal	ra,1a20 <UART4_SendString>
    23a0:	0ff00513          	li	a0,255
    23a4:	e54ff0ef          	jal	ra,19f8 <UART4_SendByte>
    23a8:	0ff00513          	li	a0,255
    23ac:	e4cff0ef          	jal	ra,19f8 <UART4_SendByte>
    23b0:	0ff00513          	li	a0,255
    23b4:	e44ff0ef          	jal	ra,19f8 <UART4_SendByte>
    23b8:	4579                	li	a0,30
    23ba:	647010ef          	jal	ra,4200 <Delay_Ms>
    23be:	0905                	addi	s2,s2,1
    23c0:	4791                	li	a5,4
    23c2:	f4f919e3          	bne	s2,a5,2314 <Send_Merged_Data_To_Screen+0x1a4>
    23c6:	65a9                	lui	a1,0xa
    23c8:	4641                	li	a2,16
    23ca:	75858593          	addi	a1,a1,1880 # a758 <_read+0x12>
    23ce:	1808                	addi	a0,sp,48
    23d0:	0a0030ef          	jal	ra,5470 <memcpy>
    23d4:	4901                	li	s2,0
    23d6:	0000ca37          	lui	s4,0xc
    23da:	05000a93          	li	s5,80
    23de:	0000cbb7          	lui	s7,0xc
    23e2:	04010c13          	addi	s8,sp,64
    23e6:	0000ccb7          	lui	s9,0xc
    23ea:	0000c9b7          	lui	s3,0xc
    23ee:	4b11                	li	s6,4
    23f0:	087c                	addi	a5,sp,28
    23f2:	97ca                	add	a5,a5,s2
    23f4:	92ca0513          	addi	a0,s4,-1748 # b92c <_read+0x11e6>
    23f8:	2384                	lbu	s1,0(a5)
    23fa:	e26ff0ef          	jal	ra,1a20 <UART4_SendString>
    23fe:	03690513          	addi	a0,s2,54
    2402:	0ff57513          	andi	a0,a0,255
    2406:	df2ff0ef          	jal	ra,19f8 <UART4_SendByte>
    240a:	03548533          	mul	a0,s1,s5
    240e:	00a407b3          	add	a5,s0,a0
    2412:	04c7c783          	lbu	a5,76(a5)
    2416:	c395                	beqz	a5,243a <Send_Merged_Data_To_Screen+0x2ca>
    2418:	0551                	addi	a0,a0,20
    241a:	00a404b3          	add	s1,s0,a0
    241e:	03010d13          	addi	s10,sp,48
    2422:	000d2583          	lw	a1,0(s10)
    2426:	8526                	mv	a0,s1
    2428:	ea1fd0ef          	jal	ra,2c8 <strcmp>
    242c:	cd41                	beqz	a0,24c4 <Send_Merged_Data_To_Screen+0x354>
    242e:	0d11                	addi	s10,s10,4
    2430:	ffac19e3          	bne	s8,s10,2422 <Send_Merged_Data_To_Screen+0x2b2>
    2434:	96498513          	addi	a0,s3,-1692 # b964 <_read+0x121e>
    2438:	a019                	j	243e <Send_Merged_Data_To_Screen+0x2ce>
    243a:	934b8513          	addi	a0,s7,-1740 # b934 <_read+0x11ee>
    243e:	de2ff0ef          	jal	ra,1a20 <UART4_SendString>
    2442:	0ff00513          	li	a0,255
    2446:	db2ff0ef          	jal	ra,19f8 <UART4_SendByte>
    244a:	0ff00513          	li	a0,255
    244e:	daaff0ef          	jal	ra,19f8 <UART4_SendByte>
    2452:	0ff00513          	li	a0,255
    2456:	da2ff0ef          	jal	ra,19f8 <UART4_SendByte>
    245a:	4579                	li	a0,30
    245c:	0905                	addi	s2,s2,1
    245e:	5a3010ef          	jal	ra,4200 <Delay_Ms>
    2462:	f96917e3          	bne	s2,s6,23f0 <Send_Merged_Data_To_Screen+0x280>
    2466:	c31ff0ef          	jal	ra,2096 <CalculateTotalPrice>
    246a:	862a                	mv	a2,a0
    246c:	c119                	beqz	a0,2472 <Send_Merged_Data_To_Screen+0x302>
    246e:	84a19e23          	sh	a0,-1956(gp) # 20000534 <g_total_price>
    2472:	0000c537          	lui	a0,0xc
    2476:	94050513          	addi	a0,a0,-1728 # b940 <_read+0x11fa>
    247a:	c232                	sw	a2,4(sp)
    247c:	da4ff0ef          	jal	ra,1a20 <UART4_SendString>
    2480:	4612                	lw	a2,4(sp)
    2482:	0000c5b7          	lui	a1,0xc
    2486:	95058593          	addi	a1,a1,-1712 # b950 <_read+0x120a>
    248a:	1008                	addi	a0,sp,32
    248c:	1ee030ef          	jal	ra,567a <siprintf>
    2490:	1008                	addi	a0,sp,32
    2492:	d8eff0ef          	jal	ra,1a20 <UART4_SendString>
    2496:	0ff00513          	li	a0,255
    249a:	d5eff0ef          	jal	ra,19f8 <UART4_SendByte>
    249e:	0ff00513          	li	a0,255
    24a2:	d56ff0ef          	jal	ra,19f8 <UART4_SendByte>
    24a6:	0ff00513          	li	a0,255
    24aa:	d4eff0ef          	jal	ra,19f8 <UART4_SendByte>
    24ae:	03200513          	li	a0,50
    24b2:	54f010ef          	jal	ra,4200 <Delay_Ms>
    24b6:	06400513          	li	a0,100
    24ba:	547010ef          	jal	ra,4200 <Delay_Ms>
    24be:	6121                	addi	sp,sp,64
    24c0:	d3dfd06f          	j	1fc <__riscv_restore_12>
    24c4:	954c8513          	addi	a0,s9,-1708 # b954 <_read+0x120e>
    24c8:	bf9d                	j	243e <Send_Merged_Data_To_Screen+0x2ce>
    24ca:	8082                	ret

000024cc <Send_Price_To_Screen>:
    24cc:	cfdfd2ef          	jal	t0,1c8 <__riscv_save_10>
    24d0:	20000437          	lui	s0,0x20000
    24d4:	00040493          	mv	s1,s0
    24d8:	0000ca37          	lui	s4,0xc
    24dc:	7119                	addi	sp,sp,-128
    24de:	15448493          	addi	s1,s1,340
    24e2:	4901                	li	s2,0
    24e4:	00040413          	mv	s0,s0
    24e8:	0000ccb7          	lui	s9,0xc
    24ec:	0000cbb7          	lui	s7,0xc
    24f0:	4b19                	li	s6,6
    24f2:	8ad2                	mv	s5,s4
    24f4:	8526                	mv	a0,s1
    24f6:	839ff0ef          	jal	ra,1d2e <Get_Chinese_Name>
    24fa:	00190993          	addi	s3,s2,1
    24fe:	864e                	mv	a2,s3
    2500:	974c8593          	addi	a1,s9,-1676 # b974 <_read+0x122e>
    2504:	8c2a                	mv	s8,a0
    2506:	0028                	addi	a0,sp,8
    2508:	172030ef          	jal	ra,567a <siprintf>
    250c:	0028                	addi	a0,sp,8
    250e:	d12ff0ef          	jal	ra,1a20 <UART4_SendString>
    2512:	8562                	mv	a0,s8
    2514:	d0cff0ef          	jal	ra,1a20 <UART4_SendString>
    2518:	988a0513          	addi	a0,s4,-1656 # b988 <_read+0x1242>
    251c:	d04ff0ef          	jal	ra,1a20 <UART4_SendString>
    2520:	3096                	lhu	a3,32(s1)
    2522:	864a                	mv	a2,s2
    2524:	990b8593          	addi	a1,s7,-1648 # b990 <_read+0x124a>
    2528:	0028                	addi	a0,sp,8
    252a:	150030ef          	jal	ra,567a <siprintf>
    252e:	0028                	addi	a0,sp,8
    2530:	cf0ff0ef          	jal	ra,1a20 <UART4_SendString>
    2534:	02248493          	addi	s1,s1,34
    2538:	894e                	mv	s2,s3
    253a:	fb699de3          	bne	s3,s6,24f4 <Send_Price_To_Screen+0x28>
    253e:	22040413          	addi	s0,s0,544 # 20000220 <_data_vma+0x220>
    2542:	4481                	li	s1,0
    2544:	0000cbb7          	lui	s7,0xc
    2548:	0000ca37          	lui	s4,0xc
    254c:	4999                	li	s3,6
    254e:	8522                	mv	a0,s0
    2550:	fdeff0ef          	jal	ra,1d2e <Get_Chinese_Name>
    2554:	00148913          	addi	s2,s1,1
    2558:	864a                	mv	a2,s2
    255a:	9a8b8593          	addi	a1,s7,-1624 # b9a8 <_read+0x1262>
    255e:	8b2a                	mv	s6,a0
    2560:	0028                	addi	a0,sp,8
    2562:	118030ef          	jal	ra,567a <siprintf>
    2566:	0028                	addi	a0,sp,8
    2568:	cb8ff0ef          	jal	ra,1a20 <UART4_SendString>
    256c:	855a                	mv	a0,s6
    256e:	cb2ff0ef          	jal	ra,1a20 <UART4_SendString>
    2572:	988a8513          	addi	a0,s5,-1656
    2576:	caaff0ef          	jal	ra,1a20 <UART4_SendString>
    257a:	3016                	lhu	a3,32(s0)
    257c:	8626                	mv	a2,s1
    257e:	9bca0593          	addi	a1,s4,-1604 # b9bc <_read+0x1276>
    2582:	0028                	addi	a0,sp,8
    2584:	0f6030ef          	jal	ra,567a <siprintf>
    2588:	0028                	addi	a0,sp,8
    258a:	c96ff0ef          	jal	ra,1a20 <UART4_SendString>
    258e:	02240413          	addi	s0,s0,34
    2592:	84ca                	mv	s1,s2
    2594:	fb391de3          	bne	s2,s3,254e <Send_Price_To_Screen+0x82>
    2598:	6109                	addi	sp,sp,128
    259a:	c67fd06f          	j	200 <__riscv_restore_10>

0000259e <Send_Breakfast_To_Screen>:
    259e:	c2bfd2ef          	jal	t0,1c8 <__riscv_save_10>
    25a2:	200004b7          	lui	s1,0x20000
    25a6:	7119                	addi	sp,sp,-128
    25a8:	00048493          	mv	s1,s1
    25ac:	4401                	li	s0,0
    25ae:	0000c9b7          	lui	s3,0xc
    25b2:	0000ca37          	lui	s4,0xc
    25b6:	0000cab7          	lui	s5,0xc
    25ba:	4b29                	li	s6,10
    25bc:	8081c703          	lbu	a4,-2040(gp) # 200004e0 <g_price_count>
    25c0:	0ff47793          	andi	a5,s0,255
    25c4:	04e7f563          	bgeu	a5,a4,260e <Send_Breakfast_To_Screen+0x70>
    25c8:	8526                	mv	a0,s1
    25ca:	f64ff0ef          	jal	ra,1d2e <Get_Chinese_Name>
    25ce:	0405                	addi	s0,s0,1
    25d0:	8622                	mv	a2,s0
    25d2:	89898593          	addi	a1,s3,-1896 # b898 <_read+0x1152>
    25d6:	8baa                	mv	s7,a0
    25d8:	0028                	addi	a0,sp,8
    25da:	0a0030ef          	jal	ra,567a <siprintf>
    25de:	0028                	addi	a0,sp,8
    25e0:	c40ff0ef          	jal	ra,1a20 <UART4_SendString>
    25e4:	855e                	mv	a0,s7
    25e6:	c3aff0ef          	jal	ra,1a20 <UART4_SendString>
    25ea:	988a0513          	addi	a0,s4,-1656 # b988 <_read+0x1242>
    25ee:	c32ff0ef          	jal	ra,1a20 <UART4_SendString>
    25f2:	3096                	lhu	a3,32(s1)
    25f4:	8622                	mv	a2,s0
    25f6:	8aca8593          	addi	a1,s5,-1876 # b8ac <_read+0x1166>
    25fa:	0028                	addi	a0,sp,8
    25fc:	07e030ef          	jal	ra,567a <siprintf>
    2600:	0028                	addi	a0,sp,8
    2602:	c1eff0ef          	jal	ra,1a20 <UART4_SendString>
    2606:	02248493          	addi	s1,s1,34 # 20000022 <_data_vma+0x22>
    260a:	fb6419e3          	bne	s0,s6,25bc <Send_Breakfast_To_Screen+0x1e>
    260e:	6109                	addi	sp,sp,128
    2610:	bf1fd06f          	j	200 <__riscv_restore_10>

00002614 <InitNewCard>:
    2614:	bc3fd2ef          	jal	t0,1d6 <__riscv_save_4>
    2618:	84aa                	mv	s1,a0
    261a:	0000b537          	lui	a0,0xb
    261e:	7135                	addi	sp,sp,-160
    2620:	d2850513          	addi	a0,a0,-728 # ad28 <_read+0x5e2>
    2624:	842e                	mv	s0,a1
    2626:	bfaff0ef          	jal	ra,1a20 <UART4_SendString>
    262a:	30bc                	lbu	a5,3(s1)
    262c:	20b8                	lbu	a4,2(s1)
    262e:	3094                	lbu	a3,1(s1)
    2630:	2090                	lbu	a2,0(s1)
    2632:	0000b5b7          	lui	a1,0xb
    2636:	d5858593          	addi	a1,a1,-680 # ad58 <_read+0x612>
    263a:	1008                	addi	a0,sp,32
    263c:	03e030ef          	jal	ra,567a <siprintf>
    2640:	1008                	addi	a0,sp,32
    2642:	bdeff0ef          	jal	ra,1a20 <UART4_SendString>
    2646:	4495                	li	s1,5
    2648:	02600913          	li	s2,38
    264c:	002c                	addi	a1,sp,8
    264e:	05200513          	li	a0,82
    2652:	cd1fe0ef          	jal	ra,1322 <PcdRequest>
    2656:	13250a63          	beq	a0,s2,278a <InitNewCard+0x176>
    265a:	06400513          	li	a0,100
    265e:	14fd                	addi	s1,s1,-1
    2660:	3a1010ef          	jal	ra,4200 <Delay_Ms>
    2664:	f4e5                	bnez	s1,264c <InitNewCard+0x38>
    2666:	0000b537          	lui	a0,0xb
    266a:	e2850513          	addi	a0,a0,-472 # ae28 <_read+0x6e2>
    266e:	a029                	j	2678 <InitNewCard+0x64>
    2670:	0000b537          	lui	a0,0xb
    2674:	d7c50513          	addi	a0,a0,-644 # ad7c <_read+0x636>
    2678:	ba8ff0ef          	jal	ra,1a20 <UART4_SendString>
    267c:	a065                	j	2724 <InitNewCard+0x110>
    267e:	200009b7          	lui	s3,0x20000
    2682:	448d                	li	s1,3
    2684:	02600a13          	li	s4,38
    2688:	894e                	mv	s2,s3
    268a:	0074                	addi	a3,sp,12
    268c:	4d898613          	addi	a2,s3,1240 # 200004d8 <Default_Key>
    2690:	45d1                	li	a1,20
    2692:	06000513          	li	a0,96
    2696:	e71fe0ef          	jal	ra,1506 <PcdAuthState>
    269a:	09450863          	beq	a0,s4,272a <InitNewCard+0x116>
    269e:	03200513          	li	a0,50
    26a2:	14fd                	addi	s1,s1,-1
    26a4:	35d010ef          	jal	ra,4200 <Delay_Ms>
    26a8:	f0ed                	bnez	s1,268a <InitNewCard+0x76>
    26aa:	0000b537          	lui	a0,0xb
    26ae:	dec50513          	addi	a0,a0,-532 # adec <_read+0x6a6>
    26b2:	b7d9                	j	2678 <InitNewCard+0x64>
    26b4:	0000b537          	lui	a0,0xb
    26b8:	db450513          	addi	a0,a0,-588 # adb4 <_read+0x66e>
    26bc:	a891                	j	2710 <InitNewCard+0xfc>
    26be:	03200513          	li	a0,50
    26c2:	147d                	addi	s0,s0,-1
    26c4:	33d010ef          	jal	ra,4200 <Delay_Ms>
    26c8:	c431                	beqz	s0,2714 <InitNewCard+0x100>
    26ca:	0074                	addi	a3,sp,12
    26cc:	4d890613          	addi	a2,s2,1240
    26d0:	45c1                	li	a1,16
    26d2:	06000513          	li	a0,96
    26d6:	e31fe0ef          	jal	ra,1506 <PcdAuthState>
    26da:	fe9512e3          	bne	a0,s1,26be <InitNewCard+0xaa>
    26de:	6785                	lui	a5,0x1
    26e0:	c802                	sw	zero,16(sp)
    26e2:	02778793          	addi	a5,a5,39 # 1027 <RC522_Init+0x3f>
    26e6:	080c                	addi	a1,sp,16
    26e8:	4541                	li	a0,16
    26ea:	ca02                	sw	zero,20(sp)
    26ec:	cc02                	sw	zero,24(sp)
    26ee:	ce02                	sw	zero,28(sp)
    26f0:	81fc                	sh	a5,18(sp)
    26f2:	e7ffe0ef          	jal	ra,1570 <PcdWrite>
    26f6:	fa951fe3          	bne	a0,s1,26b4 <InitNewCard+0xa0>
    26fa:	6609                	lui	a2,0x2
    26fc:	0000b5b7          	lui	a1,0xb
    2700:	71060613          	addi	a2,a2,1808 # 2710 <InitNewCard+0xfc>
    2704:	d9458593          	addi	a1,a1,-620 # ad94 <_read+0x64e>
    2708:	1008                	addi	a0,sp,32
    270a:	771020ef          	jal	ra,567a <siprintf>
    270e:	1008                	addi	a0,sp,32
    2710:	b10ff0ef          	jal	ra,1a20 <UART4_SendString>
    2714:	0000b537          	lui	a0,0xb
    2718:	dcc50513          	addi	a0,a0,-564 # adcc <_read+0x686>
    271c:	b04ff0ef          	jal	ra,1a20 <UART4_SendString>
    2720:	f3ffe0ef          	jal	ra,165e <PcdHalt>
    2724:	610d                	addi	sp,sp,160
    2726:	ae5fd06f          	j	20a <__riscv_restore_4>
    272a:	201e                	lhu	a5,0(s0)
    272c:	4631                	li	a2,12
    272e:	00440593          	addi	a1,s0,4
    2732:	00879713          	slli	a4,a5,0x8
    2736:	83a1                	srli	a5,a5,0x8
    2738:	8f5d                	or	a4,a4,a5
    273a:	401c                	lw	a5,0(s0)
    273c:	0848                	addi	a0,sp,20
    273e:	81f8                	sh	a4,18(sp)
    2740:	0187d693          	srli	a3,a5,0x18
    2744:	83c1                	srli	a5,a5,0x10
    2746:	00d10823          	sb	a3,16(sp)
    274a:	00f108a3          	sb	a5,17(sp)
    274e:	523020ef          	jal	ra,5470 <memcpy>
    2752:	080c                	addi	a1,sp,16
    2754:	4551                	li	a0,20
    2756:	e1bfe0ef          	jal	ra,1570 <PcdWrite>
    275a:	4639                	li	a2,14
    275c:	4581                	li	a1,0
    275e:	01210513          	addi	a0,sp,18
    2762:	abffd0ef          	jal	ra,220 <memset>
    2766:	281c                	lbu	a5,16(s0)
    2768:	080c                	addi	a1,sp,16
    276a:	4555                	li	a0,21
    276c:	00f10823          	sb	a5,16(sp)
    2770:	283e                	lhu	a5,18(s0)
    2772:	02600493          	li	s1,38
    2776:	440d                	li	s0,3
    2778:	0087d713          	srli	a4,a5,0x8
    277c:	00e108a3          	sb	a4,17(sp)
    2780:	00f10923          	sb	a5,18(sp)
    2784:	dedfe0ef          	jal	ra,1570 <PcdWrite>
    2788:	b789                	j	26ca <InitNewCard+0xb6>
    278a:	0068                	addi	a0,sp,12
    278c:	be7fe0ef          	jal	ra,1372 <PcdAnticoll>
    2790:	ef2510e3          	bne	a0,s2,2670 <InitNewCard+0x5c>
    2794:	4495                	li	s1,5
    2796:	02600913          	li	s2,38
    279a:	0068                	addi	a0,sp,12
    279c:	cdbfe0ef          	jal	ra,1476 <PcdSelect>
    27a0:	ed250fe3          	beq	a0,s2,267e <InitNewCard+0x6a>
    27a4:	03200513          	li	a0,50
    27a8:	14fd                	addi	s1,s1,-1
    27aa:	257010ef          	jal	ra,4200 <Delay_Ms>
    27ae:	f4f5                	bnez	s1,279a <InitNewCard+0x186>
    27b0:	0000b537          	lui	a0,0xb
    27b4:	e1050513          	addi	a0,a0,-496 # ae10 <_read+0x6ca>
    27b8:	b5c1                	j	2678 <InitNewCard+0x64>

000027ba <ReadUserInfoFromCard>:
    27ba:	a1dfd2ef          	jal	t0,1d6 <__riscv_save_4>
    27be:	050a                	slli	a0,a0,0x2
    27c0:	1141                	addi	sp,sp,-16
    27c2:	8a2e                	mv	s4,a1
    27c4:	84b2                	mv	s1,a2
    27c6:	0ff57413          	andi	s0,a0,255
    27ca:	490d                	li	s2,3
    27cc:	20000ab7          	lui	s5,0x20000
    27d0:	02600993          	li	s3,38
    27d4:	86d2                	mv	a3,s4
    27d6:	4d8a8613          	addi	a2,s5,1240 # 200004d8 <Default_Key>
    27da:	85a2                	mv	a1,s0
    27dc:	06000513          	li	a0,96
    27e0:	d27fe0ef          	jal	ra,1506 <PcdAuthState>
    27e4:	09350863          	beq	a0,s3,2874 <ReadUserInfoFromCard+0xba>
    27e8:	197d                	addi	s2,s2,-1
    27ea:	4551                	li	a0,20
    27ec:	0ff97913          	andi	s2,s2,255
    27f0:	211010ef          	jal	ra,4200 <Delay_Ms>
    27f4:	fe0910e3          	bnez	s2,27d4 <ReadUserInfoFromCard+0x1a>
    27f8:	0000c537          	lui	a0,0xc
    27fc:	87850513          	addi	a0,a0,-1928 # b878 <_read+0x1132>
    2800:	a061                	j	2888 <ReadUserInfoFromCard+0xce>
    2802:	801c                	lbu	a5,0(sp)
    2804:	8098                	lbu	a4,1(sp)
    2806:	07e2                	slli	a5,a5,0x18
    2808:	0742                	slli	a4,a4,0x10
    280a:	8fd9                	or	a5,a5,a4
    280c:	8198                	lbu	a4,3(sp)
    280e:	8fd9                	or	a5,a5,a4
    2810:	8118                	lbu	a4,2(sp)
    2812:	0722                	slli	a4,a4,0x8
    2814:	8fd9                	or	a5,a5,a4
    2816:	e791                	bnez	a5,2822 <ReadUserInfoFromCard+0x68>
    2818:	0000c537          	lui	a0,0xc
    281c:	83050513          	addi	a0,a0,-2000 # b830 <_read+0x10ea>
    2820:	a0a5                	j	2888 <ReadUserInfoFromCard+0xce>
    2822:	004c                	addi	a1,sp,4
    2824:	c09c                	sw	a5,0(s1)
    2826:	4631                	li	a2,12
    2828:	00448513          	addi	a0,s1,4
    282c:	445020ef          	jal	ra,5470 <memcpy>
    2830:	00140513          	addi	a0,s0,1
    2834:	000487a3          	sb	zero,15(s1)
    2838:	858a                	mv	a1,sp
    283a:	0ff57513          	andi	a0,a0,255
    283e:	dc5fe0ef          	jal	ra,1602 <PcdRead>
    2842:	01350763          	beq	a0,s3,2850 <ReadUserInfoFromCard+0x96>
    2846:	0000c537          	lui	a0,0xc
    284a:	85850513          	addi	a0,a0,-1960 # b858 <_read+0x1112>
    284e:	a82d                	j	2888 <ReadUserInfoFromCard+0xce>
    2850:	801c                	lbu	a5,0(sp)
    2852:	8118                	lbu	a4,2(sp)
    2854:	4615                	li	a2,5
    2856:	a89c                	sb	a5,16(s1)
    2858:	809c                	lbu	a5,1(sp)
    285a:	00310593          	addi	a1,sp,3
    285e:	01448513          	addi	a0,s1,20
    2862:	07a2                	slli	a5,a5,0x8
    2864:	8fd9                	or	a5,a5,a4
    2866:	a8be                	sh	a5,18(s1)
    2868:	409020ef          	jal	ra,5470 <memcpy>
    286c:	4505                	li	a0,1
    286e:	0141                	addi	sp,sp,16
    2870:	99bfd06f          	j	20a <__riscv_restore_4>
    2874:	858a                	mv	a1,sp
    2876:	8522                	mv	a0,s0
    2878:	d8bfe0ef          	jal	ra,1602 <PcdRead>
    287c:	f93503e3          	beq	a0,s3,2802 <ReadUserInfoFromCard+0x48>
    2880:	0000c537          	lui	a0,0xc
    2884:	81850513          	addi	a0,a0,-2024 # b818 <_read+0x10d2>
    2888:	998ff0ef          	jal	ra,1a20 <UART4_SendString>
    288c:	4501                	li	a0,0
    288e:	b7c5                	j	286e <ReadUserInfoFromCard+0xb4>

00002890 <DisplayUserInfo>:
    2890:	961fd2ef          	jal	t0,1f0 <__riscv_save_0>
    2894:	842a                	mv	s0,a0
    2896:	0000b537          	lui	a0,0xb
    289a:	7139                	addi	sp,sp,-64
    289c:	cb450513          	addi	a0,a0,-844 # acb4 <_read+0x56e>
    28a0:	980ff0ef          	jal	ra,1a20 <UART4_SendString>
    28a4:	4010                	lw	a2,0(s0)
    28a6:	0000b5b7          	lui	a1,0xb
    28aa:	cdc58593          	addi	a1,a1,-804 # acdc <_read+0x596>
    28ae:	850a                	mv	a0,sp
    28b0:	5cb020ef          	jal	ra,567a <siprintf>
    28b4:	850a                	mv	a0,sp
    28b6:	96aff0ef          	jal	ra,1a20 <UART4_SendString>
    28ba:	0000b5b7          	lui	a1,0xb
    28be:	00440613          	addi	a2,s0,4
    28c2:	cec58593          	addi	a1,a1,-788 # acec <_read+0x5a6>
    28c6:	850a                	mv	a0,sp
    28c8:	5b3020ef          	jal	ra,567a <siprintf>
    28cc:	850a                	mv	a0,sp
    28ce:	952ff0ef          	jal	ra,1a20 <UART4_SendString>
    28d2:	2818                	lbu	a4,16(s0)
    28d4:	4785                	li	a5,1
    28d6:	04f70463          	beq	a4,a5,291e <DisplayUserInfo+0x8e>
    28da:	0000b637          	lui	a2,0xb
    28de:	ca460613          	addi	a2,a2,-860 # aca4 <_read+0x55e>
    28e2:	0000b5b7          	lui	a1,0xb
    28e6:	cfc58593          	addi	a1,a1,-772 # acfc <_read+0x5b6>
    28ea:	850a                	mv	a0,sp
    28ec:	58f020ef          	jal	ra,567a <siprintf>
    28f0:	850a                	mv	a0,sp
    28f2:	92eff0ef          	jal	ra,1a20 <UART4_SendString>
    28f6:	2832                	lhu	a2,18(s0)
    28f8:	0000b5b7          	lui	a1,0xb
    28fc:	d1058593          	addi	a1,a1,-752 # ad10 <_read+0x5ca>
    2900:	850a                	mv	a0,sp
    2902:	579020ef          	jal	ra,567a <siprintf>
    2906:	850a                	mv	a0,sp
    2908:	918ff0ef          	jal	ra,1a20 <UART4_SendString>
    290c:	0000b537          	lui	a0,0xb
    2910:	3f850513          	addi	a0,a0,1016 # b3f8 <_read+0xcb2>
    2914:	90cff0ef          	jal	ra,1a20 <UART4_SendString>
    2918:	6121                	addi	sp,sp,64
    291a:	8fbfd06f          	j	214 <__riscv_restore_0>
    291e:	0000b637          	lui	a2,0xb
    2922:	c9860613          	addi	a2,a2,-872 # ac98 <_read+0x552>
    2926:	bf75                	j	28e2 <DisplayUserInfo+0x52>

00002928 <ReadBalance>:
    2928:	8c9fd2ef          	jal	t0,1f0 <__riscv_save_0>
    292c:	1141                	addi	sp,sp,-16
    292e:	842e                	mv	s0,a1
    2930:	858a                	mv	a1,sp
    2932:	cd1fe0ef          	jal	ra,1602 <PcdRead>
    2936:	02600793          	li	a5,38
    293a:	02f51163          	bne	a0,a5,295c <ReadBalance+0x34>
    293e:	801c                	lbu	a5,0(sp)
    2940:	8098                	lbu	a4,1(sp)
    2942:	4505                	li	a0,1
    2944:	07e2                	slli	a5,a5,0x18
    2946:	0742                	slli	a4,a4,0x10
    2948:	8fd9                	or	a5,a5,a4
    294a:	8198                	lbu	a4,3(sp)
    294c:	8fd9                	or	a5,a5,a4
    294e:	8118                	lbu	a4,2(sp)
    2950:	0722                	slli	a4,a4,0x8
    2952:	8fd9                	or	a5,a5,a4
    2954:	c01c                	sw	a5,0(s0)
    2956:	0141                	addi	sp,sp,16
    2958:	8bdfd06f          	j	214 <__riscv_restore_0>
    295c:	4501                	li	a0,0
    295e:	bfe5                	j	2956 <ReadBalance+0x2e>

00002960 <WriteBalance>:
    2960:	891fd2ef          	jal	t0,1f0 <__riscv_save_0>
    2964:	715d                	addi	sp,sp,-80
    2966:	0185d793          	srli	a5,a1,0x18
    296a:	01059713          	slli	a4,a1,0x10
    296e:	805c                	sb	a5,0(sp)
    2970:	8341                	srli	a4,a4,0x10
    2972:	0105d793          	srli	a5,a1,0x10
    2976:	80dc                	sb	a5,1(sp)
    2978:	8321                	srli	a4,a4,0x8
    297a:	00859793          	slli	a5,a1,0x8
    297e:	8fd9                	or	a5,a5,a4
    2980:	842e                	mv	s0,a1
    2982:	858a                	mv	a1,sp
    2984:	817c                	sh	a5,2(sp)
    2986:	c202                	sw	zero,4(sp)
    2988:	c402                	sw	zero,8(sp)
    298a:	c602                	sw	zero,12(sp)
    298c:	be5fe0ef          	jal	ra,1570 <PcdWrite>
    2990:	02600793          	li	a5,38
    2994:	02f51663          	bne	a0,a5,29c0 <WriteBalance+0x60>
    2998:	06400613          	li	a2,100
    299c:	02c476b3          	remu	a3,s0,a2
    29a0:	0000c5b7          	lui	a1,0xc
    29a4:	a2058593          	addi	a1,a1,-1504 # ba20 <_read+0x12da>
    29a8:	0808                	addi	a0,sp,16
    29aa:	02c45633          	divu	a2,s0,a2
    29ae:	4cd020ef          	jal	ra,567a <siprintf>
    29b2:	0808                	addi	a0,sp,16
    29b4:	86cff0ef          	jal	ra,1a20 <UART4_SendString>
    29b8:	4505                	li	a0,1
    29ba:	6161                	addi	sp,sp,80
    29bc:	859fd06f          	j	214 <__riscv_restore_0>
    29c0:	0000c537          	lui	a0,0xc
    29c4:	a4c50513          	addi	a0,a0,-1460 # ba4c <_read+0x1306>
    29c8:	858ff0ef          	jal	ra,1a20 <UART4_SendString>
    29cc:	4501                	li	a0,0
    29ce:	b7f5                	j	29ba <WriteBalance+0x5a>

000029d0 <RFID_Payment_Process>:
    29d0:	807fd2ef          	jal	t0,1d6 <__riscv_save_4>
    29d4:	716d                	addi	sp,sp,-272
    29d6:	7f2010ef          	jal	ra,41c8 <IsAudioBusy>
    29da:	e501                	bnez	a0,29e2 <RFID_Payment_Process+0x12>
    29dc:	4505                	li	a0,1
    29de:	776010ef          	jal	ra,4154 <audio_play>
    29e2:	87418793          	addi	a5,gp,-1932 # 2000054c <rfid_busy>
    29e6:	4705                	li	a4,1
    29e8:	006c                	addi	a1,sp,12
    29ea:	05200513          	li	a0,82
    29ee:	a398                	sb	a4,0(a5)
    29f0:	933fe0ef          	jal	ra,1322 <PcdRequest>
    29f4:	02600793          	li	a5,38
    29f8:	842a                	mv	s0,a0
    29fa:	87418993          	addi	s3,gp,-1932 # 2000054c <rfid_busy>
    29fe:	04f50263          	beq	a0,a5,2a42 <RFID_Payment_Process+0x72>
    2a02:	88418493          	addi	s1,gp,-1916 # 2000055c <system_mode>
    2a06:	4098                	lw	a4,0(s1)
    2a08:	8601a023          	sw	zero,-1952(gp) # 20000538 <init_attempt.6523>
    2a0c:	8401a223          	sw	zero,-1980(gp) # 2000051c <admin_processing.6525>
    2a10:	4785                	li	a5,1
    2a12:	02f71563          	bne	a4,a5,2a3c <RFID_Payment_Process+0x6c>
    2a16:	88818413          	addi	s0,gp,-1912 # 20000560 <timeout_cnt.6527>
    2a1a:	401c                	lw	a5,0(s0)
    2a1c:	03200713          	li	a4,50
    2a20:	0785                	addi	a5,a5,1
    2a22:	c01c                	sw	a5,0(s0)
    2a24:	00f75c63          	bge	a4,a5,2a3c <RFID_Payment_Process+0x6c>
    2a28:	0000b537          	lui	a0,0xb
    2a2c:	2cc50513          	addi	a0,a0,716 # b2cc <_read+0xb86>
    2a30:	ff1fe0ef          	jal	ra,1a20 <UART4_SendString>
    2a34:	0004a023          	sw	zero,0(s1)
    2a38:	00042023          	sw	zero,0(s0)
    2a3c:	6151                	addi	sp,sp,272
    2a3e:	fccfd06f          	j	20a <__riscv_restore_4>
    2a42:	0808                	addi	a0,sp,16
    2a44:	92ffe0ef          	jal	ra,1372 <PcdAnticoll>
    2a48:	fe851ae3          	bne	a0,s0,2a3c <RFID_Payment_Process+0x6c>
    2a4c:	86c18493          	addi	s1,gp,-1940 # 20000544 <last_uid.6524>
    2a50:	4611                	li	a2,4
    2a52:	86c18593          	addi	a1,gp,-1940 # 20000544 <last_uid.6524>
    2a56:	0808                	addi	a0,sp,16
    2a58:	1f5020ef          	jal	ra,544c <memcmp>
    2a5c:	8441a783          	lw	a5,-1980(gp) # 2000051c <admin_processing.6525>
    2a60:	84418413          	addi	s0,gp,-1980 # 2000051c <admin_processing.6525>
    2a64:	8d5d                	or	a0,a0,a5
    2a66:	d979                	beqz	a0,2a3c <RFID_Payment_Process+0x6c>
    2a68:	47c2                	lw	a5,16(sp)
    2a6a:	01214703          	lbu	a4,18(sp)
    2a6e:	01114683          	lbu	a3,17(sp)
    2a72:	c09c                	sw	a5,0(s1)
    2a74:	01014603          	lbu	a2,16(sp)
    2a78:	01314783          	lbu	a5,19(sp)
    2a7c:	0000b5b7          	lui	a1,0xb
    2a80:	2f058593          	addi	a1,a1,752 # b2f0 <_read+0xbaa>
    2a84:	0908                	addi	a0,sp,144
    2a86:	3f5020ef          	jal	ra,567a <siprintf>
    2a8a:	0908                	addi	a0,sp,144
    2a8c:	f95fe0ef          	jal	ra,1a20 <UART4_SendString>
    2a90:	4481                	li	s1,0
    2a92:	02600a13          	li	s4,38
    2a96:	0000bab7          	lui	s5,0xb
    2a9a:	490d                	li	s2,3
    2a9c:	0808                	addi	a0,sp,16
    2a9e:	9d9fe0ef          	jal	ra,1476 <PcdSelect>
    2aa2:	0f451863          	bne	a0,s4,2b92 <RFID_Payment_Process+0x1c2>
    2aa6:	0000b537          	lui	a0,0xb
    2aaa:	88418a93          	addi	s5,gp,-1916 # 2000055c <system_mode>
    2aae:	31c50513          	addi	a0,a0,796 # b31c <_read+0xbd6>
    2ab2:	f6ffe0ef          	jal	ra,1a20 <UART4_SendString>
    2ab6:	000aa903          	lw	s2,0(s5) # b000 <_read+0x8ba>
    2aba:	4785                	li	a5,1
    2abc:	88418493          	addi	s1,gp,-1916 # 2000055c <system_mode>
    2ac0:	10f90063          	beq	s2,a5,2bc0 <RFID_Payment_Process+0x1f0>
    2ac4:	4901                	li	s2,0
    2ac6:	0000bab7          	lui	s5,0xb
    2aca:	4a0d                	li	s4,3
    2acc:	0830                	addi	a2,sp,24
    2ace:	080c                	addi	a1,sp,16
    2ad0:	4515                	li	a0,5
    2ad2:	ce9ff0ef          	jal	ra,27ba <ReadUserInfoFromCard>
    2ad6:	40051263          	bnez	a0,2eda <RFID_Payment_Process+0x50a>
    2ada:	0905                	addi	s2,s2,1
    2adc:	864a                	mv	a2,s2
    2ade:	588a8593          	addi	a1,s5,1416 # b588 <_read+0xe42>
    2ae2:	0908                	addi	a0,sp,144
    2ae4:	397020ef          	jal	ra,567a <siprintf>
    2ae8:	0908                	addi	a0,sp,144
    2aea:	f37fe0ef          	jal	ra,1a20 <UART4_SendString>
    2aee:	03200513          	li	a0,50
    2af2:	70e010ef          	jal	ra,4200 <Delay_Ms>
    2af6:	fd491be3          	bne	s2,s4,2acc <RFID_Payment_Process+0xfc>
    2afa:	86018413          	addi	s0,gp,-1952 # 20000538 <init_attempt.6523>
    2afe:	401c                	lw	a5,0(s0)
    2b00:	eba9                	bnez	a5,2b52 <RFID_Payment_Process+0x182>
    2b02:	0000b537          	lui	a0,0xb
    2b06:	5a850513          	addi	a0,a0,1448 # b5a8 <_read+0xe62>
    2b0a:	f17fe0ef          	jal	ra,1a20 <UART4_SendString>
    2b0e:	000d97b7          	lui	a5,0xd9
    2b12:	0000b5b7          	lui	a1,0xb
    2b16:	03878793          	addi	a5,a5,56 # d9038 <_data_lma+0xcc74c>
    2b1a:	5dc58593          	addi	a1,a1,1500 # b5dc <_read+0xe96>
    2b1e:	1828                	addi	a0,sp,56
    2b20:	da3e                	sw	a5,52(sp)
    2b22:	3b7020ef          	jal	ra,56d8 <strcpy>
    2b26:	4785                	li	a5,1
    2b28:	04f10223          	sb	a5,68(sp)
    2b2c:	0808                	addi	a0,sp,16
    2b2e:	06400793          	li	a5,100
    2b32:	184c                	addi	a1,sp,52
    2b34:	04f11323          	sh	a5,70(sp)
    2b38:	c482                	sw	zero,72(sp)
    2b3a:	04010623          	sb	zero,76(sp)
    2b3e:	ad7ff0ef          	jal	ra,2614 <InitNewCard>
    2b42:	4785                	li	a5,1
    2b44:	0000b537          	lui	a0,0xb
    2b48:	c01c                	sw	a5,0(s0)
    2b4a:	5e850513          	addi	a0,a0,1512 # b5e8 <_read+0xea2>
    2b4e:	ed3fe0ef          	jal	ra,1a20 <UART4_SendString>
    2b52:	4705                	li	a4,1
    2b54:	86e18e23          	sb	a4,-1924(gp) # 20000554 <show_fail_page>
    2b58:	8581a703          	lw	a4,-1960(gp) # 20000530 <g_tick>
    2b5c:	0000b537          	lui	a0,0xb
    2b60:	c2c50513          	addi	a0,a0,-980 # ac2c <_read+0x4e6>
    2b64:	84e1a623          	sw	a4,-1972(gp) # 20000524 <fail_page_start>
    2b68:	eb9fe0ef          	jal	ra,1a20 <UART4_SendString>
    2b6c:	0000b537          	lui	a0,0xb
    2b70:	62050513          	addi	a0,a0,1568 # b620 <_read+0xeda>
    2b74:	eadfe0ef          	jal	ra,1a20 <UART4_SendString>
    2b78:	0ff00513          	li	a0,255
    2b7c:	e7dfe0ef          	jal	ra,19f8 <UART4_SendByte>
    2b80:	0ff00513          	li	a0,255
    2b84:	e75fe0ef          	jal	ra,19f8 <UART4_SendByte>
    2b88:	0ff00513          	li	a0,255
    2b8c:	e6dfe0ef          	jal	ra,19f8 <UART4_SendByte>
    2b90:	a60d                	j	2eb2 <RFID_Payment_Process+0x4e2>
    2b92:	0485                	addi	s1,s1,1
    2b94:	8626                	mv	a2,s1
    2b96:	338a8593          	addi	a1,s5,824
    2b9a:	0908                	addi	a0,sp,144
    2b9c:	2df020ef          	jal	ra,567a <siprintf>
    2ba0:	0908                	addi	a0,sp,144
    2ba2:	e7ffe0ef          	jal	ra,1a20 <UART4_SendString>
    2ba6:	03200513          	li	a0,50
    2baa:	656010ef          	jal	ra,4200 <Delay_Ms>
    2bae:	ef2497e3          	bne	s1,s2,2a9c <RFID_Payment_Process+0xcc>
    2bb2:	0000b537          	lui	a0,0xb
    2bb6:	e1050513          	addi	a0,a0,-496 # ae10 <_read+0x6ca>
    2bba:	e67fe0ef          	jal	ra,1a20 <UART4_SendString>
    2bbe:	bdbd                	j	2a3c <RFID_Payment_Process+0x6c>
    2bc0:	0830                	addi	a2,sp,24
    2bc2:	080c                	addi	a1,sp,16
    2bc4:	4515                	li	a0,5
    2bc6:	01242023          	sw	s2,0(s0)
    2bca:	bf1ff0ef          	jal	ra,27ba <ReadUserInfoFromCard>
    2bce:	ed01                	bnez	a0,2be6 <RFID_Payment_Process+0x216>
    2bd0:	0000b537          	lui	a0,0xb
    2bd4:	35850513          	addi	a0,a0,856 # b358 <_read+0xc12>
    2bd8:	e49fe0ef          	jal	ra,1a20 <UART4_SendString>
    2bdc:	000aa023          	sw	zero,0(s5)
    2be0:	00042023          	sw	zero,0(s0)
    2be4:	a8ed                	j	2cde <RFID_Payment_Process+0x30e>
    2be6:	02814603          	lbu	a2,40(sp)
    2bea:	11261c63          	bne	a2,s2,2d02 <RFID_Payment_Process+0x332>
    2bee:	0000b537          	lui	a0,0xb
    2bf2:	37c50513          	addi	a0,a0,892 # b37c <_read+0xc36>
    2bf6:	e2bfe0ef          	jal	ra,1a20 <UART4_SendString>
    2bfa:	0000b537          	lui	a0,0xb
    2bfe:	3ac50513          	addi	a0,a0,940 # b3ac <_read+0xc66>
    2c02:	e1ffe0ef          	jal	ra,1a20 <UART4_SendString>
    2c06:	20000637          	lui	a2,0x20000
    2c0a:	0814                	addi	a3,sp,16
    2c0c:	4d860613          	addi	a2,a2,1240 # 200004d8 <Default_Key>
    2c10:	45c1                	li	a1,16
    2c12:	06000513          	li	a0,96
    2c16:	8f1fe0ef          	jal	ra,1506 <PcdAuthState>
    2c1a:	0d451f63          	bne	a0,s4,2cf8 <RFID_Payment_Process+0x328>
    2c1e:	184c                	addi	a1,sp,52
    2c20:	4541                	li	a0,16
    2c22:	d07ff0ef          	jal	ra,2928 <ReadBalance>
    2c26:	0c050463          	beqz	a0,2cee <RFID_Payment_Process+0x31e>
    2c2a:	5652                	lw	a2,52(sp)
    2c2c:	0000b5b7          	lui	a1,0xb
    2c30:	3d858593          	addi	a1,a1,984 # b3d8 <_read+0xc92>
    2c34:	0908                	addi	a0,sp,144
    2c36:	245020ef          	jal	ra,567a <siprintf>
    2c3a:	0908                	addi	a0,sp,144
    2c3c:	de5fe0ef          	jal	ra,1a20 <UART4_SendString>
    2c40:	6589                	lui	a1,0x2
    2c42:	71058593          	addi	a1,a1,1808 # 2710 <InitNewCard+0xfc>
    2c46:	4541                	li	a0,16
    2c48:	d19ff0ef          	jal	ra,2960 <WriteBalance>
    2c4c:	cd41                	beqz	a0,2ce4 <RFID_Payment_Process+0x314>
    2c4e:	0000b537          	lui	a0,0xb
    2c52:	3f050513          	addi	a0,a0,1008 # b3f0 <_read+0xcaa>
    2c56:	dcbfe0ef          	jal	ra,1a20 <UART4_SendString>
    2c5a:	0000b537          	lui	a0,0xb
    2c5e:	42050513          	addi	a0,a0,1056 # b420 <_read+0xcda>
    2c62:	dbffe0ef          	jal	ra,1a20 <UART4_SendString>
    2c66:	01314783          	lbu	a5,19(sp)
    2c6a:	01214703          	lbu	a4,18(sp)
    2c6e:	01114683          	lbu	a3,17(sp)
    2c72:	01014603          	lbu	a2,16(sp)
    2c76:	0000b5b7          	lui	a1,0xb
    2c7a:	44058593          	addi	a1,a1,1088 # b440 <_read+0xcfa>
    2c7e:	0908                	addi	a0,sp,144
    2c80:	1fb020ef          	jal	ra,567a <siprintf>
    2c84:	0908                	addi	a0,sp,144
    2c86:	d9bfe0ef          	jal	ra,1a20 <UART4_SendString>
    2c8a:	0000b5b7          	lui	a1,0xb
    2c8e:	4681                	li	a3,0
    2c90:	06400613          	li	a2,100
    2c94:	46c58593          	addi	a1,a1,1132 # b46c <_read+0xd26>
    2c98:	0908                	addi	a0,sp,144
    2c9a:	1e1020ef          	jal	ra,567a <siprintf>
    2c9e:	0908                	addi	a0,sp,144
    2ca0:	d81fe0ef          	jal	ra,1a20 <UART4_SendString>
    2ca4:	0000b5b7          	lui	a1,0xb
    2ca8:	4681                	li	a3,0
    2caa:	06400613          	li	a2,100
    2cae:	49058593          	addi	a1,a1,1168 # b490 <_read+0xd4a>
    2cb2:	0908                	addi	a0,sp,144
    2cb4:	1c7020ef          	jal	ra,567a <siprintf>
    2cb8:	0908                	addi	a0,sp,144
    2cba:	d67fe0ef          	jal	ra,1a20 <UART4_SendString>
    2cbe:	0000b537          	lui	a0,0xb
    2cc2:	4b050513          	addi	a0,a0,1200 # b4b0 <_read+0xd6a>
    2cc6:	d5bfe0ef          	jal	ra,1a20 <UART4_SendString>
    2cca:	0000b537          	lui	a0,0xb
    2cce:	57050513          	addi	a0,a0,1392 # b570 <_read+0xe2a>
    2cd2:	0004a023          	sw	zero,0(s1)
    2cd6:	00042023          	sw	zero,0(s0)
    2cda:	d47fe0ef          	jal	ra,1a20 <UART4_SendString>
    2cde:	981fe0ef          	jal	ra,165e <PcdHalt>
    2ce2:	bba9                	j	2a3c <RFID_Payment_Process+0x6c>
    2ce4:	0000b537          	lui	a0,0xb
    2ce8:	4dc50513          	addi	a0,a0,1244 # b4dc <_read+0xd96>
    2cec:	bfe9                	j	2cc6 <RFID_Payment_Process+0x2f6>
    2cee:	0000b537          	lui	a0,0xb
    2cf2:	4f450513          	addi	a0,a0,1268 # b4f4 <_read+0xdae>
    2cf6:	bfc1                	j	2cc6 <RFID_Payment_Process+0x2f6>
    2cf8:	0000b537          	lui	a0,0xb
    2cfc:	50c50513          	addi	a0,a0,1292 # b50c <_read+0xdc6>
    2d00:	b7d9                	j	2cc6 <RFID_Payment_Process+0x2f6>
    2d02:	0000b5b7          	lui	a1,0xb
    2d06:	53458593          	addi	a1,a1,1332 # b534 <_read+0xdee>
    2d0a:	0908                	addi	a0,sp,144
    2d0c:	16f020ef          	jal	ra,567a <siprintf>
    2d10:	0908                	addi	a0,sp,144
    2d12:	bf55                	j	2cc6 <RFID_Payment_Process+0x2f6>
    2d14:	20000637          	lui	a2,0x20000
    2d18:	0814                	addi	a3,sp,16
    2d1a:	4d860613          	addi	a2,a2,1240 # 200004d8 <Default_Key>
    2d1e:	45c1                	li	a1,16
    2d20:	06000513          	li	a0,96
    2d24:	fe2fe0ef          	jal	ra,1506 <PcdAuthState>
    2d28:	02600793          	li	a5,38
    2d2c:	00f50763          	beq	a0,a5,2d3a <RFID_Payment_Process+0x36a>
    2d30:	0000b537          	lui	a0,0xb
    2d34:	50c50513          	addi	a0,a0,1292 # b50c <_read+0xdc6>
    2d38:	bd19                	j	2b4e <RFID_Payment_Process+0x17e>
    2d3a:	084c                	addi	a1,sp,20
    2d3c:	4541                	li	a0,16
    2d3e:	bebff0ef          	jal	ra,2928 <ReadBalance>
    2d42:	18050763          	beqz	a0,2ed0 <RFID_Payment_Process+0x500>
    2d46:	0808                	addi	a0,sp,16
    2d48:	8b6fe0ef          	jal	ra,dfe <Cloud_GetPendingRecharge>
    2d4c:	842a                	mv	s0,a0
    2d4e:	c905                	beqz	a0,2d7e <RFID_Payment_Process+0x3ae>
    2d50:	45d2                	lw	a1,20(sp)
    2d52:	95aa                	add	a1,a1,a0
    2d54:	4541                	li	a0,16
    2d56:	ca2e                	sw	a1,20(sp)
    2d58:	c09ff0ef          	jal	ra,2960 <WriteBalance>
    2d5c:	46d2                	lw	a3,20(sp)
    2d5e:	0000b5b7          	lui	a1,0xb
    2d62:	8622                	mv	a2,s0
    2d64:	6bc58593          	addi	a1,a1,1724 # b6bc <_read+0xf76>
    2d68:	0908                	addi	a0,sp,144
    2d6a:	111020ef          	jal	ra,567a <siprintf>
    2d6e:	0908                	addi	a0,sp,144
    2d70:	cb1fe0ef          	jal	ra,1a20 <UART4_SendString>
    2d74:	4652                	lw	a2,20(sp)
    2d76:	85a2                	mv	a1,s0
    2d78:	0808                	addi	a0,sp,16
    2d7a:	802fe0ef          	jal	ra,d7c <Cloud_ReportRechargeComplete>
    2d7e:	0000b5b7          	lui	a1,0xb
    2d82:	0870                	addi	a2,sp,28
    2d84:	6e458593          	addi	a1,a1,1764 # b6e4 <_read+0xf9e>
    2d88:	0908                	addi	a0,sp,144
    2d8a:	0f1020ef          	jal	ra,567a <siprintf>
    2d8e:	0908                	addi	a0,sp,144
    2d90:	c91fe0ef          	jal	ra,1a20 <UART4_SendString>
    2d94:	85c1d483          	lhu	s1,-1956(gp) # 20000534 <g_total_price>
    2d98:	06400913          	li	s2,100
    2d9c:	0000b5b7          	lui	a1,0xb
    2da0:	04c2                	slli	s1,s1,0x10
    2da2:	80c1                	srli	s1,s1,0x10
    2da4:	0324ca33          	div	s4,s1,s2
    2da8:	6f058593          	addi	a1,a1,1776 # b6f0 <_read+0xfaa>
    2dac:	0908                	addi	a0,sp,144
    2dae:	0324eab3          	rem	s5,s1,s2
    2db2:	8652                	mv	a2,s4
    2db4:	86d6                	mv	a3,s5
    2db6:	0c5020ef          	jal	ra,567a <siprintf>
    2dba:	0908                	addi	a0,sp,144
    2dbc:	c65fe0ef          	jal	ra,1a20 <UART4_SendString>
    2dc0:	4652                	lw	a2,20(sp)
    2dc2:	0000b5b7          	lui	a1,0xb
    2dc6:	70c58593          	addi	a1,a1,1804 # b70c <_read+0xfc6>
    2dca:	032676b3          	remu	a3,a2,s2
    2dce:	0908                	addi	a0,sp,144
    2dd0:	03265633          	divu	a2,a2,s2
    2dd4:	0a7020ef          	jal	ra,567a <siprintf>
    2dd8:	0908                	addi	a0,sp,144
    2dda:	c47fe0ef          	jal	ra,1a20 <UART4_SendString>
    2dde:	4652                	lw	a2,20(sp)
    2de0:	0c966e63          	bltu	a2,s1,2ebc <RFID_Payment_Process+0x4ec>
    2de4:	40960433          	sub	s0,a2,s1
    2de8:	85a2                	mv	a1,s0
    2dea:	4541                	li	a0,16
    2dec:	b75ff0ef          	jal	ra,2960 <WriteBalance>
    2df0:	0c050163          	beqz	a0,2eb2 <RFID_Payment_Process+0x4e2>
    2df4:	032476b3          	remu	a3,s0,s2
    2df8:	0000b5b7          	lui	a1,0xb
    2dfc:	73058593          	addi	a1,a1,1840 # b730 <_read+0xfea>
    2e00:	0908                	addi	a0,sp,144
    2e02:	03245633          	divu	a2,s0,s2
    2e06:	075020ef          	jal	ra,567a <siprintf>
    2e0a:	0908                	addi	a0,sp,144
    2e0c:	c15fe0ef          	jal	ra,1a20 <UART4_SendString>
    2e10:	0000b5b7          	lui	a1,0xb
    2e14:	8756                	mv	a4,s5
    2e16:	86d2                	mv	a3,s4
    2e18:	0870                	addi	a2,sp,28
    2e1a:	76458593          	addi	a1,a1,1892 # b764 <_read+0x101e>
    2e1e:	0908                	addi	a0,sp,144
    2e20:	05b020ef          	jal	ra,567a <siprintf>
    2e24:	0908                	addi	a0,sp,144
    2e26:	bfbfe0ef          	jal	ra,1a20 <UART4_SendString>
    2e2a:	47c2                	lw	a5,16(sp)
    2e2c:	4631                	li	a2,12
    2e2e:	086c                	addi	a1,sp,28
    2e30:	da3e                	sw	a5,52(sp)
    2e32:	47e2                	lw	a5,24(sp)
    2e34:	1868                	addi	a0,sp,60
    2e36:	dc3e                	sw	a5,56(sp)
    2e38:	638020ef          	jal	ra,5470 <memcpy>
    2e3c:	02814783          	lbu	a5,40(sp)
    2e40:	03c00613          	li	a2,60
    2e44:	04f104a3          	sb	a5,73(sp)
    2e48:	47d2                	lw	a5,20(sp)
    2e4a:	24018593          	addi	a1,gp,576 # 20000f18 <g_saved_dishes>
    2e4e:	08c8                	addi	a0,sp,84
    2e50:	c6be                	sw	a5,76(sp)
    2e52:	04010423          	sb	zero,72(sp)
    2e56:	04911523          	sh	s1,74(sp)
    2e5a:	c8a2                	sw	s0,80(sp)
    2e5c:	614020ef          	jal	ra,5470 <memcpy>
    2e60:	1848                	addi	a0,sp,52
    2e62:	e87fd0ef          	jal	ra,ce8 <Cloud_ReportTransaction>
    2e66:	0000b537          	lui	a0,0xb
    2e6a:	c2c50513          	addi	a0,a0,-980 # ac2c <_read+0x4e6>
    2e6e:	bb3fe0ef          	jal	ra,1a20 <UART4_SendString>
    2e72:	06400513          	li	a0,100
    2e76:	38a010ef          	jal	ra,4200 <Delay_Ms>
    2e7a:	0000b537          	lui	a0,0xb
    2e7e:	79050513          	addi	a0,a0,1936 # b790 <_read+0x104a>
    2e82:	b9ffe0ef          	jal	ra,1a20 <UART4_SendString>
    2e86:	4509                	li	a0,2
    2e88:	2cc010ef          	jal	ra,4154 <audio_play>
    2e8c:	0ff00513          	li	a0,255
    2e90:	b69fe0ef          	jal	ra,19f8 <UART4_SendByte>
    2e94:	0ff00513          	li	a0,255
    2e98:	b61fe0ef          	jal	ra,19f8 <UART4_SendByte>
    2e9c:	0ff00513          	li	a0,255
    2ea0:	b59fe0ef          	jal	ra,19f8 <UART4_SendByte>
    2ea4:	4705                	li	a4,1
    2ea6:	86e18ea3          	sb	a4,-1923(gp) # 20000555 <show_success_page>
    2eaa:	8581a703          	lw	a4,-1960(gp) # 20000530 <g_tick>
    2eae:	88e1a023          	sw	a4,-1920(gp) # 20000558 <success_page_start>
    2eb2:	facfe0ef          	jal	ra,165e <PcdHalt>
    2eb6:	00098023          	sb	zero,0(s3)
    2eba:	b649                	j	2a3c <RFID_Payment_Process+0x6c>
    2ebc:	0000b5b7          	lui	a1,0xb
    2ec0:	86a6                	mv	a3,s1
    2ec2:	7a458593          	addi	a1,a1,1956 # b7a4 <_read+0x105e>
    2ec6:	0908                	addi	a0,sp,144
    2ec8:	7b2020ef          	jal	ra,567a <siprintf>
    2ecc:	0908                	addi	a0,sp,144
    2ece:	b141                	j	2b4e <RFID_Payment_Process+0x17e>
    2ed0:	0000b537          	lui	a0,0xb
    2ed4:	7dc50513          	addi	a0,a0,2012 # b7dc <_read+0x1096>
    2ed8:	b99d                	j	2b4e <RFID_Payment_Process+0x17e>
    2eda:	0828                	addi	a0,sp,24
    2edc:	8601a023          	sw	zero,-1952(gp) # 20000538 <init_attempt.6523>
    2ee0:	9b1ff0ef          	jal	ra,2890 <DisplayUserInfo>
    2ee4:	02814683          	lbu	a3,40(sp)
    2ee8:	45e2                	lw	a1,24(sp)
    2eea:	4701                	li	a4,0
    2eec:	0870                	addi	a2,sp,28
    2eee:	0808                	addi	a0,sp,16
    2ef0:	d71fd0ef          	jal	ra,c60 <Cloud_ReportCardTap>
    2ef4:	0000b537          	lui	a0,0xb
    2ef8:	7f850513          	addi	a0,a0,2040 # b7f8 <_read+0x10b2>
    2efc:	b25fe0ef          	jal	ra,1a20 <UART4_SendString>
    2f00:	02814703          	lbu	a4,40(sp)
    2f04:	4789                	li	a5,2
    2f06:	e0f717e3          	bne	a4,a5,2d14 <RFID_Payment_Process+0x344>
    2f0a:	0000b537          	lui	a0,0xb
    2f0e:	63050513          	addi	a0,a0,1584 # b630 <_read+0xeea>
    2f12:	b0ffe0ef          	jal	ra,1a20 <UART4_SendString>
    2f16:	0000b537          	lui	a0,0xb
    2f1a:	65c50513          	addi	a0,a0,1628 # b65c <_read+0xf16>
    2f1e:	b03fe0ef          	jal	ra,1a20 <UART4_SendString>
    2f22:	0000b537          	lui	a0,0xb
    2f26:	69450513          	addi	a0,a0,1684 # b694 <_read+0xf4e>
    2f2a:	af7fe0ef          	jal	ra,1a20 <UART4_SendString>
    2f2e:	4742                	lw	a4,16(sp)
    2f30:	4785                	li	a5,1
    2f32:	c09c                	sw	a5,0(s1)
    2f34:	84e1a423          	sw	a4,-1976(gp) # 20000520 <admin_uid>
    2f38:	b165                	j	2be0 <RFID_Payment_Process+0x210>

00002f3a <main>:
    2f3a:	a86fd2ef          	jal	t0,1c0 <__riscv_save_12>
    2f3e:	dc010113          	addi	sp,sp,-576
    2f42:	165000ef          	jal	ra,38a6 <SystemInit>
    2f46:	4509                	li	a0,2
    2f48:	4ad000ef          	jal	ra,3bf4 <NVIC_PriorityGroupConfig>
    2f4c:	6471                	lui	s0,0x1c
    2f4e:	211000ef          	jal	ra,395e <SystemCoreClockUpdate>
    2f52:	288010ef          	jal	ra,41da <Delay_Init>
    2f56:	ffafe0ef          	jal	ra,1750 <USART1_GPIO_Config>
    2f5a:	20040513          	addi	a0,s0,512 # 1c200 <_data_lma+0xf914>
    2f5e:	837fe0ef          	jal	ra,1794 <USART1_Config>
    2f62:	20040513          	addi	a0,s0,512
    2f66:	86bfe0ef          	jal	ra,17d0 <UART4_Init>
    2f6a:	85aff0ef          	jal	ra,1fc4 <Print_Main_Header>
    2f6e:	bd5fe0ef          	jal	ra,1b42 <Initialize_Data_Structures>
    2f72:	0000c537          	lui	a0,0xc
    2f76:	b6850513          	addi	a0,a0,-1176 # bb68 <g_item_map+0xf8>
    2f7a:	6f4020ef          	jal	ra,566e <puts>
    2f7e:	f9dfe0ef          	jal	ra,1f1a <UART3_Init_For_K230>
    2f82:	20040513          	addi	a0,s0,512
    2f86:	98dfe0ef          	jal	ra,1912 <UART5_Init>
    2f8a:	4585                	li	a1,1
    2f8c:	4511                	li	a0,4
    2f8e:	63f000ef          	jal	ra,3dcc <RCC_APB2PeriphClockCmd>
    2f92:	4789                	li	a5,2
    2f94:	40011437          	lui	s0,0x40011
    2f98:	04f11a23          	sh	a5,84(sp)
    2f9c:	08cc                	addi	a1,sp,84
    2f9e:	04800793          	li	a5,72
    2fa2:	80040513          	addi	a0,s0,-2048 # 40010800 <_eusrstack+0x20008800>
    2fa6:	cebe                	sw	a5,92(sp)
    2fa8:	371000ef          	jal	ra,3b18 <GPIO_Init>
    2fac:	4589                	li	a1,2
    2fae:	80040513          	addi	a0,s0,-2048
    2fb2:	427000ef          	jal	ra,3bd8 <GPIO_ReadInputDataBit>
    2fb6:	44051163          	bnez	a0,33f8 <main+0x4be>
    2fba:	0000c5b7          	lui	a1,0xc
    2fbe:	b5c58593          	addi	a1,a1,-1188 # bb5c <g_item_map+0xec>
    2fc2:	0000c537          	lui	a0,0xc
    2fc6:	b8c50513          	addi	a0,a0,-1140 # bb8c <g_item_map+0x11c>
    2fca:	558020ef          	jal	ra,5522 <iprintf>
    2fce:	c81fd0ef          	jal	ra,c4e <CloudProtocol_Init>
    2fd2:	0000c537          	lui	a0,0xc
    2fd6:	bb050513          	addi	a0,a0,-1104 # bbb0 <g_item_map+0x140>
    2fda:	694020ef          	jal	ra,566e <puts>
    2fde:	4c4c47b7          	lui	a5,0x4c4c4
    2fe2:	54878793          	addi	a5,a5,1352 # 4c4c4548 <_eusrstack+0x2c4bc548>
    2fe6:	4615                	li	a2,5
    2fe8:	00ec                	addi	a1,sp,76
    2fea:	c6be                	sw	a5,76(sp)
    2fec:	4549                	li	a0,18
    2fee:	04f00793          	li	a5,79
    2ff2:	04f11823          	sh	a5,80(sp)
    2ff6:	a79fd0ef          	jal	ra,a6e <Cloud_SendFrame>
    2ffa:	0000c537          	lui	a0,0xc
    2ffe:	bdc50513          	addi	a0,a0,-1060 # bbdc <g_item_map+0x16c>
    3002:	66c020ef          	jal	ra,566e <puts>
    3006:	bdcfd0ef          	jal	ra,3e2 <ADS1234_GPIO_Config>
    300a:	c96fd0ef          	jal	ra,4a0 <ADS1234_Init>
    300e:	0c800513          	li	a0,200
    3012:	1ee010ef          	jal	ra,4200 <Delay_Ms>
    3016:	65b1                	lui	a1,0xc
    3018:	b7f58593          	addi	a1,a1,-1153 # bb7f <g_item_map+0x10f>
    301c:	3e700513          	li	a0,999
    3020:	ed6fe0ef          	jal	ra,16f6 <Tim3_Init>
    3024:	80c1a583          	lw	a1,-2036(gp) # 200004e4 <SystemCoreClock>
    3028:	0000c537          	lui	a0,0xc
    302c:	bfc50513          	addi	a0,a0,-1028 # bbfc <g_item_map+0x18c>
    3030:	4f2020ef          	jal	ra,5522 <iprintf>
    3034:	e000f7b7          	lui	a5,0xe000f
    3038:	0007a023          	sw	zero,0(a5) # e000f000 <_eusrstack+0xc0007000>
    303c:	0007a223          	sw	zero,4(a5)
    3040:	4681                	li	a3,0
    3042:	c794                	sw	a3,8(a5)
    3044:	4701                	li	a4,0
    3046:	00023637          	lui	a2,0x23
    304a:	c7d8                	sw	a4,12(a5)
    304c:	27f60613          	addi	a2,a2,639 # 2327f <_data_lma+0x16993>
    3050:	cb90                	sw	a2,16(a5)
    3052:	4681                	li	a3,0
    3054:	cbd4                	sw	a3,20(a5)
    3056:	471d                	li	a4,7
    3058:	c398                	sw	a4,0(a5)
    305a:	0ee010ef          	jal	ra,4148 <audio_init>
    305e:	142010ef          	jal	ra,41a0 <BusyPin_Init>
    3062:	06400513          	li	a0,100
    3066:	19a010ef          	jal	ra,4200 <Delay_Ms>
    306a:	0000c537          	lui	a0,0xc
    306e:	c1c50513          	addi	a0,a0,-996 # bc1c <g_item_map+0x1ac>
    3072:	5fc020ef          	jal	ra,566e <puts>
    3076:	f73fd0ef          	jal	ra,fe8 <RC522_Init>
    307a:	4515                	li	a0,5
    307c:	184010ef          	jal	ra,4200 <Delay_Ms>
    3080:	870fe0ef          	jal	ra,10f0 <RC522_Rese>
    3084:	4515                	li	a0,5
    3086:	17a010ef          	jal	ra,4200 <Delay_Ms>
    308a:	04100513          	li	a0,65
    308e:	912fe0ef          	jal	ra,11a0 <RC522_Config_Type>
    3092:	4515                	li	a0,5
    3094:	16c010ef          	jal	ra,4200 <Delay_Ms>
    3098:	03700513          	li	a0,55
    309c:	ee3fd0ef          	jal	ra,f7e <RC522_Read_Register>
    30a0:	85aa                	mv	a1,a0
    30a2:	cc2a                	sw	a0,24(sp)
    30a4:	0000c537          	lui	a0,0xc
    30a8:	c3c50513          	addi	a0,a0,-964 # bc3c <g_item_map+0x1cc>
    30ac:	476020ef          	jal	ra,5522 <iprintf>
    30b0:	4662                	lw	a2,24(sp)
    30b2:	0000c5b7          	lui	a1,0xc
    30b6:	c5858593          	addi	a1,a1,-936 # bc58 <g_item_map+0x1e8>
    30ba:	0108                	addi	a0,sp,128
    30bc:	5be020ef          	jal	ra,567a <siprintf>
    30c0:	0108                	addi	a0,sp,128
    30c2:	95ffe0ef          	jal	ra,1a20 <UART4_SendString>
    30c6:	0000c537          	lui	a0,0xc
    30ca:	c6c50513          	addi	a0,a0,-916 # bc6c <g_item_map+0x1fc>
    30ce:	5a0020ef          	jal	ra,566e <puts>
    30d2:	808fe0ef          	jal	ra,10da <RC522_Antenna_On>
    30d6:	4551                	li	a0,20
    30d8:	ea7fd0ef          	jal	ra,f7e <RC522_Read_Register>
    30dc:	0000c5b7          	lui	a1,0xc
    30e0:	862a                	mv	a2,a0
    30e2:	ca458593          	addi	a1,a1,-860 # bca4 <g_item_map+0x234>
    30e6:	0188                	addi	a0,sp,192
    30e8:	592020ef          	jal	ra,567a <siprintf>
    30ec:	0188                	addi	a0,sp,192
    30ee:	933fe0ef          	jal	ra,1a20 <UART4_SendString>
    30f2:	0000c437          	lui	s0,0xc
    30f6:	cbc40513          	addi	a0,s0,-836 # bcbc <g_item_map+0x24c>
    30fa:	927fe0ef          	jal	ra,1a20 <UART4_SendString>
    30fe:	0000c537          	lui	a0,0xc
    3102:	ce850513          	addi	a0,a0,-792 # bce8 <g_item_map+0x278>
    3106:	91bfe0ef          	jal	ra,1a20 <UART4_SendString>
    310a:	cbc40513          	addi	a0,s0,-836
    310e:	913fe0ef          	jal	ra,1a20 <UART4_SendString>
    3112:	0000c537          	lui	a0,0xc
    3116:	d0850513          	addi	a0,a0,-760 # bd08 <g_item_map+0x298>
    311a:	907fe0ef          	jal	ra,1a20 <UART4_SendString>
    311e:	0000c537          	lui	a0,0xc
    3122:	d2850513          	addi	a0,a0,-728 # bd28 <g_item_map+0x2b8>
    3126:	548020ef          	jal	ra,566e <puts>
    312a:	0000c537          	lui	a0,0xc
    312e:	d3c50513          	addi	a0,a0,-708 # bd3c <g_item_map+0x2cc>
    3132:	53c020ef          	jal	ra,566e <puts>
    3136:	0000c537          	lui	a0,0xc
    313a:	d6450513          	addi	a0,a0,-668 # bd64 <g_item_map+0x2f4>
    313e:	530020ef          	jal	ra,566e <puts>
    3142:	0000c537          	lui	a0,0xc
    3146:	4595                	li	a1,5
    3148:	d9050513          	addi	a0,a0,-624 # bd90 <g_item_map+0x320>
    314c:	3d6020ef          	jal	ra,5522 <iprintf>
    3150:	0000c537          	lui	a0,0xc
    3154:	da850513          	addi	a0,a0,-600 # bda8 <g_item_map+0x338>
    3158:	516020ef          	jal	ra,566e <puts>
    315c:	0000c537          	lui	a0,0xc
    3160:	dd450513          	addi	a0,a0,-556 # bdd4 <g_item_map+0x364>
    3164:	50a020ef          	jal	ra,566e <puts>
    3168:	0000c537          	lui	a0,0xc
    316c:	e0450513          	addi	a0,a0,-508 # be04 <g_item_map+0x394>
    3170:	4fe020ef          	jal	ra,566e <puts>
    3174:	0000c537          	lui	a0,0xc
    3178:	e3050513          	addi	a0,a0,-464 # be30 <g_item_map+0x3c0>
    317c:	4f2020ef          	jal	ra,566e <puts>
    3180:	d2afd0ef          	jal	ra,6aa <ADS1234_AutoZero>
    3184:	0000c737          	lui	a4,0xc
    3188:	b4072703          	lw	a4,-1216(a4) # bb40 <g_item_map+0xd0>
    318c:	0000c537          	lui	a0,0xc
    3190:	8ce1a023          	sw	a4,-1856(gp) # 20000598 <g_scale_factor>
    3194:	0000c737          	lui	a4,0xc
    3198:	b4472703          	lw	a4,-1212(a4) # bb44 <g_item_map+0xd4>
    319c:	8c018793          	addi	a5,gp,-1856 # 20000598 <g_scale_factor>
    31a0:	e5050513          	addi	a0,a0,-432 # be50 <g_item_map+0x3e0>
    31a4:	c3d8                	sw	a4,4(a5)
    31a6:	0000c737          	lui	a4,0xc
    31aa:	b4872703          	lw	a4,-1208(a4) # bb48 <g_item_map+0xd8>
    31ae:	c798                	sw	a4,8(a5)
    31b0:	0000c737          	lui	a4,0xc
    31b4:	b4c72703          	lw	a4,-1204(a4) # bb4c <g_item_map+0xdc>
    31b8:	c7d8                	sw	a4,12(a5)
    31ba:	4b4020ef          	jal	ra,566e <puts>
    31be:	0000c537          	lui	a0,0xc
    31c2:	e7450513          	addi	a0,a0,-396 # be74 <g_item_map+0x404>
    31c6:	4a8020ef          	jal	ra,566e <puts>
    31ca:	0000c537          	lui	a0,0xc
    31ce:	ea850513          	addi	a0,a0,-344 # bea8 <g_item_map+0x438>
    31d2:	49c020ef          	jal	ra,566e <puts>
    31d6:	0000c537          	lui	a0,0xc
    31da:	ec450513          	addi	a0,a0,-316 # bec4 <g_item_map+0x454>
    31de:	490020ef          	jal	ra,566e <puts>
    31e2:	0000c537          	lui	a0,0xc
    31e6:	ef050513          	addi	a0,a0,-272 # bef0 <g_item_map+0x480>
    31ea:	484020ef          	jal	ra,566e <puts>
    31ee:	08800793          	li	a5,136
    31f2:	8007a073          	csrs	0x800,a5
    31f6:	ba8ff0ef          	jal	ra,259e <Send_Breakfast_To_Screen>
    31fa:	ad2ff0ef          	jal	ra,24cc <Send_Price_To_Screen>
    31fe:	0000b7b7          	lui	a5,0xb
    3202:	b707aa83          	lw	s5,-1168(a5) # ab70 <_read+0x42a>
    3206:	db118a13          	addi	s4,gp,-591 # 20000a89 <UART5_RxBuf+0x1>
    320a:	8381d783          	lhu	a5,-1992(gp) # 20000510 <uart5_bytes>
    320e:	07c2                	slli	a5,a5,0x10
    3210:	83c1                	srli	a5,a5,0x10
    3212:	cb9d                	beqz	a5,3248 <main+0x30e>
    3214:	cc6fe0ef          	jal	ra,16da <GetSysTick>
    3218:	83c1a783          	lw	a5,-1988(gp) # 20000514 <uart5_last_byte>
    321c:	8d1d                	sub	a0,a0,a5
    321e:	47cd                	li	a5,19
    3220:	02a7f463          	bgeu	a5,a0,3248 <main+0x30e>
    3224:	8381d703          	lhu	a4,-1992(gp) # 20000510 <uart5_bytes>
    3228:	db018793          	addi	a5,gp,-592 # 20000a88 <UART5_RxBuf>
    322c:	97ba                	add	a5,a5,a4
    322e:	00078023          	sb	zero,0(a5)
    3232:	8381d783          	lhu	a5,-1992(gp) # 20000510 <uart5_bytes>
    3236:	07c2                	slli	a5,a5,0x10
    3238:	83c1                	srli	a5,a5,0x10
    323a:	82f19b23          	sh	a5,-1994(gp) # 2000050e <UART5_RxLen>
    323e:	4785                	li	a5,1
    3240:	82f18a23          	sb	a5,-1996(gp) # 2000050c <UART5_RxFlag>
    3244:	82019c23          	sh	zero,-1992(gp) # 20000510 <uart5_bytes>
    3248:	8341c783          	lbu	a5,-1996(gp) # 2000050c <UART5_RxFlag>
    324c:	0ff7f793          	andi	a5,a5,255
    3250:	cbb5                	beqz	a5,32c4 <main+0x38a>
    3252:	82018a23          	sb	zero,-1996(gp) # 2000050c <UART5_RxFlag>
    3256:	8361d903          	lhu	s2,-1994(gp) # 2000050e <UART5_RxLen>
    325a:	8361d583          	lhu	a1,-1994(gp) # 2000050e <UART5_RxLen>
    325e:	0000c537          	lui	a0,0xc
    3262:	0942                	slli	s2,s2,0x10
    3264:	f2050513          	addi	a0,a0,-224 # bf20 <g_item_map+0x4b0>
    3268:	01095913          	srli	s2,s2,0x10
    326c:	2b6020ef          	jal	ra,5522 <iprintf>
    3270:	4401                	li	s0,0
    3272:	10000993          	li	s3,256
    3276:	db018b93          	addi	s7,gp,-592 # 20000a88 <UART5_RxBuf>
    327a:	0000cc37          	lui	s8,0xc
    327e:	8361d783          	lhu	a5,-1994(gp) # 2000050e <UART5_RxLen>
    3282:	01041713          	slli	a4,s0,0x10
    3286:	8341                	srli	a4,a4,0x10
    3288:	00f77463          	bgeu	a4,a5,3290 <main+0x356>
    328c:	17341b63          	bne	s0,s3,3402 <main+0x4c8>
    3290:	0000c537          	lui	a0,0xc
    3294:	ea450513          	addi	a0,a0,-348 # bea4 <g_item_map+0x434>
    3298:	3d6020ef          	jal	ra,566e <puts>
    329c:	4d01                	li	s10,0
    329e:	db018713          	addi	a4,gp,-592 # 20000a88 <UART5_RxBuf>
    32a2:	03b00693          	li	a3,59
    32a6:	db018413          	addi	s0,gp,-592 # 20000a88 <UART5_RxBuf>
    32aa:	010d1993          	slli	s3,s10,0x10
    32ae:	0109d993          	srli	s3,s3,0x10
    32b2:	1729e163          	bltu	s3,s2,3414 <main+0x4da>
    32b6:	20000613          	li	a2,512
    32ba:	4581                	li	a1,0
    32bc:	db018513          	addi	a0,gp,-592 # 20000a88 <UART5_RxBuf>
    32c0:	f61fc0ef          	jal	ra,220 <memset>
    32c4:	87d18793          	addi	a5,gp,-1923 # 20000555 <show_success_page>
    32c8:	239c                	lbu	a5,0(a5)
    32ca:	87d18913          	addi	s2,gp,-1923 # 20000555 <show_success_page>
    32ce:	0ff7f793          	andi	a5,a5,255
    32d2:	85818413          	addi	s0,gp,-1960 # 20000530 <g_tick>
    32d6:	c7a9                	beqz	a5,3320 <main+0x3e6>
    32d8:	401c                	lw	a5,0(s0)
    32da:	8801a703          	lw	a4,-1920(gp) # 20000558 <success_page_start>
    32de:	8f99                	sub	a5,a5,a4
    32e0:	4705                	li	a4,1
    32e2:	02f77f63          	bgeu	a4,a5,3320 <main+0x3e6>
    32e6:	4505                	li	a0,1
    32e8:	00090023          	sb	zero,0(s2)
    32ec:	669000ef          	jal	ra,4154 <audio_play>
    32f0:	0000b537          	lui	a0,0xb
    32f4:	c2c50513          	addi	a0,a0,-980 # ac2c <_read+0x4e6>
    32f8:	f28fe0ef          	jal	ra,1a20 <UART4_SendString>
    32fc:	0000c537          	lui	a0,0xc
    3300:	f7050513          	addi	a0,a0,-144 # bf70 <g_item_map+0x500>
    3304:	f1cfe0ef          	jal	ra,1a20 <UART4_SendString>
    3308:	0ff00513          	li	a0,255
    330c:	eecfe0ef          	jal	ra,19f8 <UART4_SendByte>
    3310:	0ff00513          	li	a0,255
    3314:	ee4fe0ef          	jal	ra,19f8 <UART4_SendByte>
    3318:	0ff00513          	li	a0,255
    331c:	edcfe0ef          	jal	ra,19f8 <UART4_SendByte>
    3320:	87c18793          	addi	a5,gp,-1924 # 20000554 <show_fail_page>
    3324:	239c                	lbu	a5,0(a5)
    3326:	87c18493          	addi	s1,gp,-1924 # 20000554 <show_fail_page>
    332a:	0ff7f793          	andi	a5,a5,255
    332e:	c3b1                	beqz	a5,3372 <main+0x438>
    3330:	401c                	lw	a5,0(s0)
    3332:	84c1a703          	lw	a4,-1972(gp) # 20000524 <fail_page_start>
    3336:	8f99                	sub	a5,a5,a4
    3338:	4705                	li	a4,1
    333a:	02f77c63          	bgeu	a4,a5,3372 <main+0x438>
    333e:	0000b537          	lui	a0,0xb
    3342:	c2c50513          	addi	a0,a0,-980 # ac2c <_read+0x4e6>
    3346:	00048023          	sb	zero,0(s1)
    334a:	ed6fe0ef          	jal	ra,1a20 <UART4_SendString>
    334e:	0000c537          	lui	a0,0xc
    3352:	f7050513          	addi	a0,a0,-144 # bf70 <g_item_map+0x500>
    3356:	ecafe0ef          	jal	ra,1a20 <UART4_SendString>
    335a:	0ff00513          	li	a0,255
    335e:	e9afe0ef          	jal	ra,19f8 <UART4_SendByte>
    3362:	0ff00513          	li	a0,255
    3366:	e92fe0ef          	jal	ra,19f8 <UART4_SendByte>
    336a:	0ff00513          	li	a0,255
    336e:	e8afe0ef          	jal	ra,19f8 <UART4_SendByte>
    3372:	95bfe0ef          	jal	ra,1ccc <Process_K230_Data>
    3376:	f48fd0ef          	jal	ra,abe <Cloud_ProcessRX>
    337a:	b0dfd0ef          	jal	ra,e86 <Cloud_ProcessPendingRecharges>
    337e:	86418793          	addi	a5,gp,-1948 # 2000053c <last_heartbeat.6482>
    3382:	4394                	lw	a3,0(a5)
    3384:	4018                	lw	a4,0(s0)
    3386:	8f15                	sub	a4,a4,a3
    3388:	46a5                	li	a3,9
    338a:	00e6f663          	bgeu	a3,a4,3396 <main+0x45c>
    338e:	4018                	lw	a4,0(s0)
    3390:	c398                	sw	a4,0(a5)
    3392:	a41fd0ef          	jal	ra,dd2 <Cloud_SendHeartbeat>
    3396:	87818793          	addi	a5,gp,-1928 # 20000550 <rfid_div.6483>
    339a:	4398                	lw	a4,0(a5)
    339c:	4691                	li	a3,4
    339e:	0705                	addi	a4,a4,1
    33a0:	87418993          	addi	s3,gp,-1932 # 2000054c <rfid_busy>
    33a4:	24e6e563          	bltu	a3,a4,35ee <main+0x6b4>
    33a8:	c398                	sw	a4,0(a5)
    33aa:	87018793          	addi	a5,gp,-1936 # 20000548 <menu_div.6484>
    33ae:	4394                	lw	a3,0(a5)
    33b0:	577d                	li	a4,-1
    33b2:	0007a023          	sw	zero,0(a5)
    33b6:	24e69363          	bne	a3,a4,35fc <main+0x6c2>
    33ba:	0009c783          	lbu	a5,0(s3)
    33be:	0ff7f793          	andi	a5,a5,255
    33c2:	24078263          	beqz	a5,3606 <main+0x6cc>
    33c6:	8301a583          	lw	a1,-2000(gp) # 20000508 <g_sys_tick>
    33ca:	0000c537          	lui	a0,0xc
    33ce:	f7c50513          	addi	a0,a0,-132 # bf7c <g_item_map+0x50c>
    33d2:	150020ef          	jal	ra,5522 <iprintf>
    33d6:	3e800513          	li	a0,1000
    33da:	ab4fe0ef          	jal	ra,168e <delay_ms>
    33de:	80618793          	addi	a5,gp,-2042 # 200004de <Uart_Flag>
    33e2:	2394                	lbu	a3,0(a5)
    33e4:	4705                	li	a4,1
    33e6:	32e68463          	beq	a3,a4,370e <main+0x7d4>
    33ea:	0000c537          	lui	a0,0xc
    33ee:	0e450513          	addi	a0,a0,228 # c0e4 <g_item_map+0x674>
    33f2:	27c020ef          	jal	ra,566e <puts>
    33f6:	bd11                	j	320a <main+0x2d0>
    33f8:	0000c5b7          	lui	a1,0xc
    33fc:	b5058593          	addi	a1,a1,-1200 # bb50 <g_item_map+0xe0>
    3400:	b6c9                	j	2fc2 <main+0x88>
    3402:	017407b3          	add	a5,s0,s7
    3406:	238c                	lbu	a1,0(a5)
    3408:	f38c0513          	addi	a0,s8,-200 # bf38 <g_item_map+0x4c8>
    340c:	0405                	addi	s0,s0,1
    340e:	114020ef          	jal	ra,5522 <iprintf>
    3412:	b5b5                	j	327e <main+0x344>
    3414:	001d0793          	addi	a5,s10,1
    3418:	00e78633          	add	a2,a5,a4
    341c:	fff64603          	lbu	a2,-1(a2)
    3420:	00d60463          	beq	a2,a3,3428 <main+0x4ee>
    3424:	8d3e                	mv	s10,a5
    3426:	b551                	j	32aa <main+0x370>
    3428:	e80987e3          	beqz	s3,32b6 <main+0x37c>
    342c:	4c01                	li	s8,0
    342e:	458d                	li	a1,3
    3430:	4ca9                	li	s9,10
    3432:	02c00793          	li	a5,44
    3436:	010c1b93          	slli	s7,s8,0x10
    343a:	010bdb93          	srli	s7,s7,0x10
    343e:	0135f563          	bgeu	a1,s3,3448 <main+0x50e>
    3442:	0b9c1763          	bne	s8,s9,34f0 <main+0x5b6>
    3446:	4ba9                	li	s7,10
    3448:	00198793          	addi	a5,s3,1
    344c:	01079c93          	slli	s9,a5,0x10
    3450:	010cdc93          	srli	s9,s9,0x10
    3454:	001c8713          	addi	a4,s9,1
    3458:	03275463          	bge	a4,s2,3480 <main+0x546>
    345c:	01940733          	add	a4,s0,s9
    3460:	2314                	lbu	a3,0(a4)
    3462:	4735                	li	a4,13
    3464:	00e69e63          	bne	a3,a4,3480 <main+0x546>
    3468:	014c8733          	add	a4,s9,s4
    346c:	2314                	lbu	a3,0(a4)
    346e:	4729                	li	a4,10
    3470:	00e69863          	bne	a3,a4,3480 <main+0x546>
    3474:	00398793          	addi	a5,s3,3
    3478:	01079c93          	slli	s9,a5,0x10
    347c:	010cdc93          	srli	s9,s9,0x10
    3480:	db418793          	addi	a5,gp,-588 # 20000a8c <UART5_RxBuf+0x4>
    3484:	cc3e                	sw	a5,24(sp)
    3486:	db318793          	addi	a5,gp,-589 # 20000a8b <UART5_RxBuf+0x3>
    348a:	4481                	li	s1,0
    348c:	d03e                	sw	a5,32(sp)
    348e:	1574f863          	bgeu	s1,s7,35de <main+0x6a4>
    3492:	05500613          	li	a2,85
    3496:	0aa00693          	li	a3,170
    349a:	a08d                	j	34fc <main+0x5c2>
    349c:	001b8493          	addi	s1,s7,1
    34a0:	0ff4fb93          	andi	s7,s1,255
    34a4:	01758db3          	add	s11,a1,s7
    34a8:	01add763          	bge	s11,s10,34b6 <main+0x57c>
    34ac:	01b406b3          	add	a3,s0,s11
    34b0:	2294                	lbu	a3,0(a3)
    34b2:	fef695e3          	bne	a3,a5,349c <main+0x562>
    34b6:	021c                	addi	a5,sp,256
    34b8:	005c1493          	slli	s1,s8,0x5
    34bc:	00978533          	add	a0,a5,s1
    34c0:	95a2                	add	a1,a1,s0
    34c2:	865e                	mv	a2,s7
    34c4:	7ad010ef          	jal	ra,5470 <memcpy>
    34c8:	010d9593          	slli	a1,s11,0x10
    34cc:	81c1                	srli	a1,a1,0x10
    34ce:	049c                	addi	a5,sp,576
    34d0:	00b406b3          	add	a3,s0,a1
    34d4:	94be                	add	s1,s1,a5
    34d6:	2294                	lbu	a3,0(a3)
    34d8:	94de                	add	s1,s1,s7
    34da:	ec048023          	sb	zero,-320(s1)
    34de:	02c00793          	li	a5,44
    34e2:	00f69563          	bne	a3,a5,34ec <main+0x5b2>
    34e6:	0585                	addi	a1,a1,1
    34e8:	05c2                	slli	a1,a1,0x10
    34ea:	81c1                	srli	a1,a1,0x10
    34ec:	0c05                	addi	s8,s8,1
    34ee:	b7a1                	j	3436 <main+0x4fc>
    34f0:	4b81                	li	s7,0
    34f2:	bf4d                	j	34a4 <main+0x56a>
    34f4:	01071c93          	slli	s9,a4,0x10
    34f8:	010cdc93          	srli	s9,s9,0x10
    34fc:	001c8713          	addi	a4,s9,1
    3500:	01275c63          	bge	a4,s2,3518 <main+0x5de>
    3504:	019405b3          	add	a1,s0,s9
    3508:	218c                	lbu	a1,0(a1)
    350a:	fec595e3          	bne	a1,a2,34f4 <main+0x5ba>
    350e:	014c85b3          	add	a1,s9,s4
    3512:	218c                	lbu	a1,0(a1)
    3514:	fed590e3          	bne	a1,a3,34f4 <main+0x5ba>
    3518:	005c8713          	addi	a4,s9,5
    351c:	0d275163          	bge	a4,s2,35de <main+0x6a4>
    3520:	8081cc03          	lbu	s8,-2040(gp) # 200004e0 <g_price_count>
    3524:	47e2                	lw	a5,24(sp)
    3526:	02200693          	li	a3,34
    352a:	02dc06b3          	mul	a3,s8,a3
    352e:	00fc8733          	add	a4,s9,a5
    3532:	5782                	lw	a5,32(sp)
    3534:	2310                	lbu	a2,0(a4)
    3536:	200009b7          	lui	s3,0x20000
    353a:	00fc8733          	add	a4,s9,a5
    353e:	2318                	lbu	a4,0(a4)
    3540:	0622                	slli	a2,a2,0x8
    3542:	006c8793          	addi	a5,s9,6
    3546:	8e59                	or	a2,a2,a4
    3548:	00098713          	mv	a4,s3
    354c:	9736                	add	a4,a4,a3
    354e:	01079c93          	slli	s9,a5,0x10
    3552:	00549313          	slli	t1,s1,0x5
    3556:	021c                	addi	a5,sp,256
    3558:	66b1                	lui	a3,0xc
    355a:	b312                	sh	a2,32(a4)
    355c:	010cdc93          	srli	s9,s9,0x10
    3560:	933e                	add	t1,t1,a5
    3562:	a7068893          	addi	a7,a3,-1424 # ba70 <g_item_map>
    3566:	4701                	li	a4,0
    3568:	80818d93          	addi	s11,gp,-2040 # 200004e0 <g_price_count>
    356c:	00098993          	mv	s3,s3
    3570:	0048a583          	lw	a1,4(a7)
    3574:	851a                	mv	a0,t1
    3576:	de3a                	sw	a4,60(sp)
    3578:	dc32                	sw	a2,56(sp)
    357a:	da46                	sw	a7,52(sp)
    357c:	d41a                	sw	t1,40(sp)
    357e:	d4bfc0ef          	jal	ra,2c8 <strcmp>
    3582:	67b1                	lui	a5,0xc
    3584:	5322                	lw	t1,40(sp)
    3586:	58d2                	lw	a7,52(sp)
    3588:	5662                	lw	a2,56(sp)
    358a:	5772                	lw	a4,60(sp)
    358c:	a7078693          	addi	a3,a5,-1424 # ba70 <g_item_map>
    3590:	4e69                	li	t3,26
    3592:	e129                	bnez	a0,35d4 <main+0x69a>
    3594:	02200513          	li	a0,34
    3598:	02ac0533          	mul	a0,s8,a0
    359c:	070e                	slli	a4,a4,0x3
    359e:	9736                	add	a4,a4,a3
    35a0:	430c                	lw	a1,0(a4)
    35a2:	d432                	sw	a2,40(sp)
    35a4:	954e                	add	a0,a0,s3
    35a6:	132020ef          	jal	ra,56d8 <strcpy>
    35aa:	5622                	lw	a2,40(sp)
    35ac:	02200593          	li	a1,34
    35b0:	02bc05b3          	mul	a1,s8,a1
    35b4:	0000c537          	lui	a0,0xc
    35b8:	f4050513          	addi	a0,a0,-192 # bf40 <g_item_map+0x4d0>
    35bc:	0485                	addi	s1,s1,1
    35be:	0ff4f493          	andi	s1,s1,255
    35c2:	95ce                	add	a1,a1,s3
    35c4:	75f010ef          	jal	ra,5522 <iprintf>
    35c8:	000dc703          	lbu	a4,0(s11)
    35cc:	0705                	addi	a4,a4,1
    35ce:	00ed8023          	sb	a4,0(s11)
    35d2:	bd75                	j	348e <main+0x554>
    35d4:	0705                	addi	a4,a4,1
    35d6:	08a1                	addi	a7,a7,8
    35d8:	f9c71ce3          	bne	a4,t3,3570 <main+0x636>
    35dc:	bfc1                	j	35ac <main+0x672>
    35de:	0000c537          	lui	a0,0xc
    35e2:	85de                	mv	a1,s7
    35e4:	f5450513          	addi	a0,a0,-172 # bf54 <g_item_map+0x4e4>
    35e8:	73b010ef          	jal	ra,5522 <iprintf>
    35ec:	b1e9                	j	32b6 <main+0x37c>
    35ee:	0007a023          	sw	zero,0(a5)
    35f2:	bdeff0ef          	jal	ra,29d0 <RFID_Payment_Process>
    35f6:	00098023          	sb	zero,0(s3) # 20000000 <_data_vma>
    35fa:	bb45                	j	33aa <main+0x470>
    35fc:	ed1fe0ef          	jal	ra,24cc <Send_Price_To_Screen>
    3600:	f9ffe0ef          	jal	ra,259e <Send_Breakfast_To_Screen>
    3604:	bb5d                	j	33ba <main+0x480>
    3606:	00094783          	lbu	a5,0(s2)
    360a:	0ff7f793          	andi	a5,a5,255
    360e:	da079ce3          	bnez	a5,33c6 <main+0x48c>
    3612:	209c                	lbu	a5,0(s1)
    3614:	0ff7f793          	andi	a5,a5,255
    3618:	da0797e3          	bnez	a5,33c6 <main+0x48c>
    361c:	86818793          	addi	a5,gp,-1944 # 20000540 <last_screen.6485>
    3620:	4018                	lw	a4,0(s0)
    3622:	4394                	lw	a3,0(a5)
    3624:	dad701e3          	beq	a4,a3,33c6 <main+0x48c>
    3628:	4018                	lw	a4,0(s0)
    362a:	8f15                	sub	a4,a4,a3
    362c:	4685                	li	a3,1
    362e:	d8e6fce3          	bgeu	a3,a4,33c6 <main+0x48c>
    3632:	4018                	lw	a4,0(s0)
    3634:	c398                	sw	a4,0(a5)
    3636:	b3bfe0ef          	jal	ra,2170 <Send_Merged_Data_To_Screen>
    363a:	24018513          	addi	a0,gp,576 # 20000f18 <g_saved_dishes>
    363e:	fb018d13          	addi	s10,gp,-80 # 20000c88 <g_items>
    3642:	03c00613          	li	a2,60
    3646:	4581                	li	a1,0
    3648:	bd9fc0ef          	jal	ra,220 <memset>
    364c:	140d0b13          	addi	s6,s10,320
    3650:	4481                	li	s1,0
    3652:	fb018413          	addi	s0,gp,-80 # 20000c88 <g_items>
    3656:	03900b93          	li	s7,57
    365a:	24018913          	addi	s2,gp,576 # 20000f18 <g_saved_dishes>
    365e:	03b00993          	li	s3,59
    3662:	02c00c13          	li	s8,44
    3666:	04cd4783          	lbu	a5,76(s10)
    366a:	c3a9                	beqz	a5,36ac <main+0x772>
    366c:	014d0783          	lb	a5,20(s10)
    3670:	014d0593          	addi	a1,s10,20
    3674:	cf85                	beqz	a5,36ac <main+0x772>
    3676:	fff48793          	addi	a5,s1,-1
    367a:	00fbe763          	bltu	s7,a5,3688 <main+0x74e>
    367e:	009907b3          	add	a5,s2,s1
    3682:	01878023          	sb	s8,0(a5)
    3686:	0485                	addi	s1,s1,1
    3688:	852e                	mv	a0,a1
    368a:	cc2e                	sw	a1,24(sp)
    368c:	05c020ef          	jal	ra,56e8 <strlen>
    3690:	00a487b3          	add	a5,s1,a0
    3694:	8daa                	mv	s11,a0
    3696:	45e2                	lw	a1,24(sp)
    3698:	00f9d463          	bge	s3,a5,36a0 <main+0x766>
    369c:	40998db3          	sub	s11,s3,s1
    36a0:	00990533          	add	a0,s2,s1
    36a4:	866e                	mv	a2,s11
    36a6:	5cb010ef          	jal	ra,5470 <memcpy>
    36aa:	94ee                	add	s1,s1,s11
    36ac:	050d0d13          	addi	s10,s10,80
    36b0:	fbab1be3          	bne	s6,s10,3666 <main+0x72c>
    36b4:	0000b4b7          	lui	s1,0xb
    36b8:	d5448593          	addi	a1,s1,-684 # ad54 <_read+0x60e>
    36bc:	01440513          	addi	a0,s0,20
    36c0:	018020ef          	jal	ra,56d8 <strcpy>
    36c4:	00000793          	li	a5,0
    36c8:	c43c                	sw	a5,72(s0)
    36ca:	d5448593          	addi	a1,s1,-684
    36ce:	04040623          	sb	zero,76(s0)
    36d2:	06440513          	addi	a0,s0,100
    36d6:	893e                	mv	s2,a5
    36d8:	000020ef          	jal	ra,56d8 <strcpy>
    36dc:	d5448593          	addi	a1,s1,-684
    36e0:	08040e23          	sb	zero,156(s0)
    36e4:	09242c23          	sw	s2,152(s0)
    36e8:	0b440513          	addi	a0,s0,180
    36ec:	7ed010ef          	jal	ra,56d8 <strcpy>
    36f0:	d5448593          	addi	a1,s1,-684
    36f4:	0e040623          	sb	zero,236(s0)
    36f8:	0f242423          	sw	s2,232(s0)
    36fc:	10440513          	addi	a0,s0,260
    3700:	7d9010ef          	jal	ra,56d8 <strcpy>
    3704:	12040e23          	sb	zero,316(s0)
    3708:	13242c23          	sw	s2,312(s0)
    370c:	b96d                	j	33c6 <main+0x48c>
    370e:	0000c537          	lui	a0,0xc
    3712:	f9050513          	addi	a0,a0,-112 # bf90 <g_item_map+0x520>
    3716:	06010913          	addi	s2,sp,96
    371a:	1884                	addi	s1,sp,112
    371c:	00078023          	sb	zero,0(a5)
    3720:	89a6                	mv	s3,s1
    3722:	74d010ef          	jal	ra,566e <puts>
    3726:	8b4a                	mv	s6,s2
    3728:	4401                	li	s0,0
    372a:	4b91                	li	s7,4
    372c:	8522                	mv	a0,s0
    372e:	e9dfc0ef          	jal	ra,5ca <ADS1234_ReadData>
    3732:	00ab2023          	sw	a0,0(s6)
    3736:	85aa                	mv	a1,a0
    3738:	8522                	mv	a0,s0
    373a:	8a2fd0ef          	jal	ra,7dc <ADS1234_ToWeight>
    373e:	00a9a023          	sw	a0,0(s3)
    3742:	0405                	addi	s0,s0,1
    3744:	0b11                	addi	s6,s6,4
    3746:	0991                	addi	s3,s3,4
    3748:	ff7412e3          	bne	s0,s7,372c <main+0x7f2>
    374c:	4401                	li	s0,0
    374e:	4785                	li	a5,1
    3750:	0000cb37          	lui	s6,0xc
    3754:	4991                	li	s3,4
    3756:	00092703          	lw	a4,0(s2)
    375a:	0405                	addi	s0,s0,1
    375c:	e719                	bnez	a4,376a <main+0x830>
    375e:	85a2                	mv	a1,s0
    3760:	fb8b0513          	addi	a0,s6,-72 # bfb8 <g_item_map+0x548>
    3764:	5bf010ef          	jal	ra,5522 <iprintf>
    3768:	4781                	li	a5,0
    376a:	0911                	addi	s2,s2,4
    376c:	ff3415e3          	bne	s0,s3,3756 <main+0x81c>
    3770:	a8078de3          	beqz	a5,320a <main+0x2d0>
    3774:	8526                	mv	a0,s1
    3776:	27c18413          	addi	s0,gp,636 # 20000f54 <g_weights>
    377a:	decfe0ef          	jal	ra,1d66 <CompensateCrosstalkSimple>
    377e:	03040993          	addi	s3,s0,48
    3782:	4905                	li	s2,1
    3784:	409c                	lw	a5,0(s1)
    3786:	01240223          	sb	s2,4(s0)
    378a:	0431                	addi	s0,s0,12
    378c:	fef42a23          	sw	a5,-12(s0)
    3790:	f4bfd0ef          	jal	ra,16da <GetSysTick>
    3794:	fea42e23          	sw	a0,-4(s0)
    3798:	0491                	addi	s1,s1,4
    379a:	ff3415e3          	bne	s0,s3,3784 <main+0x84a>
    379e:	5566                	lw	a0,120(sp)
    37a0:	85218f23          	sb	s2,-1954(gp) # 20000536 <g_weights_updated>
    37a4:	21f010ef          	jal	ra,51c2 <__extendsfdf2>
    37a8:	d42a                	sw	a0,40(sp)
    37aa:	5556                	lw	a0,116(sp)
    37ac:	d62e                	sw	a1,44(sp)
    37ae:	0000b437          	lui	s0,0xb
    37b2:	211010ef          	jal	ra,51c2 <__extendsfdf2>
    37b6:	d02a                	sw	a0,32(sp)
    37b8:	5546                	lw	a0,112(sp)
    37ba:	d22e                	sw	a1,36(sp)
    37bc:	207010ef          	jal	ra,51c2 <__extendsfdf2>
    37c0:	cc2a                	sw	a0,24(sp)
    37c2:	5576                	lw	a0,124(sp)
    37c4:	ce2e                	sw	a1,28(sp)
    37c6:	1fd010ef          	jal	ra,51c2 <__extendsfdf2>
    37ca:	5822                	lw	a6,40(sp)
    37cc:	58b2                	lw	a7,44(sp)
    37ce:	5702                	lw	a4,32(sp)
    37d0:	46f2                	lw	a3,28(sp)
    37d2:	4662                	lw	a2,24(sp)
    37d4:	5792                	lw	a5,36(sp)
    37d6:	c02a                	sw	a0,0(sp)
    37d8:	0000c537          	lui	a0,0xc
    37dc:	c22e                	sw	a1,4(sp)
    37de:	fe050513          	addi	a0,a0,-32 # bfe0 <g_item_map+0x570>
    37e2:	541010ef          	jal	ra,5522 <iprintf>
    37e6:	8501c583          	lbu	a1,-1968(gp) # 20000528 <g_items_updated>
    37ea:	0000c537          	lui	a0,0xc
    37ee:	02850513          	addi	a0,a0,40 # c028 <g_item_map+0x5b8>
    37f2:	531010ef          	jal	ra,5522 <iprintf>
    37f6:	0000c537          	lui	a0,0xc
    37fa:	05c50513          	addi	a0,a0,92 # c05c <g_item_map+0x5ec>
    37fe:	671010ef          	jal	ra,566e <puts>
    3802:	5546                	lw	a0,112(sp)
    3804:	85d6                	mv	a1,s5
    3806:	222010ef          	jal	ra,4a28 <__mulsf3>
    380a:	03b010ef          	jal	ra,5044 <__fixsfsi>
    380e:	0000c5b7          	lui	a1,0xc
    3812:	862a                	mv	a2,a0
    3814:	09458593          	addi	a1,a1,148 # c094 <g_item_map+0x624>
    3818:	0208                	addi	a0,sp,256
    381a:	661010ef          	jal	ra,567a <siprintf>
    381e:	0208                	addi	a0,sp,256
    3820:	a00fe0ef          	jal	ra,1a20 <UART4_SendString>
    3824:	4529                	li	a0,10
    3826:	e69fd0ef          	jal	ra,168e <delay_ms>
    382a:	b7042583          	lw	a1,-1168(s0) # ab70 <_read+0x42a>
    382e:	5556                	lw	a0,116(sp)
    3830:	1f8010ef          	jal	ra,4a28 <__mulsf3>
    3834:	011010ef          	jal	ra,5044 <__fixsfsi>
    3838:	0000c5b7          	lui	a1,0xc
    383c:	862a                	mv	a2,a0
    383e:	0a858593          	addi	a1,a1,168 # c0a8 <g_item_map+0x638>
    3842:	0208                	addi	a0,sp,256
    3844:	637010ef          	jal	ra,567a <siprintf>
    3848:	0208                	addi	a0,sp,256
    384a:	9d6fe0ef          	jal	ra,1a20 <UART4_SendString>
    384e:	4529                	li	a0,10
    3850:	e3ffd0ef          	jal	ra,168e <delay_ms>
    3854:	b7042583          	lw	a1,-1168(s0)
    3858:	5566                	lw	a0,120(sp)
    385a:	1ce010ef          	jal	ra,4a28 <__mulsf3>
    385e:	7e6010ef          	jal	ra,5044 <__fixsfsi>
    3862:	0000c5b7          	lui	a1,0xc
    3866:	862a                	mv	a2,a0
    3868:	0bc58593          	addi	a1,a1,188 # c0bc <g_item_map+0x64c>
    386c:	0208                	addi	a0,sp,256
    386e:	60d010ef          	jal	ra,567a <siprintf>
    3872:	0208                	addi	a0,sp,256
    3874:	9acfe0ef          	jal	ra,1a20 <UART4_SendString>
    3878:	4529                	li	a0,10
    387a:	e15fd0ef          	jal	ra,168e <delay_ms>
    387e:	b7042583          	lw	a1,-1168(s0)
    3882:	5576                	lw	a0,124(sp)
    3884:	1a4010ef          	jal	ra,4a28 <__mulsf3>
    3888:	7bc010ef          	jal	ra,5044 <__fixsfsi>
    388c:	0000c5b7          	lui	a1,0xc
    3890:	862a                	mv	a2,a0
    3892:	0d058593          	addi	a1,a1,208 # c0d0 <g_item_map+0x660>
    3896:	0208                	addi	a0,sp,256
    3898:	5e3010ef          	jal	ra,567a <siprintf>
    389c:	0208                	addi	a0,sp,256
    389e:	982fe0ef          	jal	ra,1a20 <UART4_SendString>
    38a2:	969ff06f          	j	320a <main+0x2d0>

000038a6 <SystemInit>:
    38a6:	400217b7          	lui	a5,0x40021
    38aa:	4398                	lw	a4,0(a5)
    38ac:	f0ff06b7          	lui	a3,0xf0ff0
    38b0:	00176713          	ori	a4,a4,1
    38b4:	c398                	sw	a4,0(a5)
    38b6:	43d8                	lw	a4,4(a5)
    38b8:	8f75                	and	a4,a4,a3
    38ba:	c3d8                	sw	a4,4(a5)
    38bc:	4398                	lw	a4,0(a5)
    38be:	fef706b7          	lui	a3,0xfef70
    38c2:	16fd                	addi	a3,a3,-1
    38c4:	8f75                	and	a4,a4,a3
    38c6:	c398                	sw	a4,0(a5)
    38c8:	4398                	lw	a4,0(a5)
    38ca:	fffc06b7          	lui	a3,0xfffc0
    38ce:	16fd                	addi	a3,a3,-1
    38d0:	8f75                	and	a4,a4,a3
    38d2:	c398                	sw	a4,0(a5)
    38d4:	43d8                	lw	a4,4(a5)
    38d6:	ff0106b7          	lui	a3,0xff010
    38da:	16fd                	addi	a3,a3,-1
    38dc:	8f75                	and	a4,a4,a3
    38de:	c3d8                	sw	a4,4(a5)
    38e0:	4398                	lw	a4,0(a5)
    38e2:	ec0006b7          	lui	a3,0xec000
    38e6:	16fd                	addi	a3,a3,-1
    38e8:	8f75                	and	a4,a4,a3
    38ea:	c398                	sw	a4,0(a5)
    38ec:	00ff0737          	lui	a4,0xff0
    38f0:	c798                	sw	a4,8(a5)
    38f2:	0207a623          	sw	zero,44(a5) # 4002102c <_eusrstack+0x2001902c>
    38f6:	400246b7          	lui	a3,0x40024
    38fa:	8006a703          	lw	a4,-2048(a3) # 40023800 <_eusrstack+0x2001b800>
    38fe:	01076713          	ori	a4,a4,16
    3902:	80e6a023          	sw	a4,-2048(a3)
    3906:	43d8                	lw	a4,4(a5)
    3908:	ffc106b7          	lui	a3,0xffc10
    390c:	16fd                	addi	a3,a3,-1
    390e:	c3d8                	sw	a4,4(a5)
    3910:	43d8                	lw	a4,4(a5)
    3912:	c3d8                	sw	a4,4(a5)
    3914:	43d8                	lw	a4,4(a5)
    3916:	40076713          	ori	a4,a4,1024
    391a:	c3d8                	sw	a4,4(a5)
    391c:	43d8                	lw	a4,4(a5)
    391e:	8f75                	and	a4,a4,a3
    3920:	c3d8                	sw	a4,4(a5)
    3922:	43d8                	lw	a4,4(a5)
    3924:	003806b7          	lui	a3,0x380
    3928:	8f55                	or	a4,a4,a3
    392a:	c3d8                	sw	a4,4(a5)
    392c:	4398                	lw	a4,0(a5)
    392e:	010006b7          	lui	a3,0x1000
    3932:	8f55                	or	a4,a4,a3
    3934:	c398                	sw	a4,0(a5)
    3936:	4398                	lw	a4,0(a5)
    3938:	00671693          	slli	a3,a4,0x6
    393c:	fe06dde3          	bgez	a3,3936 <SystemInit+0x90>
    3940:	43d8                	lw	a4,4(a5)
    3942:	400216b7          	lui	a3,0x40021
    3946:	9b71                	andi	a4,a4,-4
    3948:	c3d8                	sw	a4,4(a5)
    394a:	43d8                	lw	a4,4(a5)
    394c:	00276713          	ori	a4,a4,2
    3950:	c3d8                	sw	a4,4(a5)
    3952:	4721                	li	a4,8
    3954:	42dc                	lw	a5,4(a3)
    3956:	8bb1                	andi	a5,a5,12
    3958:	fee79ee3          	bne	a5,a4,3954 <SystemInit+0xae>
    395c:	8082                	ret

0000395e <SystemCoreClockUpdate>:
    395e:	400216b7          	lui	a3,0x40021
    3962:	42d8                	lw	a4,4(a3)
    3964:	4611                	li	a2,4
    3966:	8b31                	andi	a4,a4,12
    3968:	80c18793          	addi	a5,gp,-2036 # 200004e4 <SystemCoreClock>
    396c:	00c70563          	beq	a4,a2,3976 <SystemCoreClockUpdate+0x18>
    3970:	4621                	li	a2,8
    3972:	02c70863          	beq	a4,a2,39a2 <SystemCoreClockUpdate+0x44>
    3976:	007a1737          	lui	a4,0x7a1
    397a:	20070713          	addi	a4,a4,512 # 7a1200 <_data_lma+0x794914>
    397e:	c398                	sw	a4,0(a5)
    3980:	40021737          	lui	a4,0x40021
    3984:	4358                	lw	a4,4(a4)
    3986:	8311                	srli	a4,a4,0x4
    3988:	00f77693          	andi	a3,a4,15
    398c:	20000737          	lui	a4,0x20000
    3990:	2ec70713          	addi	a4,a4,748 # 200002ec <AHBPrescTable>
    3994:	9736                	add	a4,a4,a3
    3996:	2314                	lbu	a3,0(a4)
    3998:	4398                	lw	a4,0(a5)
    399a:	00d75733          	srl	a4,a4,a3
    399e:	c398                	sw	a4,0(a5)
    39a0:	8082                	ret
    39a2:	42d8                	lw	a4,4(a3)
    39a4:	42d4                	lw	a3,4(a3)
    39a6:	6641                	lui	a2,0x10
    39a8:	8349                	srli	a4,a4,0x12
    39aa:	8b3d                	andi	a4,a4,15
    39ac:	8ef1                	and	a3,a3,a2
    39ae:	00270613          	addi	a2,a4,2
    39b2:	cf15                	beqz	a4,39ee <SystemCoreClockUpdate+0x90>
    39b4:	473d                	li	a4,15
    39b6:	02e60f63          	beq	a2,a4,39f4 <SystemCoreClockUpdate+0x96>
    39ba:	4741                	li	a4,16
    39bc:	02e60f63          	beq	a2,a4,39fa <SystemCoreClockUpdate+0x9c>
    39c0:	4745                	li	a4,17
    39c2:	4581                	li	a1,0
    39c4:	00e61363          	bne	a2,a4,39ca <SystemCoreClockUpdate+0x6c>
    39c8:	4641                	li	a2,16
    39ca:	e2a1                	bnez	a3,3a0a <SystemCoreClockUpdate+0xac>
    39cc:	40024737          	lui	a4,0x40024
    39d0:	80072703          	lw	a4,-2048(a4) # 40023800 <_eusrstack+0x2001b800>
    39d4:	8b41                	andi	a4,a4,16
    39d6:	c70d                	beqz	a4,3a00 <SystemCoreClockUpdate+0xa2>
    39d8:	007a1737          	lui	a4,0x7a1
    39dc:	20070713          	addi	a4,a4,512 # 7a1200 <_data_lma+0x794914>
    39e0:	02c70633          	mul	a2,a4,a2
    39e4:	c390                	sw	a2,0(a5)
    39e6:	ddc9                	beqz	a1,3980 <SystemCoreClockUpdate+0x22>
    39e8:	4398                	lw	a4,0(a5)
    39ea:	8305                	srli	a4,a4,0x1
    39ec:	bf49                	j	397e <SystemCoreClockUpdate+0x20>
    39ee:	4581                	li	a1,0
    39f0:	4649                	li	a2,18
    39f2:	bfe1                	j	39ca <SystemCoreClockUpdate+0x6c>
    39f4:	4585                	li	a1,1
    39f6:	4635                	li	a2,13
    39f8:	bfc9                	j	39ca <SystemCoreClockUpdate+0x6c>
    39fa:	4581                	li	a1,0
    39fc:	463d                	li	a2,15
    39fe:	b7f1                	j	39ca <SystemCoreClockUpdate+0x6c>
    3a00:	003d1737          	lui	a4,0x3d1
    3a04:	90070713          	addi	a4,a4,-1792 # 3d0900 <_data_lma+0x3c4014>
    3a08:	bfe1                	j	39e0 <SystemCoreClockUpdate+0x82>
    3a0a:	40021537          	lui	a0,0x40021
    3a0e:	5558                	lw	a4,44(a0)
    3a10:	00f71693          	slli	a3,a4,0xf
    3a14:	5558                	lw	a4,44(a0)
    3a16:	0406df63          	bgez	a3,3a74 <SystemCoreClockUpdate+0x116>
    3a1a:	8311                	srli	a4,a4,0x4
    3a1c:	8b3d                	andi	a4,a4,15
    3a1e:	00170693          	addi	a3,a4,1
    3a22:	007a1737          	lui	a4,0x7a1
    3a26:	20070713          	addi	a4,a4,512 # 7a1200 <_data_lma+0x794914>
    3a2a:	02d75733          	divu	a4,a4,a3
    3a2e:	c398                	sw	a4,0(a5)
    3a30:	5554                	lw	a3,44(a0)
    3a32:	82a1                	srli	a3,a3,0x8
    3a34:	8abd                	andi	a3,a3,15
    3a36:	e28d                	bnez	a3,3a58 <SystemCoreClockUpdate+0xfa>
    3a38:	4695                	li	a3,5
    3a3a:	02d70733          	mul	a4,a4,a3
    3a3e:	8305                	srli	a4,a4,0x1
    3a40:	c398                	sw	a4,0(a5)
    3a42:	40021737          	lui	a4,0x40021
    3a46:	5758                	lw	a4,44(a4)
    3a48:	4394                	lw	a3,0(a5)
    3a4a:	8b3d                	andi	a4,a4,15
    3a4c:	0705                	addi	a4,a4,1
    3a4e:	02e6d733          	divu	a4,a3,a4
    3a52:	c398                	sw	a4,0(a5)
    3a54:	4398                	lw	a4,0(a5)
    3a56:	b769                	j	39e0 <SystemCoreClockUpdate+0x82>
    3a58:	4505                	li	a0,1
    3a5a:	00a69463          	bne	a3,a0,3a62 <SystemCoreClockUpdate+0x104>
    3a5e:	46e5                	li	a3,25
    3a60:	bfe9                	j	3a3a <SystemCoreClockUpdate+0xdc>
    3a62:	453d                	li	a0,15
    3a64:	00a69663          	bne	a3,a0,3a70 <SystemCoreClockUpdate+0x112>
    3a68:	46d1                	li	a3,20
    3a6a:	02e68733          	mul	a4,a3,a4
    3a6e:	bfc9                	j	3a40 <SystemCoreClockUpdate+0xe2>
    3a70:	0689                	addi	a3,a3,2
    3a72:	bfe5                	j	3a6a <SystemCoreClockUpdate+0x10c>
    3a74:	8b3d                	andi	a4,a4,15
    3a76:	00170693          	addi	a3,a4,1 # 40021001 <_eusrstack+0x20019001>
    3a7a:	007a1737          	lui	a4,0x7a1
    3a7e:	20070713          	addi	a4,a4,512 # 7a1200 <_data_lma+0x794914>
    3a82:	02d75733          	divu	a4,a4,a3
    3a86:	b7f1                	j	3a52 <SystemCoreClockUpdate+0xf4>

00003a88 <ADC1_2_IRQHandler>:
    3a88:	a001                	j	3a88 <ADC1_2_IRQHandler>

00003a8a <handle_reset>:
    3a8a:	1fffd197          	auipc	gp,0x1fffd
    3a8e:	24e18193          	addi	gp,gp,590 # 20000cd8 <__global_pointer$>
    3a92:	20004117          	auipc	sp,0x20004
    3a96:	56e10113          	addi	sp,sp,1390 # 20008000 <_eusrstack>
    3a9a:	00009517          	auipc	a0,0x9
    3a9e:	e5250513          	addi	a0,a0,-430 # c8ec <_data_lma>
    3aa2:	1fffc597          	auipc	a1,0x1fffc
    3aa6:	55e58593          	addi	a1,a1,1374 # 20000000 <_data_vma>
    3aaa:	82018613          	addi	a2,gp,-2016 # 200004f8 <_edata>
    3aae:	00c5fa63          	bgeu	a1,a2,3ac2 <handle_reset+0x38>
    3ab2:	00052283          	lw	t0,0(a0)
    3ab6:	0055a023          	sw	t0,0(a1)
    3aba:	0511                	addi	a0,a0,4
    3abc:	0591                	addi	a1,a1,4
    3abe:	fec5eae3          	bltu	a1,a2,3ab2 <handle_reset+0x28>
    3ac2:	82018513          	addi	a0,gp,-2016 # 200004f8 <_edata>
    3ac6:	1fffe597          	auipc	a1,0x1fffe
    3aca:	cc258593          	addi	a1,a1,-830 # 20001788 <_ebss>
    3ace:	00b57763          	bgeu	a0,a1,3adc <handle_reset+0x52>
    3ad2:	00052023          	sw	zero,0(a0)
    3ad6:	0511                	addi	a0,a0,4
    3ad8:	feb56de3          	bltu	a0,a1,3ad2 <handle_reset+0x48>
    3adc:	42fd                	li	t0,31
    3ade:	bc029073          	csrw	0xbc0,t0
    3ae2:	42ad                	li	t0,11
    3ae4:	80429073          	csrw	0x804,t0
    3ae8:	000062b7          	lui	t0,0x6
    3aec:	08828293          	addi	t0,t0,136 # 6088 <_strtod_l+0x90c>
    3af0:	30029073          	csrw	mstatus,t0
    3af4:	ffffc297          	auipc	t0,0xffffc
    3af8:	51028293          	addi	t0,t0,1296 # 4 <_einit>
    3afc:	0032e293          	ori	t0,t0,3
    3b00:	30529073          	csrw	mtvec,t0
    3b04:	da3ff0ef          	jal	ra,38a6 <SystemInit>
    3b08:	fffff297          	auipc	t0,0xfffff
    3b0c:	43228293          	addi	t0,t0,1074 # 2f3a <main>
    3b10:	34129073          	csrw	mepc,t0
    3b14:	30200073          	mret

00003b18 <GPIO_Init>:
    3b18:	459c                	lw	a5,8(a1)
    3b1a:	0107f713          	andi	a4,a5,16
    3b1e:	00f7f813          	andi	a6,a5,15
    3b22:	c701                	beqz	a4,3b2a <GPIO_Init+0x12>
    3b24:	41d8                	lw	a4,4(a1)
    3b26:	00e86833          	or	a6,a6,a4
    3b2a:	218e                	lhu	a1,0(a1)
    3b2c:	0ff5f713          	andi	a4,a1,255
    3b30:	c339                	beqz	a4,3b76 <GPIO_Init+0x5e>
    3b32:	4118                	lw	a4,0(a0)
    3b34:	4681                	li	a3,0
    3b36:	4e85                	li	t4,1
    3b38:	4f3d                	li	t5,15
    3b3a:	02800f93          	li	t6,40
    3b3e:	04800293          	li	t0,72
    3b42:	4e21                	li	t3,8
    3b44:	00de9633          	sll	a2,t4,a3
    3b48:	00c5f8b3          	and	a7,a1,a2
    3b4c:	03161163          	bne	a2,a7,3b6e <GPIO_Init+0x56>
    3b50:	00269893          	slli	a7,a3,0x2
    3b54:	011f1333          	sll	t1,t5,a7
    3b58:	fff34313          	not	t1,t1
    3b5c:	00e37733          	and	a4,t1,a4
    3b60:	011818b3          	sll	a7,a6,a7
    3b64:	00e8e733          	or	a4,a7,a4
    3b68:	05f79f63          	bne	a5,t6,3bc6 <GPIO_Init+0xae>
    3b6c:	c950                	sw	a2,20(a0)
    3b6e:	0685                	addi	a3,a3,1
    3b70:	fdc69ae3          	bne	a3,t3,3b44 <GPIO_Init+0x2c>
    3b74:	c118                	sw	a4,0(a0)
    3b76:	0ff00713          	li	a4,255
    3b7a:	04b77563          	bgeu	a4,a1,3bc4 <GPIO_Init+0xac>
    3b7e:	4154                	lw	a3,4(a0)
    3b80:	4621                	li	a2,8
    3b82:	4e85                	li	t4,1
    3b84:	4f3d                	li	t5,15
    3b86:	02800f93          	li	t6,40
    3b8a:	04800293          	li	t0,72
    3b8e:	4e41                	li	t3,16
    3b90:	00ce98b3          	sll	a7,t4,a2
    3b94:	0115f733          	and	a4,a1,a7
    3b98:	02e89263          	bne	a7,a4,3bbc <GPIO_Init+0xa4>
    3b9c:	00261713          	slli	a4,a2,0x2
    3ba0:	1701                	addi	a4,a4,-32
    3ba2:	00ef1333          	sll	t1,t5,a4
    3ba6:	fff34313          	not	t1,t1
    3baa:	00d376b3          	and	a3,t1,a3
    3bae:	00e81733          	sll	a4,a6,a4
    3bb2:	8ed9                	or	a3,a3,a4
    3bb4:	01f79d63          	bne	a5,t6,3bce <GPIO_Init+0xb6>
    3bb8:	01152a23          	sw	a7,20(a0)
    3bbc:	0605                	addi	a2,a2,1
    3bbe:	fdc619e3          	bne	a2,t3,3b90 <GPIO_Init+0x78>
    3bc2:	c154                	sw	a3,4(a0)
    3bc4:	8082                	ret
    3bc6:	fa5794e3          	bne	a5,t0,3b6e <GPIO_Init+0x56>
    3bca:	c910                	sw	a2,16(a0)
    3bcc:	b74d                	j	3b6e <GPIO_Init+0x56>
    3bce:	fe5797e3          	bne	a5,t0,3bbc <GPIO_Init+0xa4>
    3bd2:	01152823          	sw	a7,16(a0)
    3bd6:	b7dd                	j	3bbc <GPIO_Init+0xa4>

00003bd8 <GPIO_ReadInputDataBit>:
    3bd8:	4508                	lw	a0,8(a0)
    3bda:	8d6d                	and	a0,a0,a1
    3bdc:	00a03533          	snez	a0,a0
    3be0:	8082                	ret

00003be2 <GPIO_ReadOutputDataBit>:
    3be2:	4548                	lw	a0,12(a0)
    3be4:	8d6d                	and	a0,a0,a1
    3be6:	00a03533          	snez	a0,a0
    3bea:	8082                	ret

00003bec <GPIO_SetBits>:
    3bec:	c90c                	sw	a1,16(a0)
    3bee:	8082                	ret

00003bf0 <GPIO_ResetBits>:
    3bf0:	c94c                	sw	a1,20(a0)
    3bf2:	8082                	ret

00003bf4 <NVIC_PriorityGroupConfig>:
    3bf4:	88a1a823          	sw	a0,-1904(gp) # 20000568 <NVIC_Priority_Group>
    3bf8:	8082                	ret

00003bfa <NVIC_Init>:
    3bfa:	8901a703          	lw	a4,-1904(gp) # 20000568 <NVIC_Priority_Group>
    3bfe:	4789                	li	a5,2
    3c00:	2110                	lbu	a2,0(a0)
    3c02:	02f71163          	bne	a4,a5,3c24 <NVIC_Init+0x2a>
    3c06:	3114                	lbu	a3,1(a0)
    3c08:	478d                	li	a5,3
    3c0a:	00d7ed63          	bltu	a5,a3,3c24 <NVIC_Init+0x2a>
    3c0e:	213c                	lbu	a5,2(a0)
    3c10:	069a                	slli	a3,a3,0x6
    3c12:	e000e737          	lui	a4,0xe000e
    3c16:	0796                	slli	a5,a5,0x5
    3c18:	8fd5                	or	a5,a5,a3
    3c1a:	0ff7f793          	andi	a5,a5,255
    3c1e:	9732                	add	a4,a4,a2
    3c20:	40f70023          	sb	a5,1024(a4) # e000e400 <_eusrstack+0xc0006400>
    3c24:	4154                	lw	a3,4(a0)
    3c26:	4705                	li	a4,1
    3c28:	00565793          	srli	a5,a2,0x5
    3c2c:	00c71733          	sll	a4,a4,a2
    3c30:	ca89                	beqz	a3,3c42 <NVIC_Init+0x48>
    3c32:	04078793          	addi	a5,a5,64
    3c36:	078a                	slli	a5,a5,0x2
    3c38:	e000e6b7          	lui	a3,0xe000e
    3c3c:	97b6                	add	a5,a5,a3
    3c3e:	c398                	sw	a4,0(a5)
    3c40:	8082                	ret
    3c42:	06078793          	addi	a5,a5,96
    3c46:	e000e6b7          	lui	a3,0xe000e
    3c4a:	078a                	slli	a5,a5,0x2
    3c4c:	97b6                	add	a5,a5,a3
    3c4e:	c398                	sw	a4,0(a5)
    3c50:	0000100f          	fence.i
    3c54:	8082                	ret

00003c56 <RCC_GetClocksFreq>:
    3c56:	40021737          	lui	a4,0x40021
    3c5a:	435c                	lw	a5,4(a4)
    3c5c:	4691                	li	a3,4
    3c5e:	8bb1                	andi	a5,a5,12
    3c60:	00d78563          	beq	a5,a3,3c6a <RCC_GetClocksFreq+0x14>
    3c64:	46a1                	li	a3,8
    3c66:	06d78263          	beq	a5,a3,3cca <RCC_GetClocksFreq+0x74>
    3c6a:	007a17b7          	lui	a5,0x7a1
    3c6e:	20078793          	addi	a5,a5,512 # 7a1200 <_data_lma+0x794914>
    3c72:	c11c                	sw	a5,0(a0)
    3c74:	40021637          	lui	a2,0x40021
    3c78:	425c                	lw	a5,4(a2)
    3c7a:	20000737          	lui	a4,0x20000
    3c7e:	2fc70713          	addi	a4,a4,764 # 200002fc <APBAHBPrescTable>
    3c82:	8391                	srli	a5,a5,0x4
    3c84:	8bbd                	andi	a5,a5,15
    3c86:	97ba                	add	a5,a5,a4
    3c88:	2394                	lbu	a3,0(a5)
    3c8a:	411c                	lw	a5,0(a0)
    3c8c:	00d7d7b3          	srl	a5,a5,a3
    3c90:	c15c                	sw	a5,4(a0)
    3c92:	4254                	lw	a3,4(a2)
    3c94:	82a1                	srli	a3,a3,0x8
    3c96:	8a9d                	andi	a3,a3,7
    3c98:	96ba                	add	a3,a3,a4
    3c9a:	2294                	lbu	a3,0(a3)
    3c9c:	00d7d6b3          	srl	a3,a5,a3
    3ca0:	c514                	sw	a3,8(a0)
    3ca2:	4254                	lw	a3,4(a2)
    3ca4:	82ad                	srli	a3,a3,0xb
    3ca6:	8a9d                	andi	a3,a3,7
    3ca8:	9736                	add	a4,a4,a3
    3caa:	2318                	lbu	a4,0(a4)
    3cac:	00e7d7b3          	srl	a5,a5,a4
    3cb0:	c55c                	sw	a5,12(a0)
    3cb2:	4258                	lw	a4,4(a2)
    3cb4:	8339                	srli	a4,a4,0xe
    3cb6:	00377693          	andi	a3,a4,3
    3cba:	81018713          	addi	a4,gp,-2032 # 200004e8 <ADCPrescTable>
    3cbe:	9736                	add	a4,a4,a3
    3cc0:	2318                	lbu	a4,0(a4)
    3cc2:	02e7d7b3          	divu	a5,a5,a4
    3cc6:	c91c                	sw	a5,16(a0)
    3cc8:	8082                	ret
    3cca:	435c                	lw	a5,4(a4)
    3ccc:	4358                	lw	a4,4(a4)
    3cce:	66c1                	lui	a3,0x10
    3cd0:	83c9                	srli	a5,a5,0x12
    3cd2:	8f75                	and	a4,a4,a3
    3cd4:	1ffff6b7          	lui	a3,0x1ffff
    3cd8:	70c6a683          	lw	a3,1804(a3) # 1ffff70c <_data_lma+0x1fff2e20>
    3cdc:	8bbd                	andi	a5,a5,15
    3cde:	0789                	addi	a5,a5,2
    3ce0:	01169613          	slli	a2,a3,0x11
    3ce4:	00064863          	bltz	a2,3cf4 <RCC_GetClocksFreq+0x9e>
    3ce8:	46c5                	li	a3,17
    3cea:	4601                	li	a2,0
    3cec:	02d79263          	bne	a5,a3,3d10 <RCC_GetClocksFreq+0xba>
    3cf0:	47c9                	li	a5,18
    3cf2:	a839                	j	3d10 <RCC_GetClocksFreq+0xba>
    3cf4:	4689                	li	a3,2
    3cf6:	02d78f63          	beq	a5,a3,3d34 <RCC_GetClocksFreq+0xde>
    3cfa:	46bd                	li	a3,15
    3cfc:	02d78e63          	beq	a5,a3,3d38 <RCC_GetClocksFreq+0xe2>
    3d00:	46c1                	li	a3,16
    3d02:	02d78e63          	beq	a5,a3,3d3e <RCC_GetClocksFreq+0xe8>
    3d06:	46c5                	li	a3,17
    3d08:	4601                	li	a2,0
    3d0a:	00d79363          	bne	a5,a3,3d10 <RCC_GetClocksFreq+0xba>
    3d0e:	47c1                	li	a5,16
    3d10:	ef1d                	bnez	a4,3d4e <RCC_GetClocksFreq+0xf8>
    3d12:	40024737          	lui	a4,0x40024
    3d16:	80072703          	lw	a4,-2048(a4) # 40023800 <_eusrstack+0x2001b800>
    3d1a:	8b41                	andi	a4,a4,16
    3d1c:	c705                	beqz	a4,3d44 <RCC_GetClocksFreq+0xee>
    3d1e:	007a1737          	lui	a4,0x7a1
    3d22:	20070713          	addi	a4,a4,512 # 7a1200 <_data_lma+0x794914>
    3d26:	02f707b3          	mul	a5,a4,a5
    3d2a:	c11c                	sw	a5,0(a0)
    3d2c:	d621                	beqz	a2,3c74 <RCC_GetClocksFreq+0x1e>
    3d2e:	411c                	lw	a5,0(a0)
    3d30:	8385                	srli	a5,a5,0x1
    3d32:	b781                	j	3c72 <RCC_GetClocksFreq+0x1c>
    3d34:	4601                	li	a2,0
    3d36:	bf6d                	j	3cf0 <RCC_GetClocksFreq+0x9a>
    3d38:	4605                	li	a2,1
    3d3a:	47b5                	li	a5,13
    3d3c:	bfd1                	j	3d10 <RCC_GetClocksFreq+0xba>
    3d3e:	4601                	li	a2,0
    3d40:	47bd                	li	a5,15
    3d42:	b7f9                	j	3d10 <RCC_GetClocksFreq+0xba>
    3d44:	003d1737          	lui	a4,0x3d1
    3d48:	90070713          	addi	a4,a4,-1792 # 3d0900 <_data_lma+0x3c4014>
    3d4c:	bfe9                	j	3d26 <RCC_GetClocksFreq+0xd0>
    3d4e:	400215b7          	lui	a1,0x40021
    3d52:	55d8                	lw	a4,44(a1)
    3d54:	00f71693          	slli	a3,a4,0xf
    3d58:	55d8                	lw	a4,44(a1)
    3d5a:	0406df63          	bgez	a3,3db8 <RCC_GetClocksFreq+0x162>
    3d5e:	8311                	srli	a4,a4,0x4
    3d60:	8b3d                	andi	a4,a4,15
    3d62:	00170693          	addi	a3,a4,1
    3d66:	007a1737          	lui	a4,0x7a1
    3d6a:	20070713          	addi	a4,a4,512 # 7a1200 <_data_lma+0x794914>
    3d6e:	02d75733          	divu	a4,a4,a3
    3d72:	c118                	sw	a4,0(a0)
    3d74:	55d4                	lw	a3,44(a1)
    3d76:	82a1                	srli	a3,a3,0x8
    3d78:	8abd                	andi	a3,a3,15
    3d7a:	e28d                	bnez	a3,3d9c <RCC_GetClocksFreq+0x146>
    3d7c:	4695                	li	a3,5
    3d7e:	02d70733          	mul	a4,a4,a3
    3d82:	8305                	srli	a4,a4,0x1
    3d84:	c118                	sw	a4,0(a0)
    3d86:	40021737          	lui	a4,0x40021
    3d8a:	5758                	lw	a4,44(a4)
    3d8c:	4114                	lw	a3,0(a0)
    3d8e:	8b3d                	andi	a4,a4,15
    3d90:	0705                	addi	a4,a4,1
    3d92:	02e6d733          	divu	a4,a3,a4
    3d96:	c118                	sw	a4,0(a0)
    3d98:	4118                	lw	a4,0(a0)
    3d9a:	b771                	j	3d26 <RCC_GetClocksFreq+0xd0>
    3d9c:	4585                	li	a1,1
    3d9e:	00b69463          	bne	a3,a1,3da6 <RCC_GetClocksFreq+0x150>
    3da2:	46e5                	li	a3,25
    3da4:	bfe9                	j	3d7e <RCC_GetClocksFreq+0x128>
    3da6:	45bd                	li	a1,15
    3da8:	00b69663          	bne	a3,a1,3db4 <RCC_GetClocksFreq+0x15e>
    3dac:	46d1                	li	a3,20
    3dae:	02e68733          	mul	a4,a3,a4
    3db2:	bfc9                	j	3d84 <RCC_GetClocksFreq+0x12e>
    3db4:	0689                	addi	a3,a3,2
    3db6:	bfe5                	j	3dae <RCC_GetClocksFreq+0x158>
    3db8:	8b3d                	andi	a4,a4,15
    3dba:	00170693          	addi	a3,a4,1 # 40021001 <_eusrstack+0x20019001>
    3dbe:	007a1737          	lui	a4,0x7a1
    3dc2:	20070713          	addi	a4,a4,512 # 7a1200 <_data_lma+0x794914>
    3dc6:	02d75733          	divu	a4,a4,a3
    3dca:	b7f1                	j	3d96 <RCC_GetClocksFreq+0x140>

00003dcc <RCC_APB2PeriphClockCmd>:
    3dcc:	c599                	beqz	a1,3dda <RCC_APB2PeriphClockCmd+0xe>
    3dce:	40021737          	lui	a4,0x40021
    3dd2:	4f1c                	lw	a5,24(a4)
    3dd4:	8d5d                	or	a0,a0,a5
    3dd6:	cf08                	sw	a0,24(a4)
    3dd8:	8082                	ret
    3dda:	400217b7          	lui	a5,0x40021
    3dde:	4f98                	lw	a4,24(a5)
    3de0:	fff54513          	not	a0,a0
    3de4:	8d79                	and	a0,a0,a4
    3de6:	cf88                	sw	a0,24(a5)
    3de8:	8082                	ret

00003dea <RCC_APB1PeriphClockCmd>:
    3dea:	c599                	beqz	a1,3df8 <RCC_APB1PeriphClockCmd+0xe>
    3dec:	40021737          	lui	a4,0x40021
    3df0:	4f5c                	lw	a5,28(a4)
    3df2:	8d5d                	or	a0,a0,a5
    3df4:	cf48                	sw	a0,28(a4)
    3df6:	8082                	ret
    3df8:	400217b7          	lui	a5,0x40021
    3dfc:	4fd8                	lw	a4,28(a5)
    3dfe:	fff54513          	not	a0,a0
    3e02:	8d79                	and	a0,a0,a4
    3e04:	cfc8                	sw	a0,28(a5)
    3e06:	8082                	ret

00003e08 <SPI_Init>:
    3e08:	211a                	lhu	a4,0(a0)
    3e0a:	678d                	lui	a5,0x3
    3e0c:	04078793          	addi	a5,a5,64 # 3040 <main+0x106>
    3e10:	21b6                	lhu	a3,2(a1)
    3e12:	8f7d                	and	a4,a4,a5
    3e14:	219e                	lhu	a5,0(a1)
    3e16:	8fd5                	or	a5,a5,a3
    3e18:	21d6                	lhu	a3,4(a1)
    3e1a:	8fd5                	or	a5,a5,a3
    3e1c:	21f6                	lhu	a3,6(a1)
    3e1e:	8fd5                	or	a5,a5,a3
    3e20:	2596                	lhu	a3,8(a1)
    3e22:	8fd5                	or	a5,a5,a3
    3e24:	25b6                	lhu	a3,10(a1)
    3e26:	8fd5                	or	a5,a5,a3
    3e28:	25d6                	lhu	a3,12(a1)
    3e2a:	8fd5                	or	a5,a5,a3
    3e2c:	25f6                	lhu	a3,14(a1)
    3e2e:	8fd5                	or	a5,a5,a3
    3e30:	8fd9                	or	a5,a5,a4
    3e32:	a11e                	sh	a5,0(a0)
    3e34:	2d5a                	lhu	a4,28(a0)
    3e36:	77fd                	lui	a5,0xfffff
    3e38:	7ff78793          	addi	a5,a5,2047 # fffff7ff <_eusrstack+0xdfff77ff>
    3e3c:	8ff9                	and	a5,a5,a4
    3e3e:	ad5e                	sh	a5,28(a0)
    3e40:	299e                	lhu	a5,16(a1)
    3e42:	a91e                	sh	a5,16(a0)
    3e44:	8082                	ret

00003e46 <SPI_Cmd>:
    3e46:	211e                	lhu	a5,0(a0)
    3e48:	c589                	beqz	a1,3e52 <SPI_Cmd+0xc>
    3e4a:	0407e793          	ori	a5,a5,64
    3e4e:	a11e                	sh	a5,0(a0)
    3e50:	8082                	ret
    3e52:	07c2                	slli	a5,a5,0x10
    3e54:	83c1                	srli	a5,a5,0x10
    3e56:	fbf7f793          	andi	a5,a5,-65
    3e5a:	07c2                	slli	a5,a5,0x10
    3e5c:	83c1                	srli	a5,a5,0x10
    3e5e:	bfc5                	j	3e4e <SPI_Cmd+0x8>

00003e60 <SPI_I2S_SendData>:
    3e60:	a54e                	sh	a1,12(a0)
    3e62:	8082                	ret

00003e64 <SPI_I2S_ReceiveData>:
    3e64:	254a                	lhu	a0,12(a0)
    3e66:	8082                	ret

00003e68 <SPI_I2S_GetFlagStatus>:
    3e68:	250a                	lhu	a0,8(a0)
    3e6a:	8d6d                	and	a0,a0,a1
    3e6c:	00a03533          	snez	a0,a0
    3e70:	8082                	ret

00003e72 <TIM_TimeBaseInit>:
    3e72:	1ffff737          	lui	a4,0x1ffff
    3e76:	70472703          	lw	a4,1796(a4) # 1ffff704 <_data_lma+0x1fff2e18>
    3e7a:	211e                	lhu	a5,0(a0)
    3e7c:	4691                	li	a3,4
    3e7e:	8311                	srli	a4,a4,0x4
    3e80:	8b3d                	andi	a4,a4,15
    3e82:	07c2                	slli	a5,a5,0x10
    3e84:	1771                	addi	a4,a4,-4
    3e86:	83c1                	srli	a5,a5,0x10
    3e88:	02e6e663          	bltu	a3,a4,3eb4 <TIM_TimeBaseInit+0x42>
    3e8c:	40013737          	lui	a4,0x40013
    3e90:	c0070693          	addi	a3,a4,-1024 # 40012c00 <_eusrstack+0x2000ac00>
    3e94:	00d50e63          	beq	a0,a3,3eb0 <TIM_TimeBaseInit+0x3e>
    3e98:	40070713          	addi	a4,a4,1024
    3e9c:	00e50a63          	beq	a0,a4,3eb0 <TIM_TimeBaseInit+0x3e>
    3ea0:	40015737          	lui	a4,0x40015
    3ea4:	c0070693          	addi	a3,a4,-1024 # 40014c00 <_eusrstack+0x2000cc00>
    3ea8:	00d50463          	beq	a0,a3,3eb0 <TIM_TimeBaseInit+0x3e>
    3eac:	00e51a63          	bne	a0,a4,3ec0 <TIM_TimeBaseInit+0x4e>
    3eb0:	6709                	lui	a4,0x2
    3eb2:	8fd9                	or	a5,a5,a4
    3eb4:	40013737          	lui	a4,0x40013
    3eb8:	c0070713          	addi	a4,a4,-1024 # 40012c00 <_eusrstack+0x2000ac00>
    3ebc:	04e50263          	beq	a0,a4,3f00 <TIM_TimeBaseInit+0x8e>
    3ec0:	40000737          	lui	a4,0x40000
    3ec4:	02e50e63          	beq	a0,a4,3f00 <TIM_TimeBaseInit+0x8e>
    3ec8:	40070713          	addi	a4,a4,1024 # 40000400 <_eusrstack+0x1fff8400>
    3ecc:	02e50a63          	beq	a0,a4,3f00 <TIM_TimeBaseInit+0x8e>
    3ed0:	40001737          	lui	a4,0x40001
    3ed4:	80070693          	addi	a3,a4,-2048 # 40000800 <_eusrstack+0x1fff8800>
    3ed8:	02d50463          	beq	a0,a3,3f00 <TIM_TimeBaseInit+0x8e>
    3edc:	c0070713          	addi	a4,a4,-1024
    3ee0:	02e50063          	beq	a0,a4,3f00 <TIM_TimeBaseInit+0x8e>
    3ee4:	40013737          	lui	a4,0x40013
    3ee8:	40070713          	addi	a4,a4,1024 # 40013400 <_eusrstack+0x2000b400>
    3eec:	00e50a63          	beq	a0,a4,3f00 <TIM_TimeBaseInit+0x8e>
    3ef0:	40015737          	lui	a4,0x40015
    3ef4:	c0070693          	addi	a3,a4,-1024 # 40014c00 <_eusrstack+0x2000cc00>
    3ef8:	00d50463          	beq	a0,a3,3f00 <TIM_TimeBaseInit+0x8e>
    3efc:	00e51863          	bne	a0,a4,3f0c <TIM_TimeBaseInit+0x9a>
    3f00:	f8f7f793          	andi	a5,a5,-113
    3f04:	21ba                	lhu	a4,2(a1)
    3f06:	07c2                	slli	a5,a5,0x10
    3f08:	83c1                	srli	a5,a5,0x10
    3f0a:	8fd9                	or	a5,a5,a4
    3f0c:	40001737          	lui	a4,0x40001
    3f10:	00e50c63          	beq	a0,a4,3f28 <TIM_TimeBaseInit+0xb6>
    3f14:	40070713          	addi	a4,a4,1024 # 40001400 <_eusrstack+0x1fff9400>
    3f18:	00e50863          	beq	a0,a4,3f28 <TIM_TimeBaseInit+0xb6>
    3f1c:	cff7f793          	andi	a5,a5,-769
    3f20:	21fa                	lhu	a4,6(a1)
    3f22:	07c2                	slli	a5,a5,0x10
    3f24:	83c1                	srli	a5,a5,0x10
    3f26:	8fd9                	or	a5,a5,a4
    3f28:	a11e                	sh	a5,0(a0)
    3f2a:	21de                	lhu	a5,4(a1)
    3f2c:	b55e                	sh	a5,44(a0)
    3f2e:	219e                	lhu	a5,0(a1)
    3f30:	b51e                	sh	a5,40(a0)
    3f32:	400137b7          	lui	a5,0x40013
    3f36:	c0078713          	addi	a4,a5,-1024 # 40012c00 <_eusrstack+0x2000ac00>
    3f3a:	00e50e63          	beq	a0,a4,3f56 <TIM_TimeBaseInit+0xe4>
    3f3e:	40078793          	addi	a5,a5,1024
    3f42:	00f50a63          	beq	a0,a5,3f56 <TIM_TimeBaseInit+0xe4>
    3f46:	400157b7          	lui	a5,0x40015
    3f4a:	c0078713          	addi	a4,a5,-1024 # 40014c00 <_eusrstack+0x2000cc00>
    3f4e:	00e50463          	beq	a0,a4,3f56 <TIM_TimeBaseInit+0xe4>
    3f52:	00f51463          	bne	a0,a5,3f5a <TIM_TimeBaseInit+0xe8>
    3f56:	259c                	lbu	a5,8(a1)
    3f58:	b91e                	sh	a5,48(a0)
    3f5a:	4785                	li	a5,1
    3f5c:	a95e                	sh	a5,20(a0)
    3f5e:	8082                	ret

00003f60 <TIM_Cmd>:
    3f60:	211e                	lhu	a5,0(a0)
    3f62:	c589                	beqz	a1,3f6c <TIM_Cmd+0xc>
    3f64:	0017e793          	ori	a5,a5,1
    3f68:	a11e                	sh	a5,0(a0)
    3f6a:	8082                	ret
    3f6c:	07c2                	slli	a5,a5,0x10
    3f6e:	83c1                	srli	a5,a5,0x10
    3f70:	9bf9                	andi	a5,a5,-2
    3f72:	07c2                	slli	a5,a5,0x10
    3f74:	83c1                	srli	a5,a5,0x10
    3f76:	bfcd                	j	3f68 <TIM_Cmd+0x8>

00003f78 <TIM_ITConfig>:
    3f78:	255e                	lhu	a5,12(a0)
    3f7a:	c601                	beqz	a2,3f82 <TIM_ITConfig+0xa>
    3f7c:	8ddd                	or	a1,a1,a5
    3f7e:	a54e                	sh	a1,12(a0)
    3f80:	8082                	ret
    3f82:	fff5c593          	not	a1,a1
    3f86:	8dfd                	and	a1,a1,a5
    3f88:	bfdd                	j	3f7e <TIM_ITConfig+0x6>

00003f8a <TIM_GetITStatus>:
    3f8a:	291e                	lhu	a5,16(a0)
    3f8c:	254a                	lhu	a0,12(a0)
    3f8e:	8fed                	and	a5,a5,a1
    3f90:	0542                	slli	a0,a0,0x10
    3f92:	8141                	srli	a0,a0,0x10
    3f94:	c789                	beqz	a5,3f9e <TIM_GetITStatus+0x14>
    3f96:	8d6d                	and	a0,a0,a1
    3f98:	00a03533          	snez	a0,a0
    3f9c:	8082                	ret
    3f9e:	4501                	li	a0,0
    3fa0:	8082                	ret

00003fa2 <TIM_ClearITPendingBit>:
    3fa2:	fff5c593          	not	a1,a1
    3fa6:	05c2                	slli	a1,a1,0x10
    3fa8:	81c1                	srli	a1,a1,0x10
    3faa:	a90e                	sh	a1,16(a0)
    3fac:	8082                	ret

00003fae <USART_Init>:
    3fae:	a42fc2ef          	jal	t0,1f0 <__riscv_save_0>
    3fb2:	2916                	lhu	a3,16(a0)
    3fb4:	77f5                	lui	a5,0xffffd
    3fb6:	17fd                	addi	a5,a5,-1
    3fb8:	8ff5                	and	a5,a5,a3
    3fba:	21f6                	lhu	a3,6(a1)
    3fbc:	25da                	lhu	a4,12(a1)
    3fbe:	7179                	addi	sp,sp,-48
    3fc0:	8fd5                	or	a5,a5,a3
    3fc2:	a91e                	sh	a5,16(a0)
    3fc4:	2556                	lhu	a3,12(a0)
    3fc6:	77fd                	lui	a5,0xfffff
    3fc8:	9f378793          	addi	a5,a5,-1549 # ffffe9f3 <_eusrstack+0xdfff69f3>
    3fcc:	8ff5                	and	a5,a5,a3
    3fce:	21d6                	lhu	a3,4(a1)
    3fd0:	842a                	mv	s0,a0
    3fd2:	c62e                	sw	a1,12(sp)
    3fd4:	8fd5                	or	a5,a5,a3
    3fd6:	2596                	lhu	a3,8(a1)
    3fd8:	8fd5                	or	a5,a5,a3
    3fda:	25b6                	lhu	a3,10(a1)
    3fdc:	8fd5                	or	a5,a5,a3
    3fde:	a55e                	sh	a5,12(a0)
    3fe0:	295e                	lhu	a5,20(a0)
    3fe2:	07c2                	slli	a5,a5,0x10
    3fe4:	83c1                	srli	a5,a5,0x10
    3fe6:	cff7f793          	andi	a5,a5,-769
    3fea:	8fd9                	or	a5,a5,a4
    3fec:	a95e                	sh	a5,20(a0)
    3fee:	0868                	addi	a0,sp,28
    3ff0:	c67ff0ef          	jal	ra,3c56 <RCC_GetClocksFreq>
    3ff4:	400147b7          	lui	a5,0x40014
    3ff8:	80078793          	addi	a5,a5,-2048 # 40013800 <_eusrstack+0x2000b800>
    3ffc:	45b2                	lw	a1,12(sp)
    3ffe:	02f41e63          	bne	s0,a5,403a <USART_Init+0x8c>
    4002:	57a2                	lw	a5,40(sp)
    4004:	4765                	li	a4,25
    4006:	02e787b3          	mul	a5,a5,a4
    400a:	4198                	lw	a4,0(a1)
    400c:	06400693          	li	a3,100
    4010:	070a                	slli	a4,a4,0x2
    4012:	02e7d7b3          	divu	a5,a5,a4
    4016:	02d7d733          	divu	a4,a5,a3
    401a:	02d7f7b3          	remu	a5,a5,a3
    401e:	0712                	slli	a4,a4,0x4
    4020:	0792                	slli	a5,a5,0x4
    4022:	03278793          	addi	a5,a5,50
    4026:	02d7d7b3          	divu	a5,a5,a3
    402a:	8bbd                	andi	a5,a5,15
    402c:	8fd9                	or	a5,a5,a4
    402e:	07c2                	slli	a5,a5,0x10
    4030:	83c1                	srli	a5,a5,0x10
    4032:	a41e                	sh	a5,8(s0)
    4034:	6145                	addi	sp,sp,48
    4036:	9defc06f          	j	214 <__riscv_restore_0>
    403a:	5792                	lw	a5,36(sp)
    403c:	b7e1                	j	4004 <USART_Init+0x56>

0000403e <USART_Cmd>:
    403e:	c591                	beqz	a1,404a <USART_Cmd+0xc>
    4040:	255e                	lhu	a5,12(a0)
    4042:	6709                	lui	a4,0x2
    4044:	8fd9                	or	a5,a5,a4
    4046:	a55e                	sh	a5,12(a0)
    4048:	8082                	ret
    404a:	255a                	lhu	a4,12(a0)
    404c:	77f9                	lui	a5,0xffffe
    404e:	17fd                	addi	a5,a5,-1
    4050:	8ff9                	and	a5,a5,a4
    4052:	bfd5                	j	4046 <USART_Cmd+0x8>

00004054 <USART_ITConfig>:
    4054:	0ff5f713          	andi	a4,a1,255
    4058:	4785                	li	a5,1
    405a:	8315                	srli	a4,a4,0x5
    405c:	00b795b3          	sll	a1,a5,a1
    4060:	00f71963          	bne	a4,a5,4072 <USART_ITConfig+0x1e>
    4064:	00c50793          	addi	a5,a0,12
    4068:	4398                	lw	a4,0(a5)
    406a:	ce01                	beqz	a2,4082 <USART_ITConfig+0x2e>
    406c:	8dd9                	or	a1,a1,a4
    406e:	c38c                	sw	a1,0(a5)
    4070:	8082                	ret
    4072:	4689                	li	a3,2
    4074:	01450793          	addi	a5,a0,20
    4078:	fed718e3          	bne	a4,a3,4068 <USART_ITConfig+0x14>
    407c:	01050793          	addi	a5,a0,16
    4080:	b7e5                	j	4068 <USART_ITConfig+0x14>
    4082:	fff5c593          	not	a1,a1
    4086:	8df9                	and	a1,a1,a4
    4088:	b7dd                	j	406e <USART_ITConfig+0x1a>

0000408a <USART_SendData>:
    408a:	1ff5f593          	andi	a1,a1,511
    408e:	a14e                	sh	a1,4(a0)
    4090:	8082                	ret

00004092 <USART_ReceiveData>:
    4092:	214a                	lhu	a0,4(a0)
    4094:	1ff57513          	andi	a0,a0,511
    4098:	8082                	ret

0000409a <USART_GetFlagStatus>:
    409a:	210a                	lhu	a0,0(a0)
    409c:	8d6d                	and	a0,a0,a1
    409e:	00a03533          	snez	a0,a0
    40a2:	8082                	ret

000040a4 <USART_GetITStatus>:
    40a4:	0ff5f713          	andi	a4,a1,255
    40a8:	4685                	li	a3,1
    40aa:	8315                	srli	a4,a4,0x5
    40ac:	00b697b3          	sll	a5,a3,a1
    40b0:	02d71163          	bne	a4,a3,40d2 <USART_GetITStatus+0x2e>
    40b4:	255a                	lhu	a4,12(a0)
    40b6:	8ff9                	and	a5,a5,a4
    40b8:	211a                	lhu	a4,0(a0)
    40ba:	4501                	li	a0,0
    40bc:	0742                	slli	a4,a4,0x10
    40be:	8341                	srli	a4,a4,0x10
    40c0:	cb81                	beqz	a5,40d0 <USART_GetITStatus+0x2c>
    40c2:	4505                	li	a0,1
    40c4:	81a1                	srli	a1,a1,0x8
    40c6:	00b515b3          	sll	a1,a0,a1
    40ca:	8f6d                	and	a4,a4,a1
    40cc:	00e03533          	snez	a0,a4
    40d0:	8082                	ret
    40d2:	4689                	li	a3,2
    40d4:	00d71463          	bne	a4,a3,40dc <USART_GetITStatus+0x38>
    40d8:	291a                	lhu	a4,16(a0)
    40da:	bff1                	j	40b6 <USART_GetITStatus+0x12>
    40dc:	295a                	lhu	a4,20(a0)
    40de:	bfe1                	j	40b6 <USART_GetITStatus+0x12>

000040e0 <Usart6_Init>:
    40e0:	910fc2ef          	jal	t0,1f0 <__riscv_save_0>
    40e4:	1101                	addi	sp,sp,-32
    40e6:	4585                	li	a1,1
    40e8:	4521                	li	a0,8
    40ea:	ce3ff0ef          	jal	ra,3dcc <RCC_APB2PeriphClockCmd>
    40ee:	40021737          	lui	a4,0x40021
    40f2:	4f1c                	lw	a5,24(a4)
    40f4:	40011537          	lui	a0,0x40011
    40f8:	004c                	addi	a1,sp,4
    40fa:	0407e793          	ori	a5,a5,64
    40fe:	cf1c                	sw	a5,24(a4)
    4100:	30000793          	li	a5,768
    4104:	827c                	sh	a5,4(sp)
    4106:	478d                	li	a5,3
    4108:	c43e                	sw	a5,8(sp)
    410a:	c0050513          	addi	a0,a0,-1024 # 40010c00 <_eusrstack+0x20008c00>
    410e:	47e1                	li	a5,24
    4110:	c63e                	sw	a5,12(sp)
    4112:	a07ff0ef          	jal	ra,3b18 <GPIO_Init>
    4116:	6789                	lui	a5,0x2
    4118:	40002437          	lui	s0,0x40002
    411c:	58078793          	addi	a5,a5,1408 # 2580 <Send_Price_To_Screen+0xb4>
    4120:	c83e                	sw	a5,16(sp)
    4122:	080c                	addi	a1,sp,16
    4124:	000c07b7          	lui	a5,0xc0
    4128:	80040513          	addi	a0,s0,-2048 # 40001800 <_eusrstack+0x1fff9800>
    412c:	cc3e                	sw	a5,24(sp)
    412e:	ca02                	sw	zero,20(sp)
    4130:	00011e23          	sh	zero,28(sp)
    4134:	e7bff0ef          	jal	ra,3fae <USART_Init>
    4138:	4585                	li	a1,1
    413a:	80040513          	addi	a0,s0,-2048
    413e:	f01ff0ef          	jal	ra,403e <USART_Cmd>
    4142:	6105                	addi	sp,sp,32
    4144:	8d0fc06f          	j	214 <__riscv_restore_0>

00004148 <audio_init>:
    4148:	8a8fc2ef          	jal	t0,1f0 <__riscv_save_0>
    414c:	f95ff0ef          	jal	ra,40e0 <Usart6_Init>
    4150:	8c4fc06f          	j	214 <__riscv_restore_0>

00004154 <audio_play>:
    4154:	89cfc2ef          	jal	t0,1f0 <__riscv_save_0>
    4158:	004107b7          	lui	a5,0x410
    415c:	1141                	addi	sp,sp,-16
    415e:	57e78793          	addi	a5,a5,1406 # 41057e <_data_lma+0x403c92>
    4162:	c43e                	sw	a5,8(sp)
    4164:	8648                	sb	a0,12(sp)
    4166:	57bd                	li	a5,-17
    4168:	04454513          	xori	a0,a0,68
    416c:	400024b7          	lui	s1,0x40002
    4170:	86c8                	sb	a0,13(sp)
    4172:	875c                	sb	a5,14(sp)
    4174:	4401                	li	s0,0
    4176:	80048493          	addi	s1,s1,-2048 # 40001800 <_eusrstack+0x1fff9800>
    417a:	491d                	li	s2,7
    417c:	003c                	addi	a5,sp,8
    417e:	97a2                	add	a5,a5,s0
    4180:	238c                	lbu	a1,0(a5)
    4182:	8526                	mv	a0,s1
    4184:	f07ff0ef          	jal	ra,408a <USART_SendData>
    4188:	04000593          	li	a1,64
    418c:	8526                	mv	a0,s1
    418e:	f0dff0ef          	jal	ra,409a <USART_GetFlagStatus>
    4192:	d97d                	beqz	a0,4188 <audio_play+0x34>
    4194:	0405                	addi	s0,s0,1
    4196:	ff2413e3          	bne	s0,s2,417c <audio_play+0x28>
    419a:	0141                	addi	sp,sp,16
    419c:	878fc06f          	j	214 <__riscv_restore_0>

000041a0 <BusyPin_Init>:
    41a0:	850fc2ef          	jal	t0,1f0 <__riscv_save_0>
    41a4:	1141                	addi	sp,sp,-16
    41a6:	4585                	li	a1,1
    41a8:	4541                	li	a0,16
    41aa:	c23ff0ef          	jal	ra,3dcc <RCC_APB2PeriphClockCmd>
    41ae:	4791                	li	a5,4
    41b0:	827c                	sh	a5,4(sp)
    41b2:	004c                	addi	a1,sp,4
    41b4:	04800793          	li	a5,72
    41b8:	40011537          	lui	a0,0x40011
    41bc:	c63e                	sw	a5,12(sp)
    41be:	95bff0ef          	jal	ra,3b18 <GPIO_Init>
    41c2:	0141                	addi	sp,sp,16
    41c4:	850fc06f          	j	214 <__riscv_restore_0>

000041c8 <IsAudioBusy>:
    41c8:	828fc2ef          	jal	t0,1f0 <__riscv_save_0>
    41cc:	4591                	li	a1,4
    41ce:	40011537          	lui	a0,0x40011
    41d2:	a07ff0ef          	jal	ra,3bd8 <GPIO_ReadInputDataBit>
    41d6:	83efc06f          	j	214 <__riscv_restore_0>

000041da <Delay_Init>:
    41da:	80c1a783          	lw	a5,-2036(gp) # 200004e4 <SystemCoreClock>
    41de:	007a1737          	lui	a4,0x7a1
    41e2:	20070713          	addi	a4,a4,512 # 7a1200 <_data_lma+0x794914>
    41e6:	02e7d7b3          	divu	a5,a5,a4
    41ea:	0ff7f793          	andi	a5,a5,255
    41ee:	88f18b23          	sb	a5,-1898(gp) # 2000056e <p_us>
    41f2:	3e800713          	li	a4,1000
    41f6:	02e787b3          	mul	a5,a5,a4
    41fa:	88f19a23          	sh	a5,-1900(gp) # 2000056c <p_ms>
    41fe:	8082                	ret

00004200 <Delay_Ms>:
    4200:	e000f7b7          	lui	a5,0xe000f
    4204:	43d8                	lw	a4,4(a5)
    4206:	4681                	li	a3,0
    4208:	9b79                	andi	a4,a4,-2
    420a:	c3d8                	sw	a4,4(a5)
    420c:	8941d703          	lhu	a4,-1900(gp) # 2000056c <p_ms>
    4210:	02a70633          	mul	a2,a4,a0
    4214:	cb90                	sw	a2,16(a5)
    4216:	cbd4                	sw	a3,20(a5)
    4218:	4398                	lw	a4,0(a5)
    421a:	01076713          	ori	a4,a4,16
    421e:	c398                	sw	a4,0(a5)
    4220:	4398                	lw	a4,0(a5)
    4222:	02176713          	ori	a4,a4,33
    4226:	c398                	sw	a4,0(a5)
    4228:	43d8                	lw	a4,4(a5)
    422a:	8b05                	andi	a4,a4,1
    422c:	df75                	beqz	a4,4228 <Delay_Ms+0x28>
    422e:	4398                	lw	a4,0(a5)
    4230:	9b79                	andi	a4,a4,-2
    4232:	c398                	sw	a4,0(a5)
    4234:	8082                	ret

00004236 <_write>:
    4236:	fa1fb2ef          	jal	t0,1d6 <__riscv_save_4>
    423a:	400144b7          	lui	s1,0x40014
    423e:	89ae                	mv	s3,a1
    4240:	8932                	mv	s2,a2
    4242:	4401                	li	s0,0
    4244:	80048493          	addi	s1,s1,-2048 # 40013800 <_eusrstack+0x2000b800>
    4248:	01244563          	blt	s0,s2,4252 <_write+0x1c>
    424c:	854a                	mv	a0,s2
    424e:	fbdfb06f          	j	20a <__riscv_restore_4>
    4252:	04000593          	li	a1,64
    4256:	8526                	mv	a0,s1
    4258:	e43ff0ef          	jal	ra,409a <USART_GetFlagStatus>
    425c:	d97d                	beqz	a0,4252 <_write+0x1c>
    425e:	008987b3          	add	a5,s3,s0
    4262:	00078583          	lb	a1,0(a5) # e000f000 <_eusrstack+0xc0007000>
    4266:	8526                	mv	a0,s1
    4268:	0405                	addi	s0,s0,1
    426a:	05c2                	slli	a1,a1,0x10
    426c:	81c1                	srli	a1,a1,0x10
    426e:	e1dff0ef          	jal	ra,408a <USART_SendData>
    4272:	bfd9                	j	4248 <_write+0x12>

00004274 <_sbrk>:
    4274:	81418713          	addi	a4,gp,-2028 # 200004ec <curbrk.5273>
    4278:	431c                	lw	a5,0(a4)
    427a:	200016b7          	lui	a3,0x20001
    427e:	78868693          	addi	a3,a3,1928 # 20001788 <_ebss>
    4282:	953e                	add	a0,a0,a5
    4284:	00d56b63          	bltu	a0,a3,429a <_sbrk+0x26>
    4288:	200086b7          	lui	a3,0x20008
    428c:	80068693          	addi	a3,a3,-2048 # 20007800 <_heap_end>
    4290:	00a6e563          	bltu	a3,a0,429a <_sbrk+0x26>
    4294:	c308                	sw	a0,0(a4)
    4296:	853e                	mv	a0,a5
    4298:	8082                	ret
    429a:	57fd                	li	a5,-1
    429c:	bfed                	j	4296 <_sbrk+0x22>

0000429e <__addsf3>:
    429e:	1141                	addi	sp,sp,-16
    42a0:	00800737          	lui	a4,0x800
    42a4:	177d                	addi	a4,a4,-1
    42a6:	0175d813          	srli	a6,a1,0x17
    42aa:	c226                	sw	s1,4(sp)
    42ac:	01755493          	srli	s1,a0,0x17
    42b0:	00a77333          	and	t1,a4,a0
    42b4:	0ff4f493          	andi	s1,s1,255
    42b8:	00b776b3          	and	a3,a4,a1
    42bc:	c04a                	sw	s2,0(sp)
    42be:	0ff87813          	andi	a6,a6,255
    42c2:	01f55913          	srli	s2,a0,0x1f
    42c6:	c606                	sw	ra,12(sp)
    42c8:	c422                	sw	s0,8(sp)
    42ca:	81fd                	srli	a1,a1,0x1f
    42cc:	879a                	mv	a5,t1
    42ce:	8526                	mv	a0,s1
    42d0:	864a                	mv	a2,s2
    42d2:	00331e13          	slli	t3,t1,0x3
    42d6:	00369e93          	slli	t4,a3,0x3
    42da:	410488b3          	sub	a7,s1,a6
    42de:	0eb90a63          	beq	s2,a1,43d2 <__addsf3+0x134>
    42e2:	0d105063          	blez	a7,43a2 <__addsf3+0x104>
    42e6:	14080463          	beqz	a6,442e <__addsf3+0x190>
    42ea:	0ff00793          	li	a5,255
    42ee:	14f48b63          	beq	s1,a5,4444 <__addsf3+0x1a6>
    42f2:	040007b7          	lui	a5,0x4000
    42f6:	00feeeb3          	or	t4,t4,a5
    42fa:	47ed                	li	a5,27
    42fc:	2917c163          	blt	a5,a7,457e <__addsf3+0x2e0>
    4300:	02000793          	li	a5,32
    4304:	411787b3          	sub	a5,a5,a7
    4308:	00fe97b3          	sll	a5,t4,a5
    430c:	011ed8b3          	srl	a7,t4,a7
    4310:	00f037b3          	snez	a5,a5
    4314:	00f8e7b3          	or	a5,a7,a5
    4318:	40fe07b3          	sub	a5,t3,a5
    431c:	00579713          	slli	a4,a5,0x5
    4320:	18075e63          	bgez	a4,44bc <__addsf3+0x21e>
    4324:	04000437          	lui	s0,0x4000
    4328:	147d                	addi	s0,s0,-1
    432a:	8c7d                	and	s0,s0,a5
    432c:	8522                	mv	a0,s0
    432e:	0aa010ef          	jal	ra,53d8 <__clzsi2>
    4332:	156d                	addi	a0,a0,-5
    4334:	00a417b3          	sll	a5,s0,a0
    4338:	1a954863          	blt	a0,s1,44e8 <__addsf3+0x24a>
    433c:	8d05                	sub	a0,a0,s1
    433e:	00150413          	addi	s0,a0,1 # 40011001 <_eusrstack+0x20009001>
    4342:	02000713          	li	a4,32
    4346:	8f01                	sub	a4,a4,s0
    4348:	00e79733          	sll	a4,a5,a4
    434c:	00e03733          	snez	a4,a4
    4350:	0087d7b3          	srl	a5,a5,s0
    4354:	8fd9                	or	a5,a5,a4
    4356:	4481                	li	s1,0
    4358:	0077f713          	andi	a4,a5,7
    435c:	c719                	beqz	a4,436a <__addsf3+0xcc>
    435e:	00f7f713          	andi	a4,a5,15
    4362:	4691                	li	a3,4
    4364:	00d70363          	beq	a4,a3,436a <__addsf3+0xcc>
    4368:	0791                	addi	a5,a5,4
    436a:	00579713          	slli	a4,a5,0x5
    436e:	14075b63          	bgez	a4,44c4 <__addsf3+0x226>
    4372:	0485                	addi	s1,s1,1
    4374:	0ff00713          	li	a4,255
    4378:	864a                	mv	a2,s2
    437a:	16e48363          	beq	s1,a4,44e0 <__addsf3+0x242>
    437e:	079a                	slli	a5,a5,0x6
    4380:	83a5                	srli	a5,a5,0x9
    4382:	0ff4f513          	andi	a0,s1,255
    4386:	40b2                	lw	ra,12(sp)
    4388:	4422                	lw	s0,8(sp)
    438a:	07a6                	slli	a5,a5,0x9
    438c:	01751493          	slli	s1,a0,0x17
    4390:	0097d513          	srli	a0,a5,0x9
    4394:	8d45                	or	a0,a0,s1
    4396:	067e                	slli	a2,a2,0x1f
    4398:	4492                	lw	s1,4(sp)
    439a:	4902                	lw	s2,0(sp)
    439c:	8d51                	or	a0,a0,a2
    439e:	0141                	addi	sp,sp,16
    43a0:	8082                	ret
    43a2:	0a089963          	bnez	a7,4454 <__addsf3+0x1b6>
    43a6:	00148713          	addi	a4,s1,1
    43aa:	0fe77713          	andi	a4,a4,254
    43ae:	14071763          	bnez	a4,44fc <__addsf3+0x25e>
    43b2:	22049063          	bnez	s1,45d2 <__addsf3+0x334>
    43b6:	1e0e0d63          	beqz	t3,45b0 <__addsf3+0x312>
    43ba:	fc0e86e3          	beqz	t4,4386 <__addsf3+0xe8>
    43be:	41de07b3          	sub	a5,t3,t4
    43c2:	00579713          	slli	a4,a5,0x5
    43c6:	22075063          	bgez	a4,45e6 <__addsf3+0x348>
    43ca:	41ce87b3          	sub	a5,t4,t3
    43ce:	892e                	mv	s2,a1
    43d0:	b761                	j	4358 <__addsf3+0xba>
    43d2:	0b105c63          	blez	a7,448a <__addsf3+0x1ec>
    43d6:	08080e63          	beqz	a6,4472 <__addsf3+0x1d4>
    43da:	0ff00793          	li	a5,255
    43de:	06f48363          	beq	s1,a5,4444 <__addsf3+0x1a6>
    43e2:	040007b7          	lui	a5,0x4000
    43e6:	00feeeb3          	or	t4,t4,a5
    43ea:	47ed                	li	a5,27
    43ec:	1f17c963          	blt	a5,a7,45de <__addsf3+0x340>
    43f0:	02000793          	li	a5,32
    43f4:	411787b3          	sub	a5,a5,a7
    43f8:	00fe97b3          	sll	a5,t4,a5
    43fc:	011ed8b3          	srl	a7,t4,a7
    4400:	00f037b3          	snez	a5,a5
    4404:	00f8e7b3          	or	a5,a7,a5
    4408:	97f2                	add	a5,a5,t3
    440a:	00579713          	slli	a4,a5,0x5
    440e:	0a075763          	bgez	a4,44bc <__addsf3+0x21e>
    4412:	0485                	addi	s1,s1,1
    4414:	0ff00713          	li	a4,255
    4418:	0ce48463          	beq	s1,a4,44e0 <__addsf3+0x242>
    441c:	7e0006b7          	lui	a3,0x7e000
    4420:	0017d713          	srli	a4,a5,0x1
    4424:	16fd                	addi	a3,a3,-1
    4426:	8b85                	andi	a5,a5,1
    4428:	8f75                	and	a4,a4,a3
    442a:	8fd9                	or	a5,a5,a4
    442c:	b735                	j	4358 <__addsf3+0xba>
    442e:	080e8d63          	beqz	t4,44c8 <__addsf3+0x22a>
    4432:	18fd                	addi	a7,a7,-1
    4434:	41de07b3          	sub	a5,t3,t4
    4438:	ee0882e3          	beqz	a7,431c <__addsf3+0x7e>
    443c:	0ff00793          	li	a5,255
    4440:	eaf49de3          	bne	s1,a5,42fa <__addsf3+0x5c>
    4444:	08030d63          	beqz	t1,44de <__addsf3+0x240>
    4448:	4601                	li	a2,0
    444a:	0ff00513          	li	a0,255
    444e:	004007b7          	lui	a5,0x400
    4452:	bf15                	j	4386 <__addsf3+0xe8>
    4454:	40980733          	sub	a4,a6,s1
    4458:	e8ed                	bnez	s1,454a <__addsf3+0x2ac>
    445a:	140e0263          	beqz	t3,459e <__addsf3+0x300>
    445e:	177d                	addi	a4,a4,-1
    4460:	18070863          	beqz	a4,45f0 <__addsf3+0x352>
    4464:	0ff00793          	li	a5,255
    4468:	0ef81963          	bne	a6,a5,455a <__addsf3+0x2bc>
    446c:	892e                	mv	s2,a1
    446e:	8336                	mv	t1,a3
    4470:	bfd1                	j	4444 <__addsf3+0x1a6>
    4472:	040e8b63          	beqz	t4,44c8 <__addsf3+0x22a>
    4476:	18fd                	addi	a7,a7,-1
    4478:	01de07b3          	add	a5,t3,t4
    447c:	f80887e3          	beqz	a7,440a <__addsf3+0x16c>
    4480:	0ff00793          	li	a5,255
    4484:	f6f493e3          	bne	s1,a5,43ea <__addsf3+0x14c>
    4488:	bf75                	j	4444 <__addsf3+0x1a6>
    448a:	08089563          	bnez	a7,4514 <__addsf3+0x276>
    448e:	0485                	addi	s1,s1,1
    4490:	0fe4f713          	andi	a4,s1,254
    4494:	12071363          	bnez	a4,45ba <__addsf3+0x31c>
    4498:	10051763          	bnez	a0,45a6 <__addsf3+0x308>
    449c:	140e0f63          	beqz	t3,45fa <__addsf3+0x35c>
    44a0:	ee0e83e3          	beqz	t4,4386 <__addsf3+0xe8>
    44a4:	01de07b3          	add	a5,t3,t4
    44a8:	00579713          	slli	a4,a5,0x5
    44ac:	4481                	li	s1,0
    44ae:	00075763          	bgez	a4,44bc <__addsf3+0x21e>
    44b2:	fc000737          	lui	a4,0xfc000
    44b6:	177d                	addi	a4,a4,-1
    44b8:	8ff9                	and	a5,a5,a4
    44ba:	4485                	li	s1,1
    44bc:	0077f713          	andi	a4,a5,7
    44c0:	e8071fe3          	bnez	a4,435e <__addsf3+0xc0>
    44c4:	0037d313          	srli	t1,a5,0x3
    44c8:	0ff00793          	li	a5,255
    44cc:	f6f48ce3          	beq	s1,a5,4444 <__addsf3+0x1a6>
    44d0:	00931793          	slli	a5,t1,0x9
    44d4:	83a5                	srli	a5,a5,0x9
    44d6:	0ff4f513          	andi	a0,s1,255
    44da:	864a                	mv	a2,s2
    44dc:	b56d                	j	4386 <__addsf3+0xe8>
    44de:	864a                	mv	a2,s2
    44e0:	0ff00513          	li	a0,255
    44e4:	4781                	li	a5,0
    44e6:	b545                	j	4386 <__addsf3+0xe8>
    44e8:	fc000737          	lui	a4,0xfc000
    44ec:	177d                	addi	a4,a4,-1
    44ee:	8ff9                	and	a5,a5,a4
    44f0:	0077f713          	andi	a4,a5,7
    44f4:	8c89                	sub	s1,s1,a0
    44f6:	e60714e3          	bnez	a4,435e <__addsf3+0xc0>
    44fa:	b7e9                	j	44c4 <__addsf3+0x226>
    44fc:	41de0433          	sub	s0,t3,t4
    4500:	00541793          	slli	a5,s0,0x5
    4504:	0c07c363          	bltz	a5,45ca <__addsf3+0x32c>
    4508:	e20412e3          	bnez	s0,432c <__addsf3+0x8e>
    450c:	4601                	li	a2,0
    450e:	4501                	li	a0,0
    4510:	4781                	li	a5,0
    4512:	bd95                	j	4386 <__addsf3+0xe8>
    4514:	40980733          	sub	a4,a6,s1
    4518:	c4ad                	beqz	s1,4582 <__addsf3+0x2e4>
    451a:	0ff00793          	li	a5,255
    451e:	f4f808e3          	beq	a6,a5,446e <__addsf3+0x1d0>
    4522:	040007b7          	lui	a5,0x4000
    4526:	00fe6e33          	or	t3,t3,a5
    452a:	47ed                	li	a5,27
    452c:	0ce7cc63          	blt	a5,a4,4604 <__addsf3+0x366>
    4530:	02000793          	li	a5,32
    4534:	8f99                	sub	a5,a5,a4
    4536:	00fe17b3          	sll	a5,t3,a5
    453a:	00ee5733          	srl	a4,t3,a4
    453e:	00f037b3          	snez	a5,a5
    4542:	8fd9                	or	a5,a5,a4
    4544:	97f6                	add	a5,a5,t4
    4546:	84c2                	mv	s1,a6
    4548:	b5c9                	j	440a <__addsf3+0x16c>
    454a:	0ff00793          	li	a5,255
    454e:	f0f80fe3          	beq	a6,a5,446c <__addsf3+0x1ce>
    4552:	040007b7          	lui	a5,0x4000
    4556:	00fe6e33          	or	t3,t3,a5
    455a:	47ed                	li	a5,27
    455c:	08e7c363          	blt	a5,a4,45e2 <__addsf3+0x344>
    4560:	02000693          	li	a3,32
    4564:	8e99                	sub	a3,a3,a4
    4566:	00de16b3          	sll	a3,t3,a3
    456a:	00ee57b3          	srl	a5,t3,a4
    456e:	00d03733          	snez	a4,a3
    4572:	8fd9                	or	a5,a5,a4
    4574:	40fe87b3          	sub	a5,t4,a5
    4578:	84c2                	mv	s1,a6
    457a:	892e                	mv	s2,a1
    457c:	b345                	j	431c <__addsf3+0x7e>
    457e:	4785                	li	a5,1
    4580:	bb61                	j	4318 <__addsf3+0x7a>
    4582:	060e0e63          	beqz	t3,45fe <__addsf3+0x360>
    4586:	177d                	addi	a4,a4,-1
    4588:	01de07b3          	add	a5,t3,t4
    458c:	84c2                	mv	s1,a6
    458e:	e6070ee3          	beqz	a4,440a <__addsf3+0x16c>
    4592:	0ff00793          	li	a5,255
    4596:	f8f81ae3          	bne	a6,a5,452a <__addsf3+0x28c>
    459a:	8336                	mv	t1,a3
    459c:	b565                	j	4444 <__addsf3+0x1a6>
    459e:	8336                	mv	t1,a3
    45a0:	84c2                	mv	s1,a6
    45a2:	892e                	mv	s2,a1
    45a4:	b715                	j	44c8 <__addsf3+0x22a>
    45a6:	ec0e04e3          	beqz	t3,446e <__addsf3+0x1d0>
    45aa:	e80e8de3          	beqz	t4,4444 <__addsf3+0x1a6>
    45ae:	bd69                	j	4448 <__addsf3+0x1aa>
    45b0:	020e8d63          	beqz	t4,45ea <__addsf3+0x34c>
    45b4:	862e                	mv	a2,a1
    45b6:	87b6                	mv	a5,a3
    45b8:	b3f9                	j	4386 <__addsf3+0xe8>
    45ba:	0ff00793          	li	a5,255
    45be:	f2f481e3          	beq	s1,a5,44e0 <__addsf3+0x242>
    45c2:	01de07b3          	add	a5,t3,t4
    45c6:	8385                	srli	a5,a5,0x1
    45c8:	bdd5                	j	44bc <__addsf3+0x21e>
    45ca:	41ce8433          	sub	s0,t4,t3
    45ce:	892e                	mv	s2,a1
    45d0:	bbb1                	j	432c <__addsf3+0x8e>
    45d2:	fc0e1ce3          	bnez	t3,45aa <__addsf3+0x30c>
    45d6:	e60e89e3          	beqz	t4,4448 <__addsf3+0x1aa>
    45da:	892e                	mv	s2,a1
    45dc:	bd49                	j	446e <__addsf3+0x1d0>
    45de:	4785                	li	a5,1
    45e0:	b525                	j	4408 <__addsf3+0x16a>
    45e2:	4785                	li	a5,1
    45e4:	bf41                	j	4574 <__addsf3+0x2d6>
    45e6:	ec079be3          	bnez	a5,44bc <__addsf3+0x21e>
    45ea:	4601                	li	a2,0
    45ec:	4781                	li	a5,0
    45ee:	bb61                	j	4386 <__addsf3+0xe8>
    45f0:	41ce87b3          	sub	a5,t4,t3
    45f4:	84c2                	mv	s1,a6
    45f6:	892e                	mv	s2,a1
    45f8:	b315                	j	431c <__addsf3+0x7e>
    45fa:	87b6                	mv	a5,a3
    45fc:	b369                	j	4386 <__addsf3+0xe8>
    45fe:	8336                	mv	t1,a3
    4600:	84c2                	mv	s1,a6
    4602:	b5d9                	j	44c8 <__addsf3+0x22a>
    4604:	4785                	li	a5,1
    4606:	bf3d                	j	4544 <__addsf3+0x2a6>

00004608 <__divsf3>:
    4608:	7139                	addi	sp,sp,-64
    460a:	01755793          	srli	a5,a0,0x17
    460e:	d84a                	sw	s2,48(sp)
    4610:	d256                	sw	s5,36(sp)
    4612:	ce5e                	sw	s7,28(sp)
    4614:	00951a93          	slli	s5,a0,0x9
    4618:	01f55913          	srli	s2,a0,0x1f
    461c:	de06                	sw	ra,60(sp)
    461e:	dc22                	sw	s0,56(sp)
    4620:	da26                	sw	s1,52(sp)
    4622:	d64e                	sw	s3,44(sp)
    4624:	d452                	sw	s4,40(sp)
    4626:	d05a                	sw	s6,32(sp)
    4628:	0ff7f793          	andi	a5,a5,255
    462c:	009ada93          	srli	s5,s5,0x9
    4630:	8bca                	mv	s7,s2
    4632:	12078263          	beqz	a5,4756 <__divsf3+0x14e>
    4636:	0ff00713          	li	a4,255
    463a:	12e78463          	beq	a5,a4,4762 <__divsf3+0x15a>
    463e:	0a8e                	slli	s5,s5,0x3
    4640:	04000737          	lui	a4,0x4000
    4644:	00eaeab3          	or	s5,s5,a4
    4648:	f8178a13          	addi	s4,a5,-127 # 3ffff81 <_data_lma+0x3ff3695>
    464c:	4401                	li	s0,0
    464e:	4b01                	li	s6,0
    4650:	0175d793          	srli	a5,a1,0x17
    4654:	00959493          	slli	s1,a1,0x9
    4658:	0ff7f793          	andi	a5,a5,255
    465c:	80a5                	srli	s1,s1,0x9
    465e:	01f5d993          	srli	s3,a1,0x1f
    4662:	c7fd                	beqz	a5,4750 <__divsf3+0x148>
    4664:	0ff00713          	li	a4,255
    4668:	02e78763          	beq	a5,a4,4696 <__divsf3+0x8e>
    466c:	048e                	slli	s1,s1,0x3
    466e:	f8178793          	addi	a5,a5,-127
    4672:	04000737          	lui	a4,0x4000
    4676:	8cd9                	or	s1,s1,a4
    4678:	40fa0a33          	sub	s4,s4,a5
    467c:	4681                	li	a3,0
    467e:	8c55                	or	s0,s0,a3
    4680:	00008717          	auipc	a4,0x8
    4684:	cd070713          	addi	a4,a4,-816 # c350 <g_item_map+0x8e0>
    4688:	040a                	slli	s0,s0,0x2
    468a:	943a                	add	s0,s0,a4
    468c:	401c                	lw	a5,0(s0)
    468e:	01394933          	xor	s2,s2,s3
    4692:	97ba                	add	a5,a5,a4
    4694:	8782                	jr	a5
    4696:	f01a0a13          	addi	s4,s4,-255
    469a:	e8f9                	bnez	s1,4770 <__divsf3+0x168>
    469c:	4689                	li	a3,2
    469e:	8c55                	or	s0,s0,a3
    46a0:	00008717          	auipc	a4,0x8
    46a4:	cf070713          	addi	a4,a4,-784 # c390 <g_item_map+0x920>
    46a8:	040a                	slli	s0,s0,0x2
    46aa:	943a                	add	s0,s0,a4
    46ac:	401c                	lw	a5,0(s0)
    46ae:	01394933          	xor	s2,s2,s3
    46b2:	97ba                	add	a5,a5,a4
    46b4:	8782                	jr	a5
    46b6:	4901                	li	s2,0
    46b8:	0ff00713          	li	a4,255
    46bc:	004007b7          	lui	a5,0x400
    46c0:	00979513          	slli	a0,a5,0x9
    46c4:	50f2                	lw	ra,60(sp)
    46c6:	5462                	lw	s0,56(sp)
    46c8:	01771793          	slli	a5,a4,0x17
    46cc:	8125                	srli	a0,a0,0x9
    46ce:	097e                	slli	s2,s2,0x1f
    46d0:	8d5d                	or	a0,a0,a5
    46d2:	01256533          	or	a0,a0,s2
    46d6:	54d2                	lw	s1,52(sp)
    46d8:	5942                	lw	s2,48(sp)
    46da:	59b2                	lw	s3,44(sp)
    46dc:	5a22                	lw	s4,40(sp)
    46de:	5a92                	lw	s5,36(sp)
    46e0:	5b02                	lw	s6,32(sp)
    46e2:	4bf2                	lw	s7,28(sp)
    46e4:	6121                	addi	sp,sp,64
    46e6:	8082                	ret
    46e8:	0ff00713          	li	a4,255
    46ec:	4781                	li	a5,0
    46ee:	bfc9                	j	46c0 <__divsf3+0xb8>
    46f0:	8aa6                	mv	s5,s1
    46f2:	8bce                	mv	s7,s3
    46f4:	8b36                	mv	s6,a3
    46f6:	4789                	li	a5,2
    46f8:	1afb0b63          	beq	s6,a5,48ae <__divsf3+0x2a6>
    46fc:	478d                	li	a5,3
    46fe:	fafb0ce3          	beq	s6,a5,46b6 <__divsf3+0xae>
    4702:	4785                	li	a5,1
    4704:	0afb0a63          	beq	s6,a5,47b8 <__divsf3+0x1b0>
    4708:	07fa0713          	addi	a4,s4,127
    470c:	001bf913          	andi	s2,s7,1
    4710:	12e05763          	blez	a4,483e <__divsf3+0x236>
    4714:	007af793          	andi	a5,s5,7
    4718:	c799                	beqz	a5,4726 <__divsf3+0x11e>
    471a:	00faf793          	andi	a5,s5,15
    471e:	4691                	li	a3,4
    4720:	00d78363          	beq	a5,a3,4726 <__divsf3+0x11e>
    4724:	0a91                	addi	s5,s5,4
    4726:	004a9793          	slli	a5,s5,0x4
    472a:	0007d963          	bgez	a5,473c <__divsf3+0x134>
    472e:	f80007b7          	lui	a5,0xf8000
    4732:	17fd                	addi	a5,a5,-1
    4734:	00fafab3          	and	s5,s5,a5
    4738:	080a0713          	addi	a4,s4,128
    473c:	0fe00793          	li	a5,254
    4740:	fae7c4e3          	blt	a5,a4,46e8 <__divsf3+0xe0>
    4744:	006a9793          	slli	a5,s5,0x6
    4748:	83a5                	srli	a5,a5,0x9
    474a:	0ff77713          	andi	a4,a4,255
    474e:	bf8d                	j	46c0 <__divsf3+0xb8>
    4750:	e4b9                	bnez	s1,479e <__divsf3+0x196>
    4752:	4685                	li	a3,1
    4754:	b7a9                	j	469e <__divsf3+0x96>
    4756:	020a9463          	bnez	s5,477e <__divsf3+0x176>
    475a:	4411                	li	s0,4
    475c:	4a01                	li	s4,0
    475e:	4b05                	li	s6,1
    4760:	bdc5                	j	4650 <__divsf3+0x48>
    4762:	000a9963          	bnez	s5,4774 <__divsf3+0x16c>
    4766:	4421                	li	s0,8
    4768:	0ff00a13          	li	s4,255
    476c:	4b09                	li	s6,2
    476e:	b5cd                	j	4650 <__divsf3+0x48>
    4770:	468d                	li	a3,3
    4772:	b731                	j	467e <__divsf3+0x76>
    4774:	4431                	li	s0,12
    4776:	0ff00a13          	li	s4,255
    477a:	4b0d                	li	s6,3
    477c:	bdd1                	j	4650 <__divsf3+0x48>
    477e:	8556                	mv	a0,s5
    4780:	c62e                	sw	a1,12(sp)
    4782:	457000ef          	jal	ra,53d8 <__clzsi2>
    4786:	ffb50793          	addi	a5,a0,-5
    478a:	00fa9ab3          	sll	s5,s5,a5
    478e:	f8a00793          	li	a5,-118
    4792:	40a78a33          	sub	s4,a5,a0
    4796:	4401                	li	s0,0
    4798:	4b01                	li	s6,0
    479a:	45b2                	lw	a1,12(sp)
    479c:	bd55                	j	4650 <__divsf3+0x48>
    479e:	8526                	mv	a0,s1
    47a0:	439000ef          	jal	ra,53d8 <__clzsi2>
    47a4:	ffb50713          	addi	a4,a0,-5
    47a8:	00aa07b3          	add	a5,s4,a0
    47ac:	00e494b3          	sll	s1,s1,a4
    47b0:	07678a13          	addi	s4,a5,118 # f8000076 <_eusrstack+0xd7ff8076>
    47b4:	4681                	li	a3,0
    47b6:	b5e1                	j	467e <__divsf3+0x76>
    47b8:	001bf913          	andi	s2,s7,1
    47bc:	4701                	li	a4,0
    47be:	4781                	li	a5,0
    47c0:	b701                	j	46c0 <__divsf3+0xb8>
    47c2:	6641                	lui	a2,0x10
    47c4:	00549513          	slli	a0,s1,0x5
    47c8:	167d                	addi	a2,a2,-1
    47ca:	01055793          	srli	a5,a0,0x10
    47ce:	8e69                	and	a2,a2,a0
    47d0:	0a9afa63          	bgeu	s5,s1,4884 <__divsf3+0x27c>
    47d4:	02fad5b3          	divu	a1,s5,a5
    47d8:	1a7d                	addi	s4,s4,-1
    47da:	86d6                	mv	a3,s5
    47dc:	4701                	li	a4,0
    47de:	02c58833          	mul	a6,a1,a2
    47e2:	02f6f6b3          	remu	a3,a3,a5
    47e6:	06c2                	slli	a3,a3,0x10
    47e8:	8f55                	or	a4,a4,a3
    47ea:	01077b63          	bgeu	a4,a6,4800 <__divsf3+0x1f8>
    47ee:	972a                	add	a4,a4,a0
    47f0:	fff58693          	addi	a3,a1,-1 # 40020fff <_eusrstack+0x20018fff>
    47f4:	0aa76863          	bltu	a4,a0,48a4 <__divsf3+0x29c>
    47f8:	0b077663          	bgeu	a4,a6,48a4 <__divsf3+0x29c>
    47fc:	15f9                	addi	a1,a1,-2
    47fe:	972a                	add	a4,a4,a0
    4800:	41070733          	sub	a4,a4,a6
    4804:	02f756b3          	divu	a3,a4,a5
    4808:	02f77733          	remu	a4,a4,a5
    480c:	02c68ab3          	mul	s5,a3,a2
    4810:	01071793          	slli	a5,a4,0x10
    4814:	0157fb63          	bgeu	a5,s5,482a <__divsf3+0x222>
    4818:	97aa                	add	a5,a5,a0
    481a:	fff68713          	addi	a4,a3,-1 # 7dffffff <_eusrstack+0x5dff7fff>
    481e:	08a7e163          	bltu	a5,a0,48a0 <__divsf3+0x298>
    4822:	0757ff63          	bgeu	a5,s5,48a0 <__divsf3+0x298>
    4826:	16f9                	addi	a3,a3,-2
    4828:	97aa                	add	a5,a5,a0
    482a:	05c2                	slli	a1,a1,0x10
    482c:	41578ab3          	sub	s5,a5,s5
    4830:	8dd5                	or	a1,a1,a3
    4832:	01503ab3          	snez	s5,s5
    4836:	0155eab3          	or	s5,a1,s5
    483a:	8bca                	mv	s7,s2
    483c:	b5f1                	j	4708 <__divsf3+0x100>
    483e:	4685                	li	a3,1
    4840:	8e99                	sub	a3,a3,a4
    4842:	c711                	beqz	a4,484e <__divsf3+0x246>
    4844:	466d                	li	a2,27
    4846:	4701                	li	a4,0
    4848:	4781                	li	a5,0
    484a:	e6d64be3          	blt	a2,a3,46c0 <__divsf3+0xb8>
    484e:	09ea0a13          	addi	s4,s4,158
    4852:	014a9a33          	sll	s4,s5,s4
    4856:	00dad7b3          	srl	a5,s5,a3
    485a:	01403ab3          	snez	s5,s4
    485e:	0157e7b3          	or	a5,a5,s5
    4862:	0077f713          	andi	a4,a5,7
    4866:	c719                	beqz	a4,4874 <__divsf3+0x26c>
    4868:	00f7f713          	andi	a4,a5,15
    486c:	4691                	li	a3,4
    486e:	00d70363          	beq	a4,a3,4874 <__divsf3+0x26c>
    4872:	0791                	addi	a5,a5,4
    4874:	00579713          	slli	a4,a5,0x5
    4878:	02074863          	bltz	a4,48a8 <__divsf3+0x2a0>
    487c:	079a                	slli	a5,a5,0x6
    487e:	83a5                	srli	a5,a5,0x9
    4880:	4701                	li	a4,0
    4882:	bd3d                	j	46c0 <__divsf3+0xb8>
    4884:	001ad693          	srli	a3,s5,0x1
    4888:	02f6d5b3          	divu	a1,a3,a5
    488c:	01fa9713          	slli	a4,s5,0x1f
    4890:	8341                	srli	a4,a4,0x10
    4892:	02c58833          	mul	a6,a1,a2
    4896:	b7b1                	j	47e2 <__divsf3+0x1da>
    4898:	8bce                	mv	s7,s3
    489a:	8b36                	mv	s6,a3
    489c:	4a81                	li	s5,0
    489e:	bda1                	j	46f6 <__divsf3+0xee>
    48a0:	86ba                	mv	a3,a4
    48a2:	b761                	j	482a <__divsf3+0x222>
    48a4:	85b6                	mv	a1,a3
    48a6:	bfa9                	j	4800 <__divsf3+0x1f8>
    48a8:	4705                	li	a4,1
    48aa:	4781                	li	a5,0
    48ac:	bd11                	j	46c0 <__divsf3+0xb8>
    48ae:	001bf913          	andi	s2,s7,1
    48b2:	0ff00713          	li	a4,255
    48b6:	4781                	li	a5,0
    48b8:	b521                	j	46c0 <__divsf3+0xb8>

000048ba <__eqsf2>:
    48ba:	01755693          	srli	a3,a0,0x17
    48be:	008007b7          	lui	a5,0x800
    48c2:	17fd                	addi	a5,a5,-1
    48c4:	0175d613          	srli	a2,a1,0x17
    48c8:	0ff6f693          	andi	a3,a3,255
    48cc:	0ff00813          	li	a6,255
    48d0:	00a7f8b3          	and	a7,a5,a0
    48d4:	01f55713          	srli	a4,a0,0x1f
    48d8:	8fed                	and	a5,a5,a1
    48da:	0ff67613          	andi	a2,a2,255
    48de:	81fd                	srli	a1,a1,0x1f
    48e0:	03068463          	beq	a3,a6,4908 <__eqsf2+0x4e>
    48e4:	0ff00513          	li	a0,255
    48e8:	02a60463          	beq	a2,a0,4910 <__eqsf2+0x56>
    48ec:	4505                	li	a0,1
    48ee:	00c68363          	beq	a3,a2,48f4 <__eqsf2+0x3a>
    48f2:	8082                	ret
    48f4:	fef89fe3          	bne	a7,a5,48f2 <__eqsf2+0x38>
    48f8:	4501                	li	a0,0
    48fa:	feb70ce3          	beq	a4,a1,48f2 <__eqsf2+0x38>
    48fe:	4505                	li	a0,1
    4900:	faed                	bnez	a3,48f2 <__eqsf2+0x38>
    4902:	01103533          	snez	a0,a7
    4906:	8082                	ret
    4908:	4505                	li	a0,1
    490a:	fc088de3          	beqz	a7,48e4 <__eqsf2+0x2a>
    490e:	8082                	ret
    4910:	4505                	li	a0,1
    4912:	dfe9                	beqz	a5,48ec <__eqsf2+0x32>
    4914:	8082                	ret

00004916 <__gesf2>:
    4916:	01755693          	srli	a3,a0,0x17
    491a:	008007b7          	lui	a5,0x800
    491e:	17fd                	addi	a5,a5,-1
    4920:	0175d613          	srli	a2,a1,0x17
    4924:	0ff6f693          	andi	a3,a3,255
    4928:	0ff00813          	li	a6,255
    492c:	00a7f8b3          	and	a7,a5,a0
    4930:	01f55713          	srli	a4,a0,0x1f
    4934:	8fed                	and	a5,a5,a1
    4936:	0ff67613          	andi	a2,a2,255
    493a:	81fd                	srli	a1,a1,0x1f
    493c:	03068163          	beq	a3,a6,495e <__gesf2+0x48>
    4940:	01060c63          	beq	a2,a6,4958 <__gesf2+0x42>
    4944:	e28d                	bnez	a3,4966 <__gesf2+0x50>
    4946:	e211                	bnez	a2,494a <__gesf2+0x34>
    4948:	c3b1                	beqz	a5,498c <__gesf2+0x76>
    494a:	02088e63          	beqz	a7,4986 <__gesf2+0x70>
    494e:	04b70563          	beq	a4,a1,4998 <__gesf2+0x82>
    4952:	4505                	li	a0,1
    4954:	e71d                	bnez	a4,4982 <__gesf2+0x6c>
    4956:	8082                	ret
    4958:	d7f5                	beqz	a5,4944 <__gesf2+0x2e>
    495a:	5579                	li	a0,-2
    495c:	8082                	ret
    495e:	fe089ee3          	bnez	a7,495a <__gesf2+0x44>
    4962:	02d60963          	beq	a2,a3,4994 <__gesf2+0x7e>
    4966:	e211                	bnez	a2,496a <__gesf2+0x54>
    4968:	d7ed                	beqz	a5,4952 <__gesf2+0x3c>
    496a:	feb714e3          	bne	a4,a1,4952 <__gesf2+0x3c>
    496e:	fed642e3          	blt	a2,a3,4952 <__gesf2+0x3c>
    4972:	00c6c763          	blt	a3,a2,4980 <__gesf2+0x6a>
    4976:	fd17eee3          	bltu	a5,a7,4952 <__gesf2+0x3c>
    497a:	4501                	li	a0,0
    497c:	fcf8fde3          	bgeu	a7,a5,4956 <__gesf2+0x40>
    4980:	e701                	bnez	a4,4988 <__gesf2+0x72>
    4982:	557d                	li	a0,-1
    4984:	8082                	ret
    4986:	ddf5                	beqz	a1,4982 <__gesf2+0x6c>
    4988:	4505                	li	a0,1
    498a:	8082                	ret
    498c:	4501                	li	a0,0
    498e:	fc0892e3          	bnez	a7,4952 <__gesf2+0x3c>
    4992:	8082                	ret
    4994:	dbf9                	beqz	a5,496a <__gesf2+0x54>
    4996:	b7d1                	j	495a <__gesf2+0x44>
    4998:	4681                	li	a3,0
    499a:	bfe1                	j	4972 <__gesf2+0x5c>

0000499c <__lesf2>:
    499c:	01755693          	srli	a3,a0,0x17
    49a0:	008007b7          	lui	a5,0x800
    49a4:	17fd                	addi	a5,a5,-1
    49a6:	0175d613          	srli	a2,a1,0x17
    49aa:	0ff6f693          	andi	a3,a3,255
    49ae:	0ff00813          	li	a6,255
    49b2:	00a7f8b3          	and	a7,a5,a0
    49b6:	01f55713          	srli	a4,a0,0x1f
    49ba:	8fed                	and	a5,a5,a1
    49bc:	0ff67613          	andi	a2,a2,255
    49c0:	81fd                	srli	a1,a1,0x1f
    49c2:	03068763          	beq	a3,a6,49f0 <__lesf2+0x54>
    49c6:	01060963          	beq	a2,a6,49d8 <__lesf2+0x3c>
    49ca:	ea85                	bnez	a3,49fa <__lesf2+0x5e>
    49cc:	ea11                	bnez	a2,49e0 <__lesf2+0x44>
    49ce:	eb89                	bnez	a5,49e0 <__lesf2+0x44>
    49d0:	4501                	li	a0,0
    49d2:	00089b63          	bnez	a7,49e8 <__lesf2+0x4c>
    49d6:	8082                	ret
    49d8:	4509                	li	a0,2
    49da:	fff5                	bnez	a5,49d6 <__lesf2+0x3a>
    49dc:	dae5                	beqz	a3,49cc <__lesf2+0x30>
    49de:	a831                	j	49fa <__lesf2+0x5e>
    49e0:	02088c63          	beqz	a7,4a18 <__lesf2+0x7c>
    49e4:	04b70063          	beq	a4,a1,4a24 <__lesf2+0x88>
    49e8:	4505                	li	a0,1
    49ea:	d775                	beqz	a4,49d6 <__lesf2+0x3a>
    49ec:	557d                	li	a0,-1
    49ee:	8082                	ret
    49f0:	4509                	li	a0,2
    49f2:	02089863          	bnez	a7,4a22 <__lesf2+0x86>
    49f6:	02d60463          	beq	a2,a3,4a1e <__lesf2+0x82>
    49fa:	e211                	bnez	a2,49fe <__lesf2+0x62>
    49fc:	d7f5                	beqz	a5,49e8 <__lesf2+0x4c>
    49fe:	feb715e3          	bne	a4,a1,49e8 <__lesf2+0x4c>
    4a02:	fed643e3          	blt	a2,a3,49e8 <__lesf2+0x4c>
    4a06:	00c6c763          	blt	a3,a2,4a14 <__lesf2+0x78>
    4a0a:	fd17efe3          	bltu	a5,a7,49e8 <__lesf2+0x4c>
    4a0e:	4501                	li	a0,0
    4a10:	fcf8f3e3          	bgeu	a7,a5,49d6 <__lesf2+0x3a>
    4a14:	e319                	bnez	a4,4a1a <__lesf2+0x7e>
    4a16:	bfd9                	j	49ec <__lesf2+0x50>
    4a18:	d9f1                	beqz	a1,49ec <__lesf2+0x50>
    4a1a:	4505                	li	a0,1
    4a1c:	8082                	ret
    4a1e:	d3e5                	beqz	a5,49fe <__lesf2+0x62>
    4a20:	8082                	ret
    4a22:	8082                	ret
    4a24:	4681                	li	a3,0
    4a26:	b7c5                	j	4a06 <__lesf2+0x6a>

00004a28 <__mulsf3>:
    4a28:	7179                	addi	sp,sp,-48
    4a2a:	d422                	sw	s0,40(sp)
    4a2c:	01755413          	srli	s0,a0,0x17
    4a30:	ce4e                	sw	s3,28(sp)
    4a32:	cc52                	sw	s4,24(sp)
    4a34:	00951993          	slli	s3,a0,0x9
    4a38:	d606                	sw	ra,44(sp)
    4a3a:	d226                	sw	s1,36(sp)
    4a3c:	d04a                	sw	s2,32(sp)
    4a3e:	ca56                	sw	s5,20(sp)
    4a40:	c85a                	sw	s6,16(sp)
    4a42:	0ff47413          	andi	s0,s0,255
    4a46:	0099d993          	srli	s3,s3,0x9
    4a4a:	01f55a13          	srli	s4,a0,0x1f
    4a4e:	c469                	beqz	s0,4b18 <__mulsf3+0xf0>
    4a50:	0ff00793          	li	a5,255
    4a54:	0ef40863          	beq	s0,a5,4b44 <__mulsf3+0x11c>
    4a58:	00399793          	slli	a5,s3,0x3
    4a5c:	04000737          	lui	a4,0x4000
    4a60:	00e7e9b3          	or	s3,a5,a4
    4a64:	f8140413          	addi	s0,s0,-127 # 3ffff81 <_data_lma+0x3ff3695>
    4a68:	4481                	li	s1,0
    4a6a:	4b01                	li	s6,0
    4a6c:	0175d713          	srli	a4,a1,0x17
    4a70:	00959a93          	slli	s5,a1,0x9
    4a74:	0ff77713          	andi	a4,a4,255
    4a78:	009ada93          	srli	s5,s5,0x9
    4a7c:	01f5d913          	srli	s2,a1,0x1f
    4a80:	cf45                	beqz	a4,4b38 <__mulsf3+0x110>
    4a82:	0ff00793          	li	a5,255
    4a86:	02f70c63          	beq	a4,a5,4abe <__mulsf3+0x96>
    4a8a:	0a8e                	slli	s5,s5,0x3
    4a8c:	f8170713          	addi	a4,a4,-127 # 3ffff81 <_data_lma+0x3ff3695>
    4a90:	040007b7          	lui	a5,0x4000
    4a94:	00faeab3          	or	s5,s5,a5
    4a98:	943a                	add	s0,s0,a4
    4a9a:	4601                	li	a2,0
    4a9c:	012a4533          	xor	a0,s4,s2
    4aa0:	47bd                	li	a5,15
    4aa2:	86aa                	mv	a3,a0
    4aa4:	00140593          	addi	a1,s0,1
    4aa8:	1097e263          	bltu	a5,s1,4bac <__mulsf3+0x184>
    4aac:	00008717          	auipc	a4,0x8
    4ab0:	92470713          	addi	a4,a4,-1756 # c3d0 <g_item_map+0x960>
    4ab4:	048a                	slli	s1,s1,0x2
    4ab6:	94ba                	add	s1,s1,a4
    4ab8:	409c                	lw	a5,0(s1)
    4aba:	97ba                	add	a5,a5,a4
    4abc:	8782                	jr	a5
    4abe:	0ff40413          	addi	s0,s0,255
    4ac2:	0c0a9863          	bnez	s5,4b92 <__mulsf3+0x16a>
    4ac6:	0024e493          	ori	s1,s1,2
    4aca:	4609                	li	a2,2
    4acc:	bfc1                	j	4a9c <__mulsf3+0x74>
    4ace:	4501                	li	a0,0
    4ad0:	0ff00713          	li	a4,255
    4ad4:	004007b7          	lui	a5,0x400
    4ad8:	50b2                	lw	ra,44(sp)
    4ada:	5422                	lw	s0,40(sp)
    4adc:	07a6                	slli	a5,a5,0x9
    4ade:	075e                	slli	a4,a4,0x17
    4ae0:	83a5                	srli	a5,a5,0x9
    4ae2:	057e                	slli	a0,a0,0x1f
    4ae4:	8fd9                	or	a5,a5,a4
    4ae6:	5492                	lw	s1,36(sp)
    4ae8:	5902                	lw	s2,32(sp)
    4aea:	49f2                	lw	s3,28(sp)
    4aec:	4a62                	lw	s4,24(sp)
    4aee:	4ad2                	lw	s5,20(sp)
    4af0:	4b42                	lw	s6,16(sp)
    4af2:	8d5d                	or	a0,a0,a5
    4af4:	6145                	addi	sp,sp,48
    4af6:	8082                	ret
    4af8:	86ca                	mv	a3,s2
    4afa:	89d6                	mv	s3,s5
    4afc:	8b32                	mv	s6,a2
    4afe:	4789                	li	a5,2
    4b00:	0afb0163          	beq	s6,a5,4ba2 <__mulsf3+0x17a>
    4b04:	478d                	li	a5,3
    4b06:	fcfb04e3          	beq	s6,a5,4ace <__mulsf3+0xa6>
    4b0a:	4785                	li	a5,1
    4b0c:	8536                	mv	a0,a3
    4b0e:	1afb1263          	bne	s6,a5,4cb2 <__mulsf3+0x28a>
    4b12:	4701                	li	a4,0
    4b14:	4781                	li	a5,0
    4b16:	b7c9                	j	4ad8 <__mulsf3+0xb0>
    4b18:	04099e63          	bnez	s3,4b74 <__mulsf3+0x14c>
    4b1c:	0175d713          	srli	a4,a1,0x17
    4b20:	00959a93          	slli	s5,a1,0x9
    4b24:	0ff77713          	andi	a4,a4,255
    4b28:	4491                	li	s1,4
    4b2a:	4401                	li	s0,0
    4b2c:	4b05                	li	s6,1
    4b2e:	009ada93          	srli	s5,s5,0x9
    4b32:	01f5d913          	srli	s2,a1,0x1f
    4b36:	f731                	bnez	a4,4a82 <__mulsf3+0x5a>
    4b38:	000a9d63          	bnez	s5,4b52 <__mulsf3+0x12a>
    4b3c:	0014e493          	ori	s1,s1,1
    4b40:	4605                	li	a2,1
    4b42:	bfa9                	j	4a9c <__mulsf3+0x74>
    4b44:	02099363          	bnez	s3,4b6a <__mulsf3+0x142>
    4b48:	44a1                	li	s1,8
    4b4a:	0ff00413          	li	s0,255
    4b4e:	4b09                	li	s6,2
    4b50:	bf31                	j	4a6c <__mulsf3+0x44>
    4b52:	8556                	mv	a0,s5
    4b54:	085000ef          	jal	ra,53d8 <__clzsi2>
    4b58:	ffb50793          	addi	a5,a0,-5
    4b5c:	8c09                	sub	s0,s0,a0
    4b5e:	00fa9ab3          	sll	s5,s5,a5
    4b62:	f8a40413          	addi	s0,s0,-118
    4b66:	4601                	li	a2,0
    4b68:	bf15                	j	4a9c <__mulsf3+0x74>
    4b6a:	44b1                	li	s1,12
    4b6c:	0ff00413          	li	s0,255
    4b70:	4b0d                	li	s6,3
    4b72:	bded                	j	4a6c <__mulsf3+0x44>
    4b74:	854e                	mv	a0,s3
    4b76:	c62e                	sw	a1,12(sp)
    4b78:	061000ef          	jal	ra,53d8 <__clzsi2>
    4b7c:	ffb50793          	addi	a5,a0,-5
    4b80:	f8a00413          	li	s0,-118
    4b84:	00f999b3          	sll	s3,s3,a5
    4b88:	8c09                	sub	s0,s0,a0
    4b8a:	4481                	li	s1,0
    4b8c:	4b01                	li	s6,0
    4b8e:	45b2                	lw	a1,12(sp)
    4b90:	bdf1                	j	4a6c <__mulsf3+0x44>
    4b92:	0034e493          	ori	s1,s1,3
    4b96:	460d                	li	a2,3
    4b98:	b711                	j	4a9c <__mulsf3+0x74>
    4b9a:	4789                	li	a5,2
    4b9c:	86d2                	mv	a3,s4
    4b9e:	f6fb13e3          	bne	s6,a5,4b04 <__mulsf3+0xdc>
    4ba2:	8536                	mv	a0,a3
    4ba4:	0ff00713          	li	a4,255
    4ba8:	4781                	li	a5,0
    4baa:	b73d                	j	4ad8 <__mulsf3+0xb0>
    4bac:	6341                	lui	t1,0x10
    4bae:	fff30693          	addi	a3,t1,-1 # ffff <_data_lma+0x3713>
    4bb2:	0109d613          	srli	a2,s3,0x10
    4bb6:	010ad893          	srli	a7,s5,0x10
    4bba:	00d9f7b3          	and	a5,s3,a3
    4bbe:	00dafab3          	and	s5,s5,a3
    4bc2:	03578833          	mul	a6,a5,s5
    4bc6:	02f889b3          	mul	s3,a7,a5
    4bca:	01085713          	srli	a4,a6,0x10
    4bce:	03560ab3          	mul	s5,a2,s5
    4bd2:	99d6                	add	s3,s3,s5
    4bd4:	974e                	add	a4,a4,s3
    4bd6:	03160633          	mul	a2,a2,a7
    4bda:	01577363          	bgeu	a4,s5,4be0 <__mulsf3+0x1b8>
    4bde:	961a                	add	a2,a2,t1
    4be0:	67c1                	lui	a5,0x10
    4be2:	17fd                	addi	a5,a5,-1
    4be4:	00f776b3          	and	a3,a4,a5
    4be8:	00f87833          	and	a6,a6,a5
    4bec:	06c2                	slli	a3,a3,0x10
    4bee:	96c2                	add	a3,a3,a6
    4bf0:	00669993          	slli	s3,a3,0x6
    4bf4:	01075793          	srli	a5,a4,0x10
    4bf8:	013039b3          	snez	s3,s3
    4bfc:	82e9                	srli	a3,a3,0x1a
    4bfe:	97b2                	add	a5,a5,a2
    4c00:	079a                	slli	a5,a5,0x6
    4c02:	00d9e6b3          	or	a3,s3,a3
    4c06:	00d7e9b3          	or	s3,a5,a3
    4c0a:	00499793          	slli	a5,s3,0x4
    4c0e:	0007d963          	bgez	a5,4c20 <__mulsf3+0x1f8>
    4c12:	0019d713          	srli	a4,s3,0x1
    4c16:	0019f793          	andi	a5,s3,1
    4c1a:	00f769b3          	or	s3,a4,a5
    4c1e:	842e                	mv	s0,a1
    4c20:	07f40713          	addi	a4,s0,127
    4c24:	04e05063          	blez	a4,4c64 <__mulsf3+0x23c>
    4c28:	0079f793          	andi	a5,s3,7
    4c2c:	c799                	beqz	a5,4c3a <__mulsf3+0x212>
    4c2e:	00f9f793          	andi	a5,s3,15
    4c32:	4691                	li	a3,4
    4c34:	00d78363          	beq	a5,a3,4c3a <__mulsf3+0x212>
    4c38:	0991                	addi	s3,s3,4
    4c3a:	00499793          	slli	a5,s3,0x4
    4c3e:	0007d963          	bgez	a5,4c50 <__mulsf3+0x228>
    4c42:	f80007b7          	lui	a5,0xf8000
    4c46:	17fd                	addi	a5,a5,-1
    4c48:	00f9f9b3          	and	s3,s3,a5
    4c4c:	08040713          	addi	a4,s0,128
    4c50:	0fe00793          	li	a5,254
    4c54:	04e7cb63          	blt	a5,a4,4caa <__mulsf3+0x282>
    4c58:	00699793          	slli	a5,s3,0x6
    4c5c:	83a5                	srli	a5,a5,0x9
    4c5e:	0ff77713          	andi	a4,a4,255
    4c62:	bd9d                	j	4ad8 <__mulsf3+0xb0>
    4c64:	4785                	li	a5,1
    4c66:	40e786b3          	sub	a3,a5,a4
    4c6a:	c711                	beqz	a4,4c76 <__mulsf3+0x24e>
    4c6c:	466d                	li	a2,27
    4c6e:	4701                	li	a4,0
    4c70:	4781                	li	a5,0
    4c72:	e6d643e3          	blt	a2,a3,4ad8 <__mulsf3+0xb0>
    4c76:	09e40713          	addi	a4,s0,158
    4c7a:	00e99733          	sll	a4,s3,a4
    4c7e:	00e03733          	snez	a4,a4
    4c82:	00d9d7b3          	srl	a5,s3,a3
    4c86:	8fd9                	or	a5,a5,a4
    4c88:	0077f713          	andi	a4,a5,7
    4c8c:	c719                	beqz	a4,4c9a <__mulsf3+0x272>
    4c8e:	00f7f713          	andi	a4,a5,15
    4c92:	4691                	li	a3,4
    4c94:	00d70363          	beq	a4,a3,4c9a <__mulsf3+0x272>
    4c98:	0791                	addi	a5,a5,4
    4c9a:	00579713          	slli	a4,a5,0x5
    4c9e:	00074c63          	bltz	a4,4cb6 <__mulsf3+0x28e>
    4ca2:	079a                	slli	a5,a5,0x6
    4ca4:	83a5                	srli	a5,a5,0x9
    4ca6:	4701                	li	a4,0
    4ca8:	bd05                	j	4ad8 <__mulsf3+0xb0>
    4caa:	0ff00713          	li	a4,255
    4cae:	4781                	li	a5,0
    4cb0:	b525                	j	4ad8 <__mulsf3+0xb0>
    4cb2:	842e                	mv	s0,a1
    4cb4:	b7b5                	j	4c20 <__mulsf3+0x1f8>
    4cb6:	4705                	li	a4,1
    4cb8:	4781                	li	a5,0
    4cba:	bd39                	j	4ad8 <__mulsf3+0xb0>

00004cbc <__subsf3>:
    4cbc:	00800737          	lui	a4,0x800
    4cc0:	1141                	addi	sp,sp,-16
    4cc2:	177d                	addi	a4,a4,-1
    4cc4:	01755693          	srli	a3,a0,0x17
    4cc8:	0175d813          	srli	a6,a1,0x17
    4ccc:	00a777b3          	and	a5,a4,a0
    4cd0:	0ff6f693          	andi	a3,a3,255
    4cd4:	01f55e93          	srli	t4,a0,0x1f
    4cd8:	00b77633          	and	a2,a4,a1
    4cdc:	c226                	sw	s1,4(sp)
    4cde:	c04a                	sw	s2,0(sp)
    4ce0:	0ff87813          	andi	a6,a6,255
    4ce4:	c606                	sw	ra,12(sp)
    4ce6:	c422                	sw	s0,8(sp)
    4ce8:	0ff00313          	li	t1,255
    4cec:	8e3e                	mv	t3,a5
    4cee:	8936                	mv	s2,a3
    4cf0:	84f6                	mv	s1,t4
    4cf2:	00379f13          	slli	t5,a5,0x3
    4cf6:	81fd                	srli	a1,a1,0x1f
    4cf8:	00361513          	slli	a0,a2,0x3
    4cfc:	410688b3          	sub	a7,a3,a6
    4d00:	10680263          	beq	a6,t1,4e04 <__subsf3+0x148>
    4d04:	0015c593          	xori	a1,a1,1
    4d08:	10be8c63          	beq	t4,a1,4e20 <__subsf3+0x164>
    4d0c:	0d105463          	blez	a7,4dd4 <__subsf3+0x118>
    4d10:	10081063          	bnez	a6,4e10 <__subsf3+0x154>
    4d14:	1e050463          	beqz	a0,4efc <__subsf3+0x240>
    4d18:	18fd                	addi	a7,a7,-1
    4d1a:	40af07b3          	sub	a5,t5,a0
    4d1e:	02088663          	beqz	a7,4d4a <__subsf3+0x8e>
    4d22:	0ff00793          	li	a5,255
    4d26:	16f68863          	beq	a3,a5,4e96 <__subsf3+0x1da>
    4d2a:	47ed                	li	a5,27
    4d2c:	2917c763          	blt	a5,a7,4fba <__subsf3+0x2fe>
    4d30:	02000713          	li	a4,32
    4d34:	41170733          	sub	a4,a4,a7
    4d38:	00e51733          	sll	a4,a0,a4
    4d3c:	011557b3          	srl	a5,a0,a7
    4d40:	00e03733          	snez	a4,a4
    4d44:	8fd9                	or	a5,a5,a4
    4d46:	40ff07b3          	sub	a5,t5,a5
    4d4a:	00579713          	slli	a4,a5,0x5
    4d4e:	1a075163          	bgez	a4,4ef0 <__subsf3+0x234>
    4d52:	04000437          	lui	s0,0x4000
    4d56:	147d                	addi	s0,s0,-1
    4d58:	8c7d                	and	s0,s0,a5
    4d5a:	8522                	mv	a0,s0
    4d5c:	2db5                	jal	53d8 <__clzsi2>
    4d5e:	156d                	addi	a0,a0,-5
    4d60:	00a417b3          	sll	a5,s0,a0
    4d64:	1b254e63          	blt	a0,s2,4f20 <__subsf3+0x264>
    4d68:	41250533          	sub	a0,a0,s2
    4d6c:	00150413          	addi	s0,a0,1
    4d70:	02000713          	li	a4,32
    4d74:	8f01                	sub	a4,a4,s0
    4d76:	00e79733          	sll	a4,a5,a4
    4d7a:	00e03733          	snez	a4,a4
    4d7e:	0087d7b3          	srl	a5,a5,s0
    4d82:	8fd9                	or	a5,a5,a4
    4d84:	4901                	li	s2,0
    4d86:	0077f713          	andi	a4,a5,7
    4d8a:	c719                	beqz	a4,4d98 <__subsf3+0xdc>
    4d8c:	00f7f713          	andi	a4,a5,15
    4d90:	4691                	li	a3,4
    4d92:	00d70363          	beq	a4,a3,4d98 <__subsf3+0xdc>
    4d96:	0791                	addi	a5,a5,4
    4d98:	00579713          	slli	a4,a5,0x5
    4d9c:	14075e63          	bgez	a4,4ef8 <__subsf3+0x23c>
    4da0:	00190693          	addi	a3,s2,1
    4da4:	0ff00713          	li	a4,255
    4da8:	0014fe93          	andi	t4,s1,1
    4dac:	16e68663          	beq	a3,a4,4f18 <__subsf3+0x25c>
    4db0:	079a                	slli	a5,a5,0x6
    4db2:	83a5                	srli	a5,a5,0x9
    4db4:	0ff6f693          	andi	a3,a3,255
    4db8:	07a6                	slli	a5,a5,0x9
    4dba:	40b2                	lw	ra,12(sp)
    4dbc:	4422                	lw	s0,8(sp)
    4dbe:	0097d513          	srli	a0,a5,0x9
    4dc2:	06de                	slli	a3,a3,0x17
    4dc4:	01fe9793          	slli	a5,t4,0x1f
    4dc8:	8d55                	or	a0,a0,a3
    4dca:	4492                	lw	s1,4(sp)
    4dcc:	4902                	lw	s2,0(sp)
    4dce:	8d5d                	or	a0,a0,a5
    4dd0:	0141                	addi	sp,sp,16
    4dd2:	8082                	ret
    4dd4:	0a089263          	bnez	a7,4e78 <__subsf3+0x1bc>
    4dd8:	00168713          	addi	a4,a3,1
    4ddc:	0fe77713          	andi	a4,a4,254
    4de0:	14071b63          	bnez	a4,4f36 <__subsf3+0x27a>
    4de4:	22069463          	bnez	a3,500c <__subsf3+0x350>
    4de8:	200f0263          	beqz	t5,4fec <__subsf3+0x330>
    4dec:	d571                	beqz	a0,4db8 <__subsf3+0xfc>
    4dee:	40af07b3          	sub	a5,t5,a0
    4df2:	00579713          	slli	a4,a5,0x5
    4df6:	22075563          	bgez	a4,5020 <__subsf3+0x364>
    4dfa:	41e507b3          	sub	a5,a0,t5
    4dfe:	4901                	li	s2,0
    4e00:	84ae                	mv	s1,a1
    4e02:	b751                	j	4d86 <__subsf3+0xca>
    4e04:	f00500e3          	beqz	a0,4d04 <__subsf3+0x48>
    4e08:	0abe8a63          	beq	t4,a1,4ebc <__subsf3+0x200>
    4e0c:	fd1054e3          	blez	a7,4dd4 <__subsf3+0x118>
    4e10:	0ff00793          	li	a5,255
    4e14:	08f68163          	beq	a3,a5,4e96 <__subsf3+0x1da>
    4e18:	040007b7          	lui	a5,0x4000
    4e1c:	8d5d                	or	a0,a0,a5
    4e1e:	b731                	j	4d2a <__subsf3+0x6e>
    4e20:	09105e63          	blez	a7,4ebc <__subsf3+0x200>
    4e24:	08080163          	beqz	a6,4ea6 <__subsf3+0x1ea>
    4e28:	0ff00793          	li	a5,255
    4e2c:	06f68563          	beq	a3,a5,4e96 <__subsf3+0x1da>
    4e30:	040007b7          	lui	a5,0x4000
    4e34:	8d5d                	or	a0,a0,a5
    4e36:	47ed                	li	a5,27
    4e38:	1f17c063          	blt	a5,a7,5018 <__subsf3+0x35c>
    4e3c:	02000713          	li	a4,32
    4e40:	41170733          	sub	a4,a4,a7
    4e44:	00e51733          	sll	a4,a0,a4
    4e48:	011557b3          	srl	a5,a0,a7
    4e4c:	00e03733          	snez	a4,a4
    4e50:	8fd9                	or	a5,a5,a4
    4e52:	97fa                	add	a5,a5,t5
    4e54:	00579713          	slli	a4,a5,0x5
    4e58:	08075c63          	bgez	a4,4ef0 <__subsf3+0x234>
    4e5c:	0905                	addi	s2,s2,1
    4e5e:	0ff00713          	li	a4,255
    4e62:	0ae90b63          	beq	s2,a4,4f18 <__subsf3+0x25c>
    4e66:	7e0006b7          	lui	a3,0x7e000
    4e6a:	0017d713          	srli	a4,a5,0x1
    4e6e:	16fd                	addi	a3,a3,-1
    4e70:	8b85                	andi	a5,a5,1
    4e72:	8f75                	and	a4,a4,a3
    4e74:	8fd9                	or	a5,a5,a4
    4e76:	bf01                	j	4d86 <__subsf3+0xca>
    4e78:	40d80733          	sub	a4,a6,a3
    4e7c:	10069563          	bnez	a3,4f86 <__subsf3+0x2ca>
    4e80:	140f0d63          	beqz	t5,4fda <__subsf3+0x31e>
    4e84:	177d                	addi	a4,a4,-1
    4e86:	1a070363          	beqz	a4,502c <__subsf3+0x370>
    4e8a:	0ff00793          	li	a5,255
    4e8e:	10f81463          	bne	a6,a5,4f96 <__subsf3+0x2da>
    4e92:	84ae                	mv	s1,a1
    4e94:	8e32                	mv	t3,a2
    4e96:	060e0f63          	beqz	t3,4f14 <__subsf3+0x258>
    4e9a:	4e81                	li	t4,0
    4e9c:	0ff00693          	li	a3,255
    4ea0:	004007b7          	lui	a5,0x400
    4ea4:	bf11                	j	4db8 <__subsf3+0xfc>
    4ea6:	c939                	beqz	a0,4efc <__subsf3+0x240>
    4ea8:	18fd                	addi	a7,a7,-1
    4eaa:	00af07b3          	add	a5,t5,a0
    4eae:	fa0883e3          	beqz	a7,4e54 <__subsf3+0x198>
    4eb2:	0ff00793          	li	a5,255
    4eb6:	f8f690e3          	bne	a3,a5,4e36 <__subsf3+0x17a>
    4eba:	bff1                	j	4e96 <__subsf3+0x1da>
    4ebc:	08089963          	bnez	a7,4f4e <__subsf3+0x292>
    4ec0:	00168913          	addi	s2,a3,1 # 7e000001 <_eusrstack+0x5dff8001>
    4ec4:	0fe97713          	andi	a4,s2,254
    4ec8:	12071663          	bnez	a4,4ff4 <__subsf3+0x338>
    4ecc:	10069b63          	bnez	a3,4fe2 <__subsf3+0x326>
    4ed0:	160f0363          	beqz	t5,5036 <__subsf3+0x37a>
    4ed4:	ee0502e3          	beqz	a0,4db8 <__subsf3+0xfc>
    4ed8:	00af07b3          	add	a5,t5,a0
    4edc:	00579713          	slli	a4,a5,0x5
    4ee0:	4901                	li	s2,0
    4ee2:	00075763          	bgez	a4,4ef0 <__subsf3+0x234>
    4ee6:	fc000737          	lui	a4,0xfc000
    4eea:	177d                	addi	a4,a4,-1
    4eec:	8ff9                	and	a5,a5,a4
    4eee:	4905                	li	s2,1
    4ef0:	0077f713          	andi	a4,a5,7
    4ef4:	e8071ce3          	bnez	a4,4d8c <__subsf3+0xd0>
    4ef8:	0037de13          	srli	t3,a5,0x3
    4efc:	0ff00793          	li	a5,255
    4f00:	f8f90be3          	beq	s2,a5,4e96 <__subsf3+0x1da>
    4f04:	009e1793          	slli	a5,t3,0x9
    4f08:	83a5                	srli	a5,a5,0x9
    4f0a:	0ff97693          	andi	a3,s2,255
    4f0e:	0014fe93          	andi	t4,s1,1
    4f12:	b55d                	j	4db8 <__subsf3+0xfc>
    4f14:	0014fe93          	andi	t4,s1,1
    4f18:	0ff00693          	li	a3,255
    4f1c:	4781                	li	a5,0
    4f1e:	bd69                	j	4db8 <__subsf3+0xfc>
    4f20:	fc000737          	lui	a4,0xfc000
    4f24:	177d                	addi	a4,a4,-1
    4f26:	8ff9                	and	a5,a5,a4
    4f28:	0077f713          	andi	a4,a5,7
    4f2c:	40a90933          	sub	s2,s2,a0
    4f30:	e4071ee3          	bnez	a4,4d8c <__subsf3+0xd0>
    4f34:	b7d1                	j	4ef8 <__subsf3+0x23c>
    4f36:	40af0433          	sub	s0,t5,a0
    4f3a:	00541793          	slli	a5,s0,0x5
    4f3e:	0c07c363          	bltz	a5,5004 <__subsf3+0x348>
    4f42:	e0041ce3          	bnez	s0,4d5a <__subsf3+0x9e>
    4f46:	4e81                	li	t4,0
    4f48:	4681                	li	a3,0
    4f4a:	4781                	li	a5,0
    4f4c:	b5b5                	j	4db8 <__subsf3+0xfc>
    4f4e:	40d80733          	sub	a4,a6,a3
    4f52:	c6b5                	beqz	a3,4fbe <__subsf3+0x302>
    4f54:	0ff00793          	li	a5,255
    4f58:	f2f80ee3          	beq	a6,a5,4e94 <__subsf3+0x1d8>
    4f5c:	040007b7          	lui	a5,0x4000
    4f60:	00ff6f33          	or	t5,t5,a5
    4f64:	47ed                	li	a5,27
    4f66:	0ce7cd63          	blt	a5,a4,5040 <__subsf3+0x384>
    4f6a:	02000793          	li	a5,32
    4f6e:	8f99                	sub	a5,a5,a4
    4f70:	00ff17b3          	sll	a5,t5,a5
    4f74:	00ef5733          	srl	a4,t5,a4
    4f78:	00f037b3          	snez	a5,a5
    4f7c:	8f5d                	or	a4,a4,a5
    4f7e:	00a707b3          	add	a5,a4,a0
    4f82:	8942                	mv	s2,a6
    4f84:	bdc1                	j	4e54 <__subsf3+0x198>
    4f86:	0ff00793          	li	a5,255
    4f8a:	f0f804e3          	beq	a6,a5,4e92 <__subsf3+0x1d6>
    4f8e:	040007b7          	lui	a5,0x4000
    4f92:	00ff6f33          	or	t5,t5,a5
    4f96:	47ed                	li	a5,27
    4f98:	08e7c263          	blt	a5,a4,501c <__subsf3+0x360>
    4f9c:	02000793          	li	a5,32
    4fa0:	8f99                	sub	a5,a5,a4
    4fa2:	00ff17b3          	sll	a5,t5,a5
    4fa6:	00ef5733          	srl	a4,t5,a4
    4faa:	00f037b3          	snez	a5,a5
    4fae:	8fd9                	or	a5,a5,a4
    4fb0:	40f507b3          	sub	a5,a0,a5
    4fb4:	8942                	mv	s2,a6
    4fb6:	84ae                	mv	s1,a1
    4fb8:	bb49                	j	4d4a <__subsf3+0x8e>
    4fba:	4785                	li	a5,1
    4fbc:	b369                	j	4d46 <__subsf3+0x8a>
    4fbe:	060f0e63          	beqz	t5,503a <__subsf3+0x37e>
    4fc2:	177d                	addi	a4,a4,-1
    4fc4:	00af07b3          	add	a5,t5,a0
    4fc8:	8942                	mv	s2,a6
    4fca:	e80705e3          	beqz	a4,4e54 <__subsf3+0x198>
    4fce:	0ff00793          	li	a5,255
    4fd2:	f8f819e3          	bne	a6,a5,4f64 <__subsf3+0x2a8>
    4fd6:	8e32                	mv	t3,a2
    4fd8:	bd7d                	j	4e96 <__subsf3+0x1da>
    4fda:	8e32                	mv	t3,a2
    4fdc:	8942                	mv	s2,a6
    4fde:	84ae                	mv	s1,a1
    4fe0:	bf31                	j	4efc <__subsf3+0x240>
    4fe2:	ea0f09e3          	beqz	t5,4e94 <__subsf3+0x1d8>
    4fe6:	ea0508e3          	beqz	a0,4e96 <__subsf3+0x1da>
    4fea:	bd45                	j	4e9a <__subsf3+0x1de>
    4fec:	cd0d                	beqz	a0,5026 <__subsf3+0x36a>
    4fee:	8eae                	mv	t4,a1
    4ff0:	87b2                	mv	a5,a2
    4ff2:	b3d9                	j	4db8 <__subsf3+0xfc>
    4ff4:	0ff00793          	li	a5,255
    4ff8:	f2f900e3          	beq	s2,a5,4f18 <__subsf3+0x25c>
    4ffc:	00af07b3          	add	a5,t5,a0
    5000:	8385                	srli	a5,a5,0x1
    5002:	b5fd                	j	4ef0 <__subsf3+0x234>
    5004:	41e50433          	sub	s0,a0,t5
    5008:	84ae                	mv	s1,a1
    500a:	bb81                	j	4d5a <__subsf3+0x9e>
    500c:	fc0f1de3          	bnez	t5,4fe6 <__subsf3+0x32a>
    5010:	e80505e3          	beqz	a0,4e9a <__subsf3+0x1de>
    5014:	84ae                	mv	s1,a1
    5016:	bdbd                	j	4e94 <__subsf3+0x1d8>
    5018:	4785                	li	a5,1
    501a:	bd25                	j	4e52 <__subsf3+0x196>
    501c:	4785                	li	a5,1
    501e:	bf49                	j	4fb0 <__subsf3+0x2f4>
    5020:	4901                	li	s2,0
    5022:	ec0797e3          	bnez	a5,4ef0 <__subsf3+0x234>
    5026:	4e81                	li	t4,0
    5028:	4781                	li	a5,0
    502a:	b379                	j	4db8 <__subsf3+0xfc>
    502c:	41e507b3          	sub	a5,a0,t5
    5030:	8942                	mv	s2,a6
    5032:	84ae                	mv	s1,a1
    5034:	bb19                	j	4d4a <__subsf3+0x8e>
    5036:	87b2                	mv	a5,a2
    5038:	b341                	j	4db8 <__subsf3+0xfc>
    503a:	8e32                	mv	t3,a2
    503c:	8942                	mv	s2,a6
    503e:	bd7d                	j	4efc <__subsf3+0x240>
    5040:	4705                	li	a4,1
    5042:	bf35                	j	4f7e <__subsf3+0x2c2>

00005044 <__fixsfsi>:
    5044:	00800637          	lui	a2,0x800
    5048:	01755713          	srli	a4,a0,0x17
    504c:	fff60793          	addi	a5,a2,-1 # 7fffff <_data_lma+0x7f3713>
    5050:	0ff77713          	andi	a4,a4,255
    5054:	07e00593          	li	a1,126
    5058:	00a7f6b3          	and	a3,a5,a0
    505c:	01f55793          	srli	a5,a0,0x1f
    5060:	00e5fc63          	bgeu	a1,a4,5078 <__fixsfsi+0x34>
    5064:	09d00593          	li	a1,157
    5068:	00e5fa63          	bgeu	a1,a4,507c <__fixsfsi+0x38>
    506c:	80000537          	lui	a0,0x80000
    5070:	fff54513          	not	a0,a0
    5074:	953e                	add	a0,a0,a5
    5076:	8082                	ret
    5078:	4501                	li	a0,0
    507a:	8082                	ret
    507c:	09500593          	li	a1,149
    5080:	8ed1                	or	a3,a3,a2
    5082:	00e5cd63          	blt	a1,a4,509c <__fixsfsi+0x58>
    5086:	09600613          	li	a2,150
    508a:	40e60733          	sub	a4,a2,a4
    508e:	00e6d733          	srl	a4,a3,a4
    5092:	40e00533          	neg	a0,a4
    5096:	f3f5                	bnez	a5,507a <__fixsfsi+0x36>
    5098:	853a                	mv	a0,a4
    509a:	8082                	ret
    509c:	f6a70713          	addi	a4,a4,-150 # fbffff6a <_eusrstack+0xdbff7f6a>
    50a0:	00e69733          	sll	a4,a3,a4
    50a4:	b7fd                	j	5092 <__fixsfsi+0x4e>

000050a6 <__fixunssfsi>:
    50a6:	01755713          	srli	a4,a0,0x17
    50aa:	00800637          	lui	a2,0x800
    50ae:	fff60793          	addi	a5,a2,-1 # 7fffff <_data_lma+0x7f3713>
    50b2:	0ff77713          	andi	a4,a4,255
    50b6:	07e00593          	li	a1,126
    50ba:	00a7f6b3          	and	a3,a5,a0
    50be:	01f55793          	srli	a5,a0,0x1f
    50c2:	4501                	li	a0,0
    50c4:	00e5f463          	bgeu	a1,a4,50cc <__fixunssfsi+0x26>
    50c8:	c399                	beqz	a5,50ce <__fixunssfsi+0x28>
    50ca:	8082                	ret
    50cc:	8082                	ret
    50ce:	09e00793          	li	a5,158
    50d2:	557d                	li	a0,-1
    50d4:	fee7ebe3          	bltu	a5,a4,50ca <__fixunssfsi+0x24>
    50d8:	09500593          	li	a1,149
    50dc:	00c6e7b3          	or	a5,a3,a2
    50e0:	00e5d763          	bge	a1,a4,50ee <__fixunssfsi+0x48>
    50e4:	f6a70713          	addi	a4,a4,-150
    50e8:	00e79533          	sll	a0,a5,a4
    50ec:	8082                	ret
    50ee:	09600513          	li	a0,150
    50f2:	40e50733          	sub	a4,a0,a4
    50f6:	00e7d533          	srl	a0,a5,a4
    50fa:	8082                	ret

000050fc <__floatsisf>:
    50fc:	1141                	addi	sp,sp,-16
    50fe:	c606                	sw	ra,12(sp)
    5100:	c422                	sw	s0,8(sp)
    5102:	c226                	sw	s1,4(sp)
    5104:	cd0d                	beqz	a0,513e <__floatsisf+0x42>
    5106:	41f55793          	srai	a5,a0,0x1f
    510a:	00a7c433          	xor	s0,a5,a0
    510e:	8c1d                	sub	s0,s0,a5
    5110:	84aa                	mv	s1,a0
    5112:	8522                	mv	a0,s0
    5114:	24d1                	jal	53d8 <__clzsi2>
    5116:	09e00793          	li	a5,158
    511a:	40a78733          	sub	a4,a5,a0
    511e:	09600793          	li	a5,150
    5122:	80fd                	srli	s1,s1,0x1f
    5124:	02e7cc63          	blt	a5,a4,515c <__floatsisf+0x60>
    5128:	46a1                	li	a3,8
    512a:	0ff77793          	andi	a5,a4,255
    512e:	00a6d563          	bge	a3,a0,5138 <__floatsisf+0x3c>
    5132:	1561                	addi	a0,a0,-8
    5134:	00a41433          	sll	s0,s0,a0
    5138:	0426                	slli	s0,s0,0x9
    513a:	8025                	srli	s0,s0,0x9
    513c:	a021                	j	5144 <__floatsisf+0x48>
    513e:	4481                	li	s1,0
    5140:	4781                	li	a5,0
    5142:	4401                	li	s0,0
    5144:	0426                	slli	s0,s0,0x9
    5146:	00945513          	srli	a0,s0,0x9
    514a:	40b2                	lw	ra,12(sp)
    514c:	4422                	lw	s0,8(sp)
    514e:	07de                	slli	a5,a5,0x17
    5150:	04fe                	slli	s1,s1,0x1f
    5152:	8d5d                	or	a0,a0,a5
    5154:	8d45                	or	a0,a0,s1
    5156:	4492                	lw	s1,4(sp)
    5158:	0141                	addi	sp,sp,16
    515a:	8082                	ret
    515c:	09900793          	li	a5,153
    5160:	00e7dd63          	bge	a5,a4,517a <__floatsisf+0x7e>
    5164:	01b50793          	addi	a5,a0,27 # 8000001b <_eusrstack+0x5fff801b>
    5168:	4695                	li	a3,5
    516a:	00f417b3          	sll	a5,s0,a5
    516e:	8e89                	sub	a3,a3,a0
    5170:	00d45433          	srl	s0,s0,a3
    5174:	00f037b3          	snez	a5,a5
    5178:	8c5d                	or	s0,s0,a5
    517a:	4795                	li	a5,5
    517c:	00a7d663          	bge	a5,a0,5188 <__floatsisf+0x8c>
    5180:	ffb50793          	addi	a5,a0,-5
    5184:	00f41433          	sll	s0,s0,a5
    5188:	fc0006b7          	lui	a3,0xfc000
    518c:	16fd                	addi	a3,a3,-1
    518e:	00747793          	andi	a5,s0,7
    5192:	00d47633          	and	a2,s0,a3
    5196:	c385                	beqz	a5,51b6 <__floatsisf+0xba>
    5198:	00f47793          	andi	a5,s0,15
    519c:	4591                	li	a1,4
    519e:	00b78c63          	beq	a5,a1,51b6 <__floatsisf+0xba>
    51a2:	0611                	addi	a2,a2,4
    51a4:	00561793          	slli	a5,a2,0x5
    51a8:	0007d763          	bgez	a5,51b6 <__floatsisf+0xba>
    51ac:	09f00793          	li	a5,159
    51b0:	8e75                	and	a2,a2,a3
    51b2:	40a78733          	sub	a4,a5,a0
    51b6:	00661413          	slli	s0,a2,0x6
    51ba:	8025                	srli	s0,s0,0x9
    51bc:	0ff77793          	andi	a5,a4,255
    51c0:	b751                	j	5144 <__floatsisf+0x48>

000051c2 <__extendsfdf2>:
    51c2:	01755713          	srli	a4,a0,0x17
    51c6:	0ff77713          	andi	a4,a4,255
    51ca:	1141                	addi	sp,sp,-16
    51cc:	00170793          	addi	a5,a4,1
    51d0:	c422                	sw	s0,8(sp)
    51d2:	c226                	sw	s1,4(sp)
    51d4:	00951413          	slli	s0,a0,0x9
    51d8:	c606                	sw	ra,12(sp)
    51da:	0fe7f793          	andi	a5,a5,254
    51de:	8025                	srli	s0,s0,0x9
    51e0:	01f55493          	srli	s1,a0,0x1f
    51e4:	c785                	beqz	a5,520c <__extendsfdf2+0x4a>
    51e6:	00345793          	srli	a5,s0,0x3
    51ea:	38070713          	addi	a4,a4,896
    51ee:	0476                	slli	s0,s0,0x1d
    51f0:	07b2                	slli	a5,a5,0xc
    51f2:	0752                	slli	a4,a4,0x14
    51f4:	83b1                	srli	a5,a5,0xc
    51f6:	01f49513          	slli	a0,s1,0x1f
    51fa:	8fd9                	or	a5,a5,a4
    51fc:	8fc9                	or	a5,a5,a0
    51fe:	40b2                	lw	ra,12(sp)
    5200:	8522                	mv	a0,s0
    5202:	4422                	lw	s0,8(sp)
    5204:	4492                	lw	s1,4(sp)
    5206:	85be                	mv	a1,a5
    5208:	0141                	addi	sp,sp,16
    520a:	8082                	ret
    520c:	eb05                	bnez	a4,523c <__extendsfdf2+0x7a>
    520e:	c439                	beqz	s0,525c <__extendsfdf2+0x9a>
    5210:	8522                	mv	a0,s0
    5212:	22d9                	jal	53d8 <__clzsi2>
    5214:	47a9                	li	a5,10
    5216:	04a7c663          	blt	a5,a0,5262 <__extendsfdf2+0xa0>
    521a:	472d                	li	a4,11
    521c:	8f09                	sub	a4,a4,a0
    521e:	01550793          	addi	a5,a0,21
    5222:	00e45733          	srl	a4,s0,a4
    5226:	00f41433          	sll	s0,s0,a5
    522a:	00c71793          	slli	a5,a4,0xc
    522e:	38900713          	li	a4,905
    5232:	8f09                	sub	a4,a4,a0
    5234:	83b1                	srli	a5,a5,0xc
    5236:	7ff77713          	andi	a4,a4,2047
    523a:	bf5d                	j	51f0 <__extendsfdf2+0x2e>
    523c:	cc01                	beqz	s0,5254 <__extendsfdf2+0x92>
    523e:	00345713          	srli	a4,s0,0x3
    5242:	000807b7          	lui	a5,0x80
    5246:	8fd9                	or	a5,a5,a4
    5248:	07b2                	slli	a5,a5,0xc
    524a:	0476                	slli	s0,s0,0x1d
    524c:	83b1                	srli	a5,a5,0xc
    524e:	7ff00713          	li	a4,2047
    5252:	bf79                	j	51f0 <__extendsfdf2+0x2e>
    5254:	7ff00713          	li	a4,2047
    5258:	4781                	li	a5,0
    525a:	bf59                	j	51f0 <__extendsfdf2+0x2e>
    525c:	4701                	li	a4,0
    525e:	4781                	li	a5,0
    5260:	bf41                	j	51f0 <__extendsfdf2+0x2e>
    5262:	ff550713          	addi	a4,a0,-11
    5266:	00e41733          	sll	a4,s0,a4
    526a:	4401                	li	s0,0
    526c:	bf7d                	j	522a <__extendsfdf2+0x68>

0000526e <__truncdfsf2>:
    526e:	0145d693          	srli	a3,a1,0x14
    5272:	00c59793          	slli	a5,a1,0xc
    5276:	7ff6f693          	andi	a3,a3,2047
    527a:	83b1                	srli	a5,a5,0xc
    527c:	00168613          	addi	a2,a3,1 # fc000001 <_eusrstack+0xdbff8001>
    5280:	078e                	slli	a5,a5,0x3
    5282:	01d55713          	srli	a4,a0,0x1d
    5286:	7fe67613          	andi	a2,a2,2046
    528a:	81fd                	srli	a1,a1,0x1f
    528c:	8f5d                	or	a4,a4,a5
    528e:	00351893          	slli	a7,a0,0x3
    5292:	ce35                	beqz	a2,530e <__truncdfsf2+0xa0>
    5294:	c8068813          	addi	a6,a3,-896
    5298:	0fe00793          	li	a5,254
    529c:	0107dd63          	bge	a5,a6,52b6 <__truncdfsf2+0x48>
    52a0:	4781                	li	a5,0
    52a2:	00979513          	slli	a0,a5,0x9
    52a6:	0ff00693          	li	a3,255
    52aa:	06de                	slli	a3,a3,0x17
    52ac:	8125                	srli	a0,a0,0x9
    52ae:	05fe                	slli	a1,a1,0x1f
    52b0:	8d55                	or	a0,a0,a3
    52b2:	8d4d                	or	a0,a0,a1
    52b4:	8082                	ret
    52b6:	0b005563          	blez	a6,5360 <__truncdfsf2+0xf2>
    52ba:	00651793          	slli	a5,a0,0x6
    52be:	070e                	slli	a4,a4,0x3
    52c0:	00f037b3          	snez	a5,a5
    52c4:	8fd9                	or	a5,a5,a4
    52c6:	01d8d893          	srli	a7,a7,0x1d
    52ca:	0117e7b3          	or	a5,a5,a7
    52ce:	0077f713          	andi	a4,a5,7
    52d2:	10070163          	beqz	a4,53d4 <__truncdfsf2+0x166>
    52d6:	00f7f713          	andi	a4,a5,15
    52da:	4691                	li	a3,4
    52dc:	00d70363          	beq	a4,a3,52e2 <__truncdfsf2+0x74>
    52e0:	0791                	addi	a5,a5,4
    52e2:	04000737          	lui	a4,0x4000
    52e6:	8f7d                	and	a4,a4,a5
    52e8:	c775                	beqz	a4,53d4 <__truncdfsf2+0x166>
    52ea:	00180713          	addi	a4,a6,1
    52ee:	0ff00613          	li	a2,255
    52f2:	0ff77693          	andi	a3,a4,255
    52f6:	fac705e3          	beq	a4,a2,52a0 <__truncdfsf2+0x32>
    52fa:	079a                	slli	a5,a5,0x6
    52fc:	83a5                	srli	a5,a5,0x9
    52fe:	00979513          	slli	a0,a5,0x9
    5302:	06de                	slli	a3,a3,0x17
    5304:	8125                	srli	a0,a0,0x9
    5306:	05fe                	slli	a1,a1,0x1f
    5308:	8d55                	or	a0,a0,a3
    530a:	8d4d                	or	a0,a0,a1
    530c:	8082                	ret
    530e:	011767b3          	or	a5,a4,a7
    5312:	ee99                	bnez	a3,5330 <__truncdfsf2+0xc2>
    5314:	cf85                	beqz	a5,534c <__truncdfsf2+0xde>
    5316:	4795                	li	a5,5
    5318:	079a                	slli	a5,a5,0x6
    531a:	83a5                	srli	a5,a5,0x9
    531c:	00979513          	slli	a0,a5,0x9
    5320:	0ff6f693          	andi	a3,a3,255
    5324:	06de                	slli	a3,a3,0x17
    5326:	8125                	srli	a0,a0,0x9
    5328:	05fe                	slli	a1,a1,0x1f
    532a:	8d55                	or	a0,a0,a3
    532c:	8d4d                	or	a0,a0,a1
    532e:	8082                	ret
    5330:	dba5                	beqz	a5,52a0 <__truncdfsf2+0x32>
    5332:	004007b7          	lui	a5,0x400
    5336:	00979513          	slli	a0,a5,0x9
    533a:	0ff00693          	li	a3,255
    533e:	06de                	slli	a3,a3,0x17
    5340:	4581                	li	a1,0
    5342:	8125                	srli	a0,a0,0x9
    5344:	05fe                	slli	a1,a1,0x1f
    5346:	8d55                	or	a0,a0,a3
    5348:	8d4d                	or	a0,a0,a1
    534a:	8082                	ret
    534c:	4781                	li	a5,0
    534e:	00979513          	slli	a0,a5,0x9
    5352:	4681                	li	a3,0
    5354:	06de                	slli	a3,a3,0x17
    5356:	8125                	srli	a0,a0,0x9
    5358:	05fe                	slli	a1,a1,0x1f
    535a:	8d55                	or	a0,a0,a3
    535c:	8d4d                	or	a0,a0,a1
    535e:	8082                	ret
    5360:	57a5                	li	a5,-23
    5362:	04f84863          	blt	a6,a5,53b2 <__truncdfsf2+0x144>
    5366:	47f9                	li	a5,30
    5368:	00800637          	lui	a2,0x800
    536c:	410787b3          	sub	a5,a5,a6
    5370:	457d                	li	a0,31
    5372:	8e59                	or	a2,a2,a4
    5374:	04f55163          	bge	a0,a5,53b6 <__truncdfsf2+0x148>
    5378:	5779                	li	a4,-2
    537a:	41070733          	sub	a4,a4,a6
    537e:	02000513          	li	a0,32
    5382:	00e65733          	srl	a4,a2,a4
    5386:	00a78863          	beq	a5,a0,5396 <__truncdfsf2+0x128>
    538a:	ca268693          	addi	a3,a3,-862
    538e:	00d616b3          	sll	a3,a2,a3
    5392:	00d8e8b3          	or	a7,a7,a3
    5396:	011037b3          	snez	a5,a7
    539a:	8fd9                	or	a5,a5,a4
    539c:	0077f713          	andi	a4,a5,7
    53a0:	4801                	li	a6,0
    53a2:	fb15                	bnez	a4,52d6 <__truncdfsf2+0x68>
    53a4:	00579713          	slli	a4,a5,0x5
    53a8:	4685                	li	a3,1
    53aa:	f40748e3          	bltz	a4,52fa <__truncdfsf2+0x8c>
    53ae:	4681                	li	a3,0
    53b0:	b7a5                	j	5318 <__truncdfsf2+0xaa>
    53b2:	4681                	li	a3,0
    53b4:	b78d                	j	5316 <__truncdfsf2+0xa8>
    53b6:	c8268693          	addi	a3,a3,-894
    53ba:	00d89733          	sll	a4,a7,a3
    53be:	00e03733          	snez	a4,a4
    53c2:	00d616b3          	sll	a3,a2,a3
    53c6:	00f8d8b3          	srl	a7,a7,a5
    53ca:	00d767b3          	or	a5,a4,a3
    53ce:	00f8e7b3          	or	a5,a7,a5
    53d2:	b7e9                	j	539c <__truncdfsf2+0x12e>
    53d4:	86c2                	mv	a3,a6
    53d6:	b789                	j	5318 <__truncdfsf2+0xaa>

000053d8 <__clzsi2>:
    53d8:	67c1                	lui	a5,0x10
    53da:	02f57c63          	bgeu	a0,a5,5412 <__clzsi2+0x3a>
    53de:	0ff00793          	li	a5,255
    53e2:	02000713          	li	a4,32
    53e6:	00a7eb63          	bltu	a5,a0,53fc <__clzsi2+0x24>
    53ea:	00007797          	auipc	a5,0x7
    53ee:	02678793          	addi	a5,a5,38 # c410 <__clz_tab>
    53f2:	97aa                	add	a5,a5,a0
    53f4:	2388                	lbu	a0,0(a5)
    53f6:	40a70533          	sub	a0,a4,a0
    53fa:	8082                	ret
    53fc:	8121                	srli	a0,a0,0x8
    53fe:	00007797          	auipc	a5,0x7
    5402:	01278793          	addi	a5,a5,18 # c410 <__clz_tab>
    5406:	97aa                	add	a5,a5,a0
    5408:	2388                	lbu	a0,0(a5)
    540a:	4761                	li	a4,24
    540c:	40a70533          	sub	a0,a4,a0
    5410:	8082                	ret
    5412:	010007b7          	lui	a5,0x1000
    5416:	00f56d63          	bltu	a0,a5,5430 <__clzsi2+0x58>
    541a:	8161                	srli	a0,a0,0x18
    541c:	00007797          	auipc	a5,0x7
    5420:	ff478793          	addi	a5,a5,-12 # c410 <__clz_tab>
    5424:	97aa                	add	a5,a5,a0
    5426:	2388                	lbu	a0,0(a5)
    5428:	4721                	li	a4,8
    542a:	40a70533          	sub	a0,a4,a0
    542e:	8082                	ret
    5430:	8141                	srli	a0,a0,0x10
    5432:	00007797          	auipc	a5,0x7
    5436:	fde78793          	addi	a5,a5,-34 # c410 <__clz_tab>
    543a:	97aa                	add	a5,a5,a0
    543c:	2388                	lbu	a0,0(a5)
    543e:	4741                	li	a4,16
    5440:	40a70533          	sub	a0,a4,a0
    5444:	8082                	ret

00005446 <atof>:
    5446:	4581                	li	a1,0
    5448:	7a10006f          	j	63e8 <strtod>

0000544c <memcmp>:
    544c:	4701                	li	a4,0
    544e:	00e61463          	bne	a2,a4,5456 <memcmp+0xa>
    5452:	4501                	li	a0,0
    5454:	8082                	ret
    5456:	00e507b3          	add	a5,a0,a4
    545a:	0705                	addi	a4,a4,1
    545c:	00e586b3          	add	a3,a1,a4
    5460:	239c                	lbu	a5,0(a5)
    5462:	fff6c683          	lbu	a3,-1(a3)
    5466:	fed784e3          	beq	a5,a3,544e <memcmp+0x2>
    546a:	40d78533          	sub	a0,a5,a3
    546e:	8082                	ret

00005470 <memcpy>:
    5470:	00a5c7b3          	xor	a5,a1,a0
    5474:	8b8d                	andi	a5,a5,3
    5476:	00c50733          	add	a4,a0,a2
    547a:	e781                	bnez	a5,5482 <memcpy+0x12>
    547c:	478d                	li	a5,3
    547e:	00c7ed63          	bltu	a5,a2,5498 <memcpy+0x28>
    5482:	87aa                	mv	a5,a0
    5484:	08e57e63          	bgeu	a0,a4,5520 <memcpy+0xb0>
    5488:	2194                	lbu	a3,0(a1)
    548a:	0785                	addi	a5,a5,1
    548c:	0585                	addi	a1,a1,1
    548e:	fed78fa3          	sb	a3,-1(a5)
    5492:	fee7ebe3          	bltu	a5,a4,5488 <memcpy+0x18>
    5496:	8082                	ret
    5498:	00357693          	andi	a3,a0,3
    549c:	87aa                	mv	a5,a0
    549e:	ca89                	beqz	a3,54b0 <memcpy+0x40>
    54a0:	2194                	lbu	a3,0(a1)
    54a2:	0785                	addi	a5,a5,1
    54a4:	0585                	addi	a1,a1,1
    54a6:	fed78fa3          	sb	a3,-1(a5)
    54aa:	0037f693          	andi	a3,a5,3
    54ae:	bfc5                	j	549e <memcpy+0x2e>
    54b0:	ffc77693          	andi	a3,a4,-4
    54b4:	fe068613          	addi	a2,a3,-32
    54b8:	06c7f063          	bgeu	a5,a2,5518 <memcpy+0xa8>
    54bc:	0005a383          	lw	t2,0(a1)
    54c0:	0045a283          	lw	t0,4(a1)
    54c4:	0085af83          	lw	t6,8(a1)
    54c8:	00c5af03          	lw	t5,12(a1)
    54cc:	0105ae83          	lw	t4,16(a1)
    54d0:	0145ae03          	lw	t3,20(a1)
    54d4:	0185a303          	lw	t1,24(a1)
    54d8:	01c5a883          	lw	a7,28(a1)
    54dc:	02458593          	addi	a1,a1,36
    54e0:	0077a023          	sw	t2,0(a5)
    54e4:	ffc5a803          	lw	a6,-4(a1)
    54e8:	0057a223          	sw	t0,4(a5)
    54ec:	01f7a423          	sw	t6,8(a5)
    54f0:	01e7a623          	sw	t5,12(a5)
    54f4:	01d7a823          	sw	t4,16(a5)
    54f8:	01c7aa23          	sw	t3,20(a5)
    54fc:	0067ac23          	sw	t1,24(a5)
    5500:	0117ae23          	sw	a7,28(a5)
    5504:	02478793          	addi	a5,a5,36
    5508:	ff07ae23          	sw	a6,-4(a5)
    550c:	b775                	j	54b8 <memcpy+0x48>
    550e:	4190                	lw	a2,0(a1)
    5510:	0791                	addi	a5,a5,4
    5512:	0591                	addi	a1,a1,4
    5514:	fec7ae23          	sw	a2,-4(a5)
    5518:	fed7ebe3          	bltu	a5,a3,550e <memcpy+0x9e>
    551c:	f6e7e6e3          	bltu	a5,a4,5488 <memcpy+0x18>
    5520:	8082                	ret

00005522 <iprintf>:
    5522:	7139                	addi	sp,sp,-64
    5524:	da3e                	sw	a5,52(sp)
    5526:	d22e                	sw	a1,36(sp)
    5528:	d432                	sw	a2,40(sp)
    552a:	d636                	sw	a3,44(sp)
    552c:	d83a                	sw	a4,48(sp)
    552e:	dc42                	sw	a6,56(sp)
    5530:	de46                	sw	a7,60(sp)
    5532:	81818793          	addi	a5,gp,-2024 # 200004f0 <_impure_ptr>
    5536:	cc22                	sw	s0,24(sp)
    5538:	4380                	lw	s0,0(a5)
    553a:	ca26                	sw	s1,20(sp)
    553c:	ce06                	sw	ra,28(sp)
    553e:	84aa                	mv	s1,a0
    5540:	c411                	beqz	s0,554c <iprintf+0x2a>
    5542:	4c1c                	lw	a5,24(s0)
    5544:	e781                	bnez	a5,554c <iprintf+0x2a>
    5546:	8522                	mv	a0,s0
    5548:	2c8010ef          	jal	ra,6810 <__sinit>
    554c:	440c                	lw	a1,8(s0)
    554e:	1054                	addi	a3,sp,36
    5550:	8626                	mv	a2,s1
    5552:	8522                	mv	a0,s0
    5554:	c636                	sw	a3,12(sp)
    5556:	379020ef          	jal	ra,80ce <_vfiprintf_r>
    555a:	40f2                	lw	ra,28(sp)
    555c:	4462                	lw	s0,24(sp)
    555e:	44d2                	lw	s1,20(sp)
    5560:	6121                	addi	sp,sp,64
    5562:	8082                	ret

00005564 <putchar>:
    5564:	1101                	addi	sp,sp,-32
    5566:	81818793          	addi	a5,gp,-2024 # 200004f0 <_impure_ptr>
    556a:	cc22                	sw	s0,24(sp)
    556c:	4380                	lw	s0,0(a5)
    556e:	ce06                	sw	ra,28(sp)
    5570:	85aa                	mv	a1,a0
    5572:	c801                	beqz	s0,5582 <putchar+0x1e>
    5574:	4c1c                	lw	a5,24(s0)
    5576:	e791                	bnez	a5,5582 <putchar+0x1e>
    5578:	c62a                	sw	a0,12(sp)
    557a:	8522                	mv	a0,s0
    557c:	294010ef          	jal	ra,6810 <__sinit>
    5580:	45b2                	lw	a1,12(sp)
    5582:	4410                	lw	a2,8(s0)
    5584:	8522                	mv	a0,s0
    5586:	4462                	lw	s0,24(sp)
    5588:	40f2                	lw	ra,28(sp)
    558a:	6105                	addi	sp,sp,32
    558c:	17a0306f          	j	8706 <_putc_r>

00005590 <_puts_r>:
    5590:	1101                	addi	sp,sp,-32
    5592:	ca26                	sw	s1,20(sp)
    5594:	c84a                	sw	s2,16(sp)
    5596:	ce06                	sw	ra,28(sp)
    5598:	cc22                	sw	s0,24(sp)
    559a:	c64e                	sw	s3,12(sp)
    559c:	c452                	sw	s4,8(sp)
    559e:	84aa                	mv	s1,a0
    55a0:	892e                	mv	s2,a1
    55a2:	c509                	beqz	a0,55ac <_puts_r+0x1c>
    55a4:	4d1c                	lw	a5,24(a0)
    55a6:	e399                	bnez	a5,55ac <_puts_r+0x1c>
    55a8:	268010ef          	jal	ra,6810 <__sinit>
    55ac:	4c9c                	lw	a5,24(s1)
    55ae:	4480                	lw	s0,8(s1)
    55b0:	e781                	bnez	a5,55b8 <_puts_r+0x28>
    55b2:	8526                	mv	a0,s1
    55b4:	25c010ef          	jal	ra,6810 <__sinit>
    55b8:	00007797          	auipc	a5,0x7
    55bc:	02878793          	addi	a5,a5,40 # c5e0 <__sf_fake_stdin>
    55c0:	02f41c63          	bne	s0,a5,55f8 <_puts_r+0x68>
    55c4:	40c0                	lw	s0,4(s1)
    55c6:	245e                	lhu	a5,12(s0)
    55c8:	8ba1                	andi	a5,a5,8
    55ca:	c7b9                	beqz	a5,5618 <_puts_r+0x88>
    55cc:	481c                	lw	a5,16(s0)
    55ce:	c7a9                	beqz	a5,5618 <_puts_r+0x88>
    55d0:	59fd                	li	s3,-1
    55d2:	4a29                	li	s4,10
    55d4:	441c                	lw	a5,8(s0)
    55d6:	00094583          	lbu	a1,0(s2)
    55da:	17fd                	addi	a5,a5,-1
    55dc:	eda1                	bnez	a1,5634 <_puts_r+0xa4>
    55de:	c41c                	sw	a5,8(s0)
    55e0:	0807d063          	bgez	a5,5660 <_puts_r+0xd0>
    55e4:	8622                	mv	a2,s0
    55e6:	45a9                	li	a1,10
    55e8:	8526                	mv	a0,s1
    55ea:	61b000ef          	jal	ra,6404 <__swbuf_r>
    55ee:	57fd                	li	a5,-1
    55f0:	02f50963          	beq	a0,a5,5622 <_puts_r+0x92>
    55f4:	4529                	li	a0,10
    55f6:	a03d                	j	5624 <_puts_r+0x94>
    55f8:	00007797          	auipc	a5,0x7
    55fc:	00878793          	addi	a5,a5,8 # c600 <__sf_fake_stdout>
    5600:	00f41463          	bne	s0,a5,5608 <_puts_r+0x78>
    5604:	4480                	lw	s0,8(s1)
    5606:	b7c1                	j	55c6 <_puts_r+0x36>
    5608:	00007797          	auipc	a5,0x7
    560c:	fb878793          	addi	a5,a5,-72 # c5c0 <__sf_fake_stderr>
    5610:	faf41be3          	bne	s0,a5,55c6 <_puts_r+0x36>
    5614:	44c0                	lw	s0,12(s1)
    5616:	bf45                	j	55c6 <_puts_r+0x36>
    5618:	85a2                	mv	a1,s0
    561a:	8526                	mv	a0,s1
    561c:	6a5000ef          	jal	ra,64c0 <__swsetup_r>
    5620:	d945                	beqz	a0,55d0 <_puts_r+0x40>
    5622:	557d                	li	a0,-1
    5624:	40f2                	lw	ra,28(sp)
    5626:	4462                	lw	s0,24(sp)
    5628:	44d2                	lw	s1,20(sp)
    562a:	4942                	lw	s2,16(sp)
    562c:	49b2                	lw	s3,12(sp)
    562e:	4a22                	lw	s4,8(sp)
    5630:	6105                	addi	sp,sp,32
    5632:	8082                	ret
    5634:	c41c                	sw	a5,8(s0)
    5636:	0905                	addi	s2,s2,1
    5638:	0007d763          	bgez	a5,5646 <_puts_r+0xb6>
    563c:	4c18                	lw	a4,24(s0)
    563e:	00e7ca63          	blt	a5,a4,5652 <_puts_r+0xc2>
    5642:	01458863          	beq	a1,s4,5652 <_puts_r+0xc2>
    5646:	401c                	lw	a5,0(s0)
    5648:	00178713          	addi	a4,a5,1
    564c:	c018                	sw	a4,0(s0)
    564e:	a38c                	sb	a1,0(a5)
    5650:	b751                	j	55d4 <_puts_r+0x44>
    5652:	8622                	mv	a2,s0
    5654:	8526                	mv	a0,s1
    5656:	5af000ef          	jal	ra,6404 <__swbuf_r>
    565a:	f7351de3          	bne	a0,s3,55d4 <_puts_r+0x44>
    565e:	b7d1                	j	5622 <_puts_r+0x92>
    5660:	401c                	lw	a5,0(s0)
    5662:	00178713          	addi	a4,a5,1
    5666:	c018                	sw	a4,0(s0)
    5668:	4729                	li	a4,10
    566a:	a398                	sb	a4,0(a5)
    566c:	b761                	j	55f4 <_puts_r+0x64>

0000566e <puts>:
    566e:	81818793          	addi	a5,gp,-2024 # 200004f0 <_impure_ptr>
    5672:	85aa                	mv	a1,a0
    5674:	4388                	lw	a0,0(a5)
    5676:	f1bff06f          	j	5590 <_puts_r>

0000567a <siprintf>:
    567a:	7135                	addi	sp,sp,-160
    567c:	cb3e                	sw	a5,148(sp)
    567e:	800007b7          	lui	a5,0x80000
    5682:	fff7c793          	not	a5,a5
    5686:	ce3e                	sw	a5,28(sp)
    5688:	c83e                	sw	a5,16(sp)
    568a:	77c1                	lui	a5,0xffff0
    568c:	20878793          	addi	a5,a5,520 # ffff0208 <_eusrstack+0xdffe8208>
    5690:	c532                	sw	a2,136(sp)
    5692:	c736                	sw	a3,140(sp)
    5694:	c93a                	sw	a4,144(sp)
    5696:	cd42                	sw	a6,152(sp)
    5698:	cf46                	sw	a7,156(sp)
    569a:	ca3e                	sw	a5,20(sp)
    569c:	81818793          	addi	a5,gp,-2024 # 200004f0 <_impure_ptr>
    56a0:	c42a                	sw	a0,8(sp)
    56a2:	cc2a                	sw	a0,24(sp)
    56a4:	4388                	lw	a0,0(a5)
    56a6:	0134                	addi	a3,sp,136
    56a8:	862e                	mv	a2,a1
    56aa:	002c                	addi	a1,sp,8
    56ac:	de86                	sw	ra,124(sp)
    56ae:	c236                	sw	a3,4(sp)
    56b0:	74a020ef          	jal	ra,7dfa <_svfiprintf_r>
    56b4:	47a2                	lw	a5,8(sp)
    56b6:	00078023          	sb	zero,0(a5)
    56ba:	50f6                	lw	ra,124(sp)
    56bc:	610d                	addi	sp,sp,160
    56be:	8082                	ret

000056c0 <strchr>:
    56c0:	0ff5f593          	andi	a1,a1,255
    56c4:	211c                	lbu	a5,0(a0)
    56c6:	c791                	beqz	a5,56d2 <strchr+0x12>
    56c8:	00b79363          	bne	a5,a1,56ce <strchr+0xe>
    56cc:	8082                	ret
    56ce:	0505                	addi	a0,a0,1
    56d0:	bfd5                	j	56c4 <strchr+0x4>
    56d2:	c191                	beqz	a1,56d6 <strchr+0x16>
    56d4:	4501                	li	a0,0
    56d6:	8082                	ret

000056d8 <strcpy>:
    56d8:	87aa                	mv	a5,a0
    56da:	2198                	lbu	a4,0(a1)
    56dc:	0785                	addi	a5,a5,1
    56de:	0585                	addi	a1,a1,1
    56e0:	fee78fa3          	sb	a4,-1(a5)
    56e4:	fb7d                	bnez	a4,56da <strcpy+0x2>
    56e6:	8082                	ret

000056e8 <strlen>:
    56e8:	87aa                	mv	a5,a0
    56ea:	0785                	addi	a5,a5,1
    56ec:	fff7c703          	lbu	a4,-1(a5)
    56f0:	ff6d                	bnez	a4,56ea <strlen+0x2>
    56f2:	40a78533          	sub	a0,a5,a0
    56f6:	157d                	addi	a0,a0,-1
    56f8:	8082                	ret

000056fa <strstr>:
    56fa:	2118                	lbu	a4,0(a0)
    56fc:	219c                	lbu	a5,0(a1)
    56fe:	e701                	bnez	a4,5706 <strstr+0xc>
    5700:	c391                	beqz	a5,5704 <strstr+0xa>
    5702:	4501                	li	a0,0
    5704:	8082                	ret
    5706:	4781                	li	a5,0
    5708:	a039                	j	5716 <strstr+0x1c>
    570a:	311c                	lbu	a5,1(a0)
    570c:	00150713          	addi	a4,a0,1
    5710:	dbed                	beqz	a5,5702 <strstr+0x8>
    5712:	4781                	li	a5,0
    5714:	853a                	mv	a0,a4
    5716:	00f58733          	add	a4,a1,a5
    571a:	2318                	lbu	a4,0(a4)
    571c:	d765                	beqz	a4,5704 <strstr+0xa>
    571e:	00f506b3          	add	a3,a0,a5
    5722:	2294                	lbu	a3,0(a3)
    5724:	fee693e3          	bne	a3,a4,570a <strstr+0x10>
    5728:	0785                	addi	a5,a5,1
    572a:	872a                	mv	a4,a0
    572c:	b7e5                	j	5714 <strstr+0x1a>

0000572e <sulp>:
    572e:	1101                	addi	sp,sp,-32
    5730:	cc22                	sw	s0,24(sp)
    5732:	872a                	mv	a4,a0
    5734:	842e                	mv	s0,a1
    5736:	853a                	mv	a0,a4
    5738:	85a2                	mv	a1,s0
    573a:	c632                	sw	a2,12(sp)
    573c:	ce06                	sw	ra,28(sp)
    573e:	172020ef          	jal	ra,78b0 <__ulp>
    5742:	4632                	lw	a2,12(sp)
    5744:	882a                	mv	a6,a0
    5746:	88ae                	mv	a7,a1
    5748:	c605                	beqz	a2,5770 <sulp+0x42>
    574a:	8051                	srli	s0,s0,0x14
    574c:	7ff47413          	andi	s0,s0,2047
    5750:	06b00793          	li	a5,107
    5754:	8f81                	sub	a5,a5,s0
    5756:	00f05d63          	blez	a5,5770 <sulp+0x42>
    575a:	07d2                	slli	a5,a5,0x14
    575c:	3ff00737          	lui	a4,0x3ff00
    5760:	4801                	li	a6,0
    5762:	973e                	add	a4,a4,a5
    5764:	8642                	mv	a2,a6
    5766:	86ba                	mv	a3,a4
    5768:	20a040ef          	jal	ra,9972 <__muldf3>
    576c:	882a                	mv	a6,a0
    576e:	88ae                	mv	a7,a1
    5770:	40f2                	lw	ra,28(sp)
    5772:	4462                	lw	s0,24(sp)
    5774:	8542                	mv	a0,a6
    5776:	85c6                	mv	a1,a7
    5778:	6105                	addi	sp,sp,32
    577a:	8082                	ret

0000577c <_strtod_l>:
    577c:	7135                	addi	sp,sp,-160
    577e:	c94a                	sw	s2,144(sp)
    5780:	892a                	mv	s2,a0
    5782:	8536                	mv	a0,a3
    5784:	d432                	sw	a2,40(sp)
    5786:	c636                	sw	a3,12(sp)
    5788:	cf06                	sw	ra,156(sp)
    578a:	cd22                	sw	s0,152(sp)
    578c:	cb26                	sw	s1,148(sp)
    578e:	c74e                	sw	s3,140(sp)
    5790:	d8ea                	sw	s10,112(sp)
    5792:	d6ee                	sw	s11,108(sp)
    5794:	8d2e                	mv	s10,a1
    5796:	c552                	sw	s4,136(sp)
    5798:	c356                	sw	s5,132(sp)
    579a:	c15a                	sw	s6,128(sp)
    579c:	dede                	sw	s7,124(sp)
    579e:	dce2                	sw	s8,120(sp)
    57a0:	dae6                	sw	s9,116(sp)
    57a2:	c882                	sw	zero,80(sp)
    57a4:	11d010ef          	jal	ra,70c0 <__localeconv_l>
    57a8:	8daa                	mv	s11,a0
    57aa:	4108                	lw	a0,0(a0)
    57ac:	4481                	li	s1,0
    57ae:	4401                	li	s0,0
    57b0:	f39ff0ef          	jal	ra,56e8 <strlen>
    57b4:	46b2                	lw	a3,12(sp)
    57b6:	89aa                	mv	s3,a0
    57b8:	c6ea                	sw	s10,76(sp)
    57ba:	4635                	li	a2,13
    57bc:	02b00593          	li	a1,43
    57c0:	02d00513          	li	a0,45
    57c4:	02000813          	li	a6,32
    57c8:	48a5                	li	a7,9
    57ca:	47b6                	lw	a5,76(sp)
    57cc:	2398                	lbu	a4,0(a5)
    57ce:	08e66b63          	bltu	a2,a4,5864 <_strtod_l+0xe8>
    57d2:	09177f63          	bgeu	a4,a7,5870 <_strtod_l+0xf4>
    57d6:	c755                	beqz	a4,5882 <_strtod_l+0x106>
    57d8:	c802                	sw	zero,16(sp)
    57da:	4a36                	lw	s4,76(sp)
    57dc:	03000793          	li	a5,48
    57e0:	4a81                	li	s5,0
    57e2:	000a4703          	lbu	a4,0(s4)
    57e6:	12f71b63          	bne	a4,a5,591c <_strtod_l+0x1a0>
    57ea:	001a4783          	lbu	a5,1(s4)
    57ee:	05800713          	li	a4,88
    57f2:	00e78863          	beq	a5,a4,5802 <_strtod_l+0x86>
    57f6:	07800613          	li	a2,120
    57fa:	03000713          	li	a4,48
    57fe:	10c79663          	bne	a5,a2,590a <_strtod_l+0x18e>
    5802:	47c2                	lw	a5,16(sp)
    5804:	8836                	mv	a6,a3
    5806:	0898                	addi	a4,sp,80
    5808:	08d4                	addi	a3,sp,84
    580a:	00007617          	auipc	a2,0x7
    580e:	d6660613          	addi	a2,a2,-666 # c570 <fpi.3395>
    5812:	00ec                	addi	a1,sp,76
    5814:	854a                	mv	a0,s2
    5816:	226010ef          	jal	ra,6a3c <__gethex>
    581a:	00757993          	andi	s3,a0,7
    581e:	8aaa                	mv	s5,a0
    5820:	00098863          	beqz	s3,5830 <_strtod_l+0xb4>
    5824:	4799                	li	a5,6
    5826:	06f99763          	bne	s3,a5,5894 <_strtod_l+0x118>
    582a:	0a05                	addi	s4,s4,1
    582c:	c6d2                	sw	s4,76(sp)
    582e:	c802                	sw	zero,16(sp)
    5830:	57a2                	lw	a5,40(sp)
    5832:	c781                	beqz	a5,583a <_strtod_l+0xbe>
    5834:	47b6                	lw	a5,76(sp)
    5836:	5722                	lw	a4,40(sp)
    5838:	c31c                	sw	a5,0(a4)
    583a:	47c2                	lw	a5,16(sp)
    583c:	c7b9                	beqz	a5,588a <_strtod_l+0x10e>
    583e:	800005b7          	lui	a1,0x80000
    5842:	8da1                	xor	a1,a1,s0
    5844:	40fa                	lw	ra,156(sp)
    5846:	446a                	lw	s0,152(sp)
    5848:	8526                	mv	a0,s1
    584a:	494a                	lw	s2,144(sp)
    584c:	44da                	lw	s1,148(sp)
    584e:	49ba                	lw	s3,140(sp)
    5850:	4a2a                	lw	s4,136(sp)
    5852:	4a9a                	lw	s5,132(sp)
    5854:	4b0a                	lw	s6,128(sp)
    5856:	5bf6                	lw	s7,124(sp)
    5858:	5c66                	lw	s8,120(sp)
    585a:	5cd6                	lw	s9,116(sp)
    585c:	5d46                	lw	s10,112(sp)
    585e:	5db6                	lw	s11,108(sp)
    5860:	610d                	addi	sp,sp,160
    5862:	8082                	ret
    5864:	00b70963          	beq	a4,a1,5876 <_strtod_l+0xfa>
    5868:	02a70363          	beq	a4,a0,588e <_strtod_l+0x112>
    586c:	f70716e3          	bne	a4,a6,57d8 <_strtod_l+0x5c>
    5870:	0785                	addi	a5,a5,1
    5872:	c6be                	sw	a5,76(sp)
    5874:	bf99                	j	57ca <_strtod_l+0x4e>
    5876:	c802                	sw	zero,16(sp)
    5878:	00178713          	addi	a4,a5,1
    587c:	c6ba                	sw	a4,76(sp)
    587e:	339c                	lbu	a5,1(a5)
    5880:	ffa9                	bnez	a5,57da <_strtod_l+0x5e>
    5882:	57a2                	lw	a5,40(sp)
    5884:	c6ea                	sw	s10,76(sp)
    5886:	c802                	sw	zero,16(sp)
    5888:	f7d5                	bnez	a5,5834 <_strtod_l+0xb8>
    588a:	85a2                	mv	a1,s0
    588c:	bf65                	j	5844 <_strtod_l+0xc8>
    588e:	4705                	li	a4,1
    5890:	c83a                	sw	a4,16(sp)
    5892:	b7dd                	j	5878 <_strtod_l+0xfc>
    5894:	4646                	lw	a2,80(sp)
    5896:	ca11                	beqz	a2,58aa <_strtod_l+0x12e>
    5898:	03500593          	li	a1,53
    589c:	08a8                	addi	a0,sp,88
    589e:	254020ef          	jal	ra,7af2 <__copybits>
    58a2:	45c6                	lw	a1,80(sp)
    58a4:	854a                	mv	a0,s2
    58a6:	1cb010ef          	jal	ra,7270 <_Bfree>
    58aa:	19fd                	addi	s3,s3,-1
    58ac:	4791                	li	a5,4
    58ae:	0137ee63          	bltu	a5,s3,58ca <_strtod_l+0x14e>
    58b2:	00007717          	auipc	a4,0x7
    58b6:	c5e70713          	addi	a4,a4,-930 # c510 <__clz_tab+0x100>
    58ba:	098a                	slli	s3,s3,0x2
    58bc:	99ba                	add	s3,s3,a4
    58be:	0009a783          	lw	a5,0(s3)
    58c2:	97ba                	add	a5,a5,a4
    58c4:	8782                	jr	a5
    58c6:	44e6                	lw	s1,88(sp)
    58c8:	4476                	lw	s0,92(sp)
    58ca:	008afa93          	andi	s5,s5,8
    58ce:	f60a81e3          	beqz	s5,5830 <_strtod_l+0xb4>
    58d2:	800007b7          	lui	a5,0x80000
    58d6:	8c5d                	or	s0,s0,a5
    58d8:	bfa1                	j	5830 <_strtod_l+0xb4>
    58da:	45f6                	lw	a1,92(sp)
    58dc:	fff00437          	lui	s0,0xfff00
    58e0:	147d                	addi	s0,s0,-1
    58e2:	0085f7b3          	and	a5,a1,s0
    58e6:	4456                	lw	s0,84(sp)
    58e8:	44e6                	lw	s1,88(sp)
    58ea:	43340413          	addi	s0,s0,1075 # fff00433 <_eusrstack+0xdfef8433>
    58ee:	01441593          	slli	a1,s0,0x14
    58f2:	00b7e433          	or	s0,a5,a1
    58f6:	bfd1                	j	58ca <_strtod_l+0x14e>
    58f8:	7ff00437          	lui	s0,0x7ff00
    58fc:	b7f9                	j	58ca <_strtod_l+0x14e>
    58fe:	800005b7          	lui	a1,0x80000
    5902:	fff5c413          	not	s0,a1
    5906:	54fd                	li	s1,-1
    5908:	b7c9                	j	58ca <_strtod_l+0x14e>
    590a:	47b6                	lw	a5,76(sp)
    590c:	00178693          	addi	a3,a5,1 # 80000001 <_eusrstack+0x5fff8001>
    5910:	c6b6                	sw	a3,76(sp)
    5912:	339c                	lbu	a5,1(a5)
    5914:	fee78be3          	beq	a5,a4,590a <_strtod_l+0x18e>
    5918:	df81                	beqz	a5,5830 <_strtod_l+0xb4>
    591a:	4a85                	li	s5,1
    591c:	4cb6                	lw	s9,76(sp)
    591e:	4a01                	li	s4,0
    5920:	4b81                	li	s7,0
    5922:	4c01                	li	s8,0
    5924:	46a5                	li	a3,9
    5926:	45a1                	li	a1,8
    5928:	47a9                	li	a5,10
    592a:	4536                	lw	a0,76(sp)
    592c:	00054b03          	lbu	s6,0(a0)
    5930:	fd0b0713          	addi	a4,s6,-48
    5934:	0ff77613          	andi	a2,a4,255
    5938:	04c6fd63          	bgeu	a3,a2,5992 <_strtod_l+0x216>
    593c:	000da583          	lw	a1,0(s11)
    5940:	864e                	mv	a2,s3
    5942:	725020ef          	jal	ra,8866 <strncmp>
    5946:	c13d                	beqz	a0,59ac <_strtod_l+0x230>
    5948:	87da                	mv	a5,s6
    594a:	8de2                	mv	s11,s8
    594c:	4681                	li	a3,0
    594e:	4b01                	li	s6,0
    5950:	4501                	li	a0,0
    5952:	06500713          	li	a4,101
    5956:	00e78763          	beq	a5,a4,5964 <_strtod_l+0x1e8>
    595a:	04500713          	li	a4,69
    595e:	4981                	li	s3,0
    5960:	16e79563          	bne	a5,a4,5aca <_strtod_l+0x34e>
    5964:	000d9663          	bnez	s11,5970 <_strtod_l+0x1f4>
    5968:	0156e7b3          	or	a5,a3,s5
    596c:	db99                	beqz	a5,5882 <_strtod_l+0x106>
    596e:	4d81                	li	s11,0
    5970:	4d36                	lw	s10,76(sp)
    5972:	02b00713          	li	a4,43
    5976:	001d0793          	addi	a5,s10,1
    597a:	c6be                	sw	a5,76(sp)
    597c:	001d4783          	lbu	a5,1(s10)
    5980:	0ce78f63          	beq	a5,a4,5a5e <_strtod_l+0x2e2>
    5984:	02d00713          	li	a4,45
    5988:	4801                	li	a6,0
    598a:	0ee79063          	bne	a5,a4,5a6a <_strtod_l+0x2ee>
    598e:	4805                	li	a6,1
    5990:	a8c1                	j	5a60 <_strtod_l+0x2e4>
    5992:	0185c963          	blt	a1,s8,59a4 <_strtod_l+0x228>
    5996:	02fb8bb3          	mul	s7,s7,a5
    599a:	9bba                	add	s7,s7,a4
    599c:	0505                	addi	a0,a0,1
    599e:	0c05                	addi	s8,s8,1
    59a0:	c6aa                	sw	a0,76(sp)
    59a2:	b761                	j	592a <_strtod_l+0x1ae>
    59a4:	02fa0a33          	mul	s4,s4,a5
    59a8:	9a3a                	add	s4,s4,a4
    59aa:	bfcd                	j	599c <_strtod_l+0x220>
    59ac:	4536                	lw	a0,76(sp)
    59ae:	4681                	li	a3,0
    59b0:	954e                	add	a0,a0,s3
    59b2:	c6aa                	sw	a0,76(sp)
    59b4:	211c                	lbu	a5,0(a0)
    59b6:	060c0b63          	beqz	s8,5a2c <_strtod_l+0x2b0>
    59ba:	4b01                	li	s6,0
    59bc:	8de2                	mv	s11,s8
    59be:	fd078713          	addi	a4,a5,-48
    59c2:	4625                	li	a2,9
    59c4:	02e67563          	bgeu	a2,a4,59ee <_strtod_l+0x272>
    59c8:	4505                	li	a0,1
    59ca:	b761                	j	5952 <_strtod_l+0x1d6>
    59cc:	47b6                	lw	a5,76(sp)
    59ce:	0685                	addi	a3,a3,1
    59d0:	00178613          	addi	a2,a5,1
    59d4:	c6b2                	sw	a2,76(sp)
    59d6:	339c                	lbu	a5,1(a5)
    59d8:	fee78ae3          	beq	a5,a4,59cc <_strtod_l+0x250>
    59dc:	fcf78713          	addi	a4,a5,-49
    59e0:	4621                	li	a2,8
    59e2:	1ee666e3          	bltu	a2,a4,63ce <_strtod_l+0xc52>
    59e6:	4cb6                	lw	s9,76(sp)
    59e8:	8b36                	mv	s6,a3
    59ea:	4d81                	li	s11,0
    59ec:	4681                	li	a3,0
    59ee:	fd078793          	addi	a5,a5,-48
    59f2:	00168713          	addi	a4,a3,1
    59f6:	c785                	beqz	a5,5a1e <_strtod_l+0x2a2>
    59f8:	9b3a                	add	s6,s6,a4
    59fa:	01b68533          	add	a0,a3,s11
    59fe:	876e                	mv	a4,s11
    5a00:	4821                	li	a6,8
    5a02:	48c1                	li	a7,16
    5a04:	4629                	li	a2,10
    5a06:	02a71663          	bne	a4,a0,5a32 <_strtod_l+0x2b6>
    5a0a:	0d85                	addi	s11,s11,1
    5a0c:	9db6                	add	s11,s11,a3
    5a0e:	46a1                	li	a3,8
    5a10:	02e6ce63          	blt	a3,a4,5a4c <_strtod_l+0x2d0>
    5a14:	4729                	li	a4,10
    5a16:	02eb8bb3          	mul	s7,s7,a4
    5a1a:	4701                	li	a4,0
    5a1c:	9bbe                	add	s7,s7,a5
    5a1e:	47b6                	lw	a5,76(sp)
    5a20:	00178693          	addi	a3,a5,1
    5a24:	c6b6                	sw	a3,76(sp)
    5a26:	339c                	lbu	a5,1(a5)
    5a28:	86ba                	mv	a3,a4
    5a2a:	bf51                	j	59be <_strtod_l+0x242>
    5a2c:	03000713          	li	a4,48
    5a30:	b765                	j	59d8 <_strtod_l+0x25c>
    5a32:	00170593          	addi	a1,a4,1
    5a36:	00e84663          	blt	a6,a4,5a42 <_strtod_l+0x2c6>
    5a3a:	02cb8bb3          	mul	s7,s7,a2
    5a3e:	872e                	mv	a4,a1
    5a40:	b7d9                	j	5a06 <_strtod_l+0x28a>
    5a42:	feb8cee3          	blt	a7,a1,5a3e <_strtod_l+0x2c2>
    5a46:	02ca0a33          	mul	s4,s4,a2
    5a4a:	bfd5                	j	5a3e <_strtod_l+0x2c2>
    5a4c:	46c1                	li	a3,16
    5a4e:	4701                	li	a4,0
    5a50:	fdb6c7e3          	blt	a3,s11,5a1e <_strtod_l+0x2a2>
    5a54:	46a9                	li	a3,10
    5a56:	02da0a33          	mul	s4,s4,a3
    5a5a:	9a3e                	add	s4,s4,a5
    5a5c:	b7c9                	j	5a1e <_strtod_l+0x2a2>
    5a5e:	4801                	li	a6,0
    5a60:	002d0793          	addi	a5,s10,2
    5a64:	c6be                	sw	a5,76(sp)
    5a66:	002d4783          	lbu	a5,2(s10)
    5a6a:	fd078713          	addi	a4,a5,-48
    5a6e:	4625                	li	a2,9
    5a70:	0ce66563          	bltu	a2,a4,5b3a <_strtod_l+0x3be>
    5a74:	03000713          	li	a4,48
    5a78:	0ae78563          	beq	a5,a4,5b22 <_strtod_l+0x3a6>
    5a7c:	fcf78713          	addi	a4,a5,-49
    5a80:	4621                	li	a2,8
    5a82:	4981                	li	s3,0
    5a84:	04e66363          	bltu	a2,a4,5aca <_strtod_l+0x34e>
    5a88:	48b6                	lw	a7,76(sp)
    5a8a:	fd078713          	addi	a4,a5,-48
    5a8e:	4325                	li	t1,9
    5a90:	4e29                	li	t3,10
    5a92:	47b6                	lw	a5,76(sp)
    5a94:	00178613          	addi	a2,a5,1
    5a98:	c6b2                	sw	a2,76(sp)
    5a9a:	339c                	lbu	a5,1(a5)
    5a9c:	fd078593          	addi	a1,a5,-48
    5aa0:	0ff5f593          	andi	a1,a1,255
    5aa4:	08b37563          	bgeu	t1,a1,5b2e <_strtod_l+0x3b2>
    5aa8:	6995                	lui	s3,0x5
    5aaa:	41160633          	sub	a2,a2,a7
    5aae:	e1f98993          	addi	s3,s3,-481 # 4e1f <__subsf3+0x163>
    5ab2:	48a1                	li	a7,8
    5ab4:	85ce                	mv	a1,s3
    5ab6:	00c8c663          	blt	a7,a2,5ac2 <_strtod_l+0x346>
    5aba:	89ba                	mv	s3,a4
    5abc:	00e5d363          	bge	a1,a4,5ac2 <_strtod_l+0x346>
    5ac0:	89ae                	mv	s3,a1
    5ac2:	00080463          	beqz	a6,5aca <_strtod_l+0x34e>
    5ac6:	413009b3          	neg	s3,s3
    5aca:	0c0d9663          	bnez	s11,5b96 <_strtod_l+0x41a>
    5ace:	00dae6b3          	or	a3,s5,a3
    5ad2:	d4069fe3          	bnez	a3,5830 <_strtod_l+0xb4>
    5ad6:	da0516e3          	bnez	a0,5882 <_strtod_l+0x106>
    5ada:	04e00713          	li	a4,78
    5ade:	06e78963          	beq	a5,a4,5b50 <_strtod_l+0x3d4>
    5ae2:	04f74f63          	blt	a4,a5,5b40 <_strtod_l+0x3c4>
    5ae6:	04900713          	li	a4,73
    5aea:	d8e79ce3          	bne	a5,a4,5882 <_strtod_l+0x106>
    5aee:	00007597          	auipc	a1,0x7
    5af2:	a7258593          	addi	a1,a1,-1422 # c560 <__clz_tab+0x150>
    5af6:	00e8                	addi	a0,sp,76
    5af8:	43c010ef          	jal	ra,6f34 <__match>
    5afc:	d80503e3          	beqz	a0,5882 <_strtod_l+0x106>
    5b00:	47b6                	lw	a5,76(sp)
    5b02:	00007597          	auipc	a1,0x7
    5b06:	a6258593          	addi	a1,a1,-1438 # c564 <__clz_tab+0x154>
    5b0a:	00e8                	addi	a0,sp,76
    5b0c:	17fd                	addi	a5,a5,-1
    5b0e:	c6be                	sw	a5,76(sp)
    5b10:	424010ef          	jal	ra,6f34 <__match>
    5b14:	e501                	bnez	a0,5b1c <_strtod_l+0x3a0>
    5b16:	47b6                	lw	a5,76(sp)
    5b18:	0785                	addi	a5,a5,1
    5b1a:	c6be                	sw	a5,76(sp)
    5b1c:	7ff00437          	lui	s0,0x7ff00
    5b20:	bb01                	j	5830 <_strtod_l+0xb4>
    5b22:	47b6                	lw	a5,76(sp)
    5b24:	00178613          	addi	a2,a5,1
    5b28:	c6b2                	sw	a2,76(sp)
    5b2a:	339c                	lbu	a5,1(a5)
    5b2c:	b7b1                	j	5a78 <_strtod_l+0x2fc>
    5b2e:	03c70733          	mul	a4,a4,t3
    5b32:	97ba                	add	a5,a5,a4
    5b34:	fd078713          	addi	a4,a5,-48
    5b38:	bfa9                	j	5a92 <_strtod_l+0x316>
    5b3a:	c6ea                	sw	s10,76(sp)
    5b3c:	4981                	li	s3,0
    5b3e:	b771                	j	5aca <_strtod_l+0x34e>
    5b40:	06900713          	li	a4,105
    5b44:	fae785e3          	beq	a5,a4,5aee <_strtod_l+0x372>
    5b48:	06e00713          	li	a4,110
    5b4c:	d2e79be3          	bne	a5,a4,5882 <_strtod_l+0x106>
    5b50:	00007597          	auipc	a1,0x7
    5b54:	a1c58593          	addi	a1,a1,-1508 # c56c <__clz_tab+0x15c>
    5b58:	00e8                	addi	a0,sp,76
    5b5a:	3da010ef          	jal	ra,6f34 <__match>
    5b5e:	d20502e3          	beqz	a0,5882 <_strtod_l+0x106>
    5b62:	47b6                	lw	a5,76(sp)
    5b64:	2398                	lbu	a4,0(a5)
    5b66:	02800793          	li	a5,40
    5b6a:	02f71363          	bne	a4,a5,5b90 <_strtod_l+0x414>
    5b6e:	08b0                	addi	a2,sp,88
    5b70:	00007597          	auipc	a1,0x7
    5b74:	a1458593          	addi	a1,a1,-1516 # c584 <fpinan.3431>
    5b78:	00e8                	addi	a0,sp,76
    5b7a:	3e8010ef          	jal	ra,6f62 <__hexnan>
    5b7e:	4795                	li	a5,5
    5b80:	00f51863          	bne	a0,a5,5b90 <_strtod_l+0x414>
    5b84:	45f6                	lw	a1,92(sp)
    5b86:	7ff00437          	lui	s0,0x7ff00
    5b8a:	44e6                	lw	s1,88(sp)
    5b8c:	8c4d                	or	s0,s0,a1
    5b8e:	b14d                	j	5830 <_strtod_l+0xb4>
    5b90:	fff80437          	lui	s0,0xfff80
    5b94:	b971                	j	5830 <_strtod_l+0xb4>
    5b96:	41698ab3          	sub	s5,s3,s6
    5b9a:	000c1363          	bnez	s8,5ba0 <_strtod_l+0x424>
    5b9e:	8c6e                	mv	s8,s11
    5ba0:	47c1                	li	a5,16
    5ba2:	8d6e                	mv	s10,s11
    5ba4:	01b7d363          	bge	a5,s11,5baa <_strtod_l+0x42e>
    5ba8:	4d41                	li	s10,16
    5baa:	855e                	mv	a0,s7
    5bac:	2f3040ef          	jal	ra,a69e <__floatunsidf>
    5bb0:	47a5                	li	a5,9
    5bb2:	84aa                	mv	s1,a0
    5bb4:	842e                	mv	s0,a1
    5bb6:	03b7dc63          	bge	a5,s11,5bee <_strtod_l+0x472>
    5bba:	ff7d0793          	addi	a5,s10,-9
    5bbe:	00379713          	slli	a4,a5,0x3
    5bc2:	00007797          	auipc	a5,0x7
    5bc6:	a9678793          	addi	a5,a5,-1386 # c658 <__mprec_tens>
    5bca:	97ba                	add	a5,a5,a4
    5bcc:	4390                	lw	a2,0(a5)
    5bce:	43d4                	lw	a3,4(a5)
    5bd0:	5a3030ef          	jal	ra,9972 <__muldf3>
    5bd4:	842a                	mv	s0,a0
    5bd6:	8552                	mv	a0,s4
    5bd8:	84ae                	mv	s1,a1
    5bda:	2c5040ef          	jal	ra,a69e <__floatunsidf>
    5bde:	862a                	mv	a2,a0
    5be0:	86ae                	mv	a3,a1
    5be2:	8522                	mv	a0,s0
    5be4:	85a6                	mv	a1,s1
    5be6:	6db020ef          	jal	ra,8ac0 <__adddf3>
    5bea:	84aa                	mv	s1,a0
    5bec:	842e                	mv	s0,a1
    5bee:	47bd                	li	a5,15
    5bf0:	09b7cd63          	blt	a5,s11,5c8a <_strtod_l+0x50e>
    5bf4:	c20a8ee3          	beqz	s5,5830 <_strtod_l+0xb4>
    5bf8:	07505463          	blez	s5,5c60 <_strtod_l+0x4e4>
    5bfc:	4759                	li	a4,22
    5bfe:	03574363          	blt	a4,s5,5c24 <_strtod_l+0x4a8>
    5c02:	0a8e                	slli	s5,s5,0x3
    5c04:	00007797          	auipc	a5,0x7
    5c08:	a5478793          	addi	a5,a5,-1452 # c658 <__mprec_tens>
    5c0c:	9abe                	add	s5,s5,a5
    5c0e:	000aa503          	lw	a0,0(s5)
    5c12:	004aa583          	lw	a1,4(s5)
    5c16:	8626                	mv	a2,s1
    5c18:	86a2                	mv	a3,s0
    5c1a:	559030ef          	jal	ra,9972 <__muldf3>
    5c1e:	84aa                	mv	s1,a0
    5c20:	842e                	mv	s0,a1
    5c22:	b139                	j	5830 <_strtod_l+0xb4>
    5c24:	02500713          	li	a4,37
    5c28:	41b70733          	sub	a4,a4,s11
    5c2c:	05574f63          	blt	a4,s5,5c8a <_strtod_l+0x50e>
    5c30:	41b78db3          	sub	s11,a5,s11
    5c34:	00007917          	auipc	s2,0x7
    5c38:	a2490913          	addi	s2,s2,-1500 # c658 <__mprec_tens>
    5c3c:	003d9793          	slli	a5,s11,0x3
    5c40:	97ca                	add	a5,a5,s2
    5c42:	4388                	lw	a0,0(a5)
    5c44:	43cc                	lw	a1,4(a5)
    5c46:	41ba8db3          	sub	s11,s5,s11
    5c4a:	8626                	mv	a2,s1
    5c4c:	86a2                	mv	a3,s0
    5c4e:	0d8e                	slli	s11,s11,0x3
    5c50:	523030ef          	jal	ra,9972 <__muldf3>
    5c54:	9dca                	add	s11,s11,s2
    5c56:	000da603          	lw	a2,0(s11)
    5c5a:	004da683          	lw	a3,4(s11)
    5c5e:	bf75                	j	5c1a <_strtod_l+0x49e>
    5c60:	57a9                	li	a5,-22
    5c62:	02fac463          	blt	s5,a5,5c8a <_strtod_l+0x50e>
    5c66:	413b09b3          	sub	s3,s6,s3
    5c6a:	00399b13          	slli	s6,s3,0x3
    5c6e:	00007997          	auipc	s3,0x7
    5c72:	9ea98993          	addi	s3,s3,-1558 # c658 <__mprec_tens>
    5c76:	99da                	add	s3,s3,s6
    5c78:	0009a603          	lw	a2,0(s3)
    5c7c:	0049a683          	lw	a3,4(s3)
    5c80:	8526                	mv	a0,s1
    5c82:	85a2                	mv	a1,s0
    5c84:	56c030ef          	jal	ra,91f0 <__divdf3>
    5c88:	bf59                	j	5c1e <_strtod_l+0x4a2>
    5c8a:	41ad8d33          	sub	s10,s11,s10
    5c8e:	9d56                	add	s10,s10,s5
    5c90:	11a05763          	blez	s10,5d9e <_strtod_l+0x622>
    5c94:	00fd7793          	andi	a5,s10,15
    5c98:	cf99                	beqz	a5,5cb6 <_strtod_l+0x53a>
    5c9a:	00007717          	auipc	a4,0x7
    5c9e:	9be70713          	addi	a4,a4,-1602 # c658 <__mprec_tens>
    5ca2:	078e                	slli	a5,a5,0x3
    5ca4:	97ba                	add	a5,a5,a4
    5ca6:	4388                	lw	a0,0(a5)
    5ca8:	43cc                	lw	a1,4(a5)
    5caa:	8626                	mv	a2,s1
    5cac:	86a2                	mv	a3,s0
    5cae:	4c5030ef          	jal	ra,9972 <__muldf3>
    5cb2:	84aa                	mv	s1,a0
    5cb4:	842e                	mv	s0,a1
    5cb6:	ff0d7d13          	andi	s10,s10,-16
    5cba:	0a0d0863          	beqz	s10,5d6a <_strtod_l+0x5ee>
    5cbe:	13400793          	li	a5,308
    5cc2:	05a7d563          	bge	a5,s10,5d0c <_strtod_l+0x590>
    5cc6:	4b01                	li	s6,0
    5cc8:	4981                	li	s3,0
    5cca:	c602                	sw	zero,12(sp)
    5ccc:	4b81                	li	s7,0
    5cce:	02200793          	li	a5,34
    5cd2:	00f92023          	sw	a5,0(s2)
    5cd6:	7ff00437          	lui	s0,0x7ff00
    5cda:	4481                	li	s1,0
    5cdc:	47b2                	lw	a5,12(sp)
    5cde:	b40789e3          	beqz	a5,5830 <_strtod_l+0xb4>
    5ce2:	45c6                	lw	a1,80(sp)
    5ce4:	854a                	mv	a0,s2
    5ce6:	58a010ef          	jal	ra,7270 <_Bfree>
    5cea:	85de                	mv	a1,s7
    5cec:	854a                	mv	a0,s2
    5cee:	582010ef          	jal	ra,7270 <_Bfree>
    5cf2:	85ce                	mv	a1,s3
    5cf4:	854a                	mv	a0,s2
    5cf6:	57a010ef          	jal	ra,7270 <_Bfree>
    5cfa:	45b2                	lw	a1,12(sp)
    5cfc:	854a                	mv	a0,s2
    5cfe:	572010ef          	jal	ra,7270 <_Bfree>
    5d02:	85da                	mv	a1,s6
    5d04:	854a                	mv	a0,s2
    5d06:	56a010ef          	jal	ra,7270 <_Bfree>
    5d0a:	b61d                	j	5830 <_strtod_l+0xb4>
    5d0c:	404d5d13          	srai	s10,s10,0x4
    5d10:	8526                	mv	a0,s1
    5d12:	85a2                	mv	a1,s0
    5d14:	4781                	li	a5,0
    5d16:	4a01                	li	s4,0
    5d18:	4805                	li	a6,1
    5d1a:	00007897          	auipc	a7,0x7
    5d1e:	91688893          	addi	a7,a7,-1770 # c630 <__mprec_bigtens>
    5d22:	05a84663          	blt	a6,s10,5d6e <_strtod_l+0x5f2>
    5d26:	c399                	beqz	a5,5d2c <_strtod_l+0x5b0>
    5d28:	84aa                	mv	s1,a0
    5d2a:	842e                	mv	s0,a1
    5d2c:	00007717          	auipc	a4,0x7
    5d30:	90470713          	addi	a4,a4,-1788 # c630 <__mprec_bigtens>
    5d34:	003a1793          	slli	a5,s4,0x3
    5d38:	97ba                	add	a5,a5,a4
    5d3a:	4388                	lw	a0,0(a5)
    5d3c:	43cc                	lw	a1,4(a5)
    5d3e:	fcb00737          	lui	a4,0xfcb00
    5d42:	9722                	add	a4,a4,s0
    5d44:	8626                	mv	a2,s1
    5d46:	86ba                	mv	a3,a4
    5d48:	42b030ef          	jal	ra,9972 <__muldf3>
    5d4c:	7ff00437          	lui	s0,0x7ff00
    5d50:	00b477b3          	and	a5,s0,a1
    5d54:	7ca00737          	lui	a4,0x7ca00
    5d58:	84aa                	mv	s1,a0
    5d5a:	f6f766e3          	bltu	a4,a5,5cc6 <_strtod_l+0x54a>
    5d5e:	7c900737          	lui	a4,0x7c900
    5d62:	02f77a63          	bgeu	a4,a5,5d96 <_strtod_l+0x61a>
    5d66:	147d                	addi	s0,s0,-1
    5d68:	54fd                	li	s1,-1
    5d6a:	4a01                	li	s4,0
    5d6c:	a8dd                	j	5e62 <_strtod_l+0x6e6>
    5d6e:	001d7713          	andi	a4,s10,1
    5d72:	cf11                	beqz	a4,5d8e <_strtod_l+0x612>
    5d74:	003a1713          	slli	a4,s4,0x3
    5d78:	9746                	add	a4,a4,a7
    5d7a:	4310                	lw	a2,0(a4)
    5d7c:	4354                	lw	a3,4(a4)
    5d7e:	3f5030ef          	jal	ra,9972 <__muldf3>
    5d82:	4785                	li	a5,1
    5d84:	4805                	li	a6,1
    5d86:	00007897          	auipc	a7,0x7
    5d8a:	8aa88893          	addi	a7,a7,-1878 # c630 <__mprec_bigtens>
    5d8e:	0a05                	addi	s4,s4,1
    5d90:	401d5d13          	srai	s10,s10,0x1
    5d94:	b779                	j	5d22 <_strtod_l+0x5a6>
    5d96:	03500437          	lui	s0,0x3500
    5d9a:	942e                	add	s0,s0,a1
    5d9c:	b7f9                	j	5d6a <_strtod_l+0x5ee>
    5d9e:	fc0d06e3          	beqz	s10,5d6a <_strtod_l+0x5ee>
    5da2:	41a00d33          	neg	s10,s10
    5da6:	00fd7793          	andi	a5,s10,15
    5daa:	cf99                	beqz	a5,5dc8 <_strtod_l+0x64c>
    5dac:	00007717          	auipc	a4,0x7
    5db0:	8ac70713          	addi	a4,a4,-1876 # c658 <__mprec_tens>
    5db4:	078e                	slli	a5,a5,0x3
    5db6:	97ba                	add	a5,a5,a4
    5db8:	4390                	lw	a2,0(a5)
    5dba:	43d4                	lw	a3,4(a5)
    5dbc:	8526                	mv	a0,s1
    5dbe:	85a2                	mv	a1,s0
    5dc0:	430030ef          	jal	ra,91f0 <__divdf3>
    5dc4:	84aa                	mv	s1,a0
    5dc6:	842e                	mv	s0,a1
    5dc8:	404d5d13          	srai	s10,s10,0x4
    5dcc:	f80d0fe3          	beqz	s10,5d6a <_strtod_l+0x5ee>
    5dd0:	47fd                	li	a5,31
    5dd2:	01a7dd63          	bge	a5,s10,5dec <_strtod_l+0x670>
    5dd6:	4b01                	li	s6,0
    5dd8:	4981                	li	s3,0
    5dda:	c602                	sw	zero,12(sp)
    5ddc:	4b81                	li	s7,0
    5dde:	02200793          	li	a5,34
    5de2:	4481                	li	s1,0
    5de4:	4401                	li	s0,0
    5de6:	00f92023          	sw	a5,0(s2)
    5dea:	bdcd                	j	5cdc <_strtod_l+0x560>
    5dec:	010d7a13          	andi	s4,s10,16
    5df0:	000a0463          	beqz	s4,5df8 <_strtod_l+0x67c>
    5df4:	06a00a13          	li	s4,106
    5df8:	8526                	mv	a0,s1
    5dfa:	85a2                	mv	a1,s0
    5dfc:	00006797          	auipc	a5,0x6
    5e00:	79c78793          	addi	a5,a5,1948 # c598 <tinytens>
    5e04:	4701                	li	a4,0
    5e06:	001d7693          	andi	a3,s10,1
    5e0a:	ca81                	beqz	a3,5e1a <_strtod_l+0x69e>
    5e0c:	4390                	lw	a2,0(a5)
    5e0e:	43d4                	lw	a3,4(a5)
    5e10:	c63e                	sw	a5,12(sp)
    5e12:	361030ef          	jal	ra,9972 <__muldf3>
    5e16:	47b2                	lw	a5,12(sp)
    5e18:	4705                	li	a4,1
    5e1a:	401d5d13          	srai	s10,s10,0x1
    5e1e:	07a1                	addi	a5,a5,8
    5e20:	fe0d13e3          	bnez	s10,5e06 <_strtod_l+0x68a>
    5e24:	c319                	beqz	a4,5e2a <_strtod_l+0x6ae>
    5e26:	84aa                	mv	s1,a0
    5e28:	842e                	mv	s0,a1
    5e2a:	020a0563          	beqz	s4,5e54 <_strtod_l+0x6d8>
    5e2e:	01445793          	srli	a5,s0,0x14
    5e32:	7ff7f713          	andi	a4,a5,2047
    5e36:	06b00793          	li	a5,107
    5e3a:	8f99                	sub	a5,a5,a4
    5e3c:	00f05c63          	blez	a5,5e54 <_strtod_l+0x6d8>
    5e40:	477d                	li	a4,31
    5e42:	22f75463          	bge	a4,a5,606a <_strtod_l+0x8ee>
    5e46:	03400713          	li	a4,52
    5e4a:	4481                	li	s1,0
    5e4c:	20f75963          	bge	a4,a5,605e <_strtod_l+0x8e2>
    5e50:	03700437          	lui	s0,0x3700
    5e54:	4601                	li	a2,0
    5e56:	4681                	li	a3,0
    5e58:	8526                	mv	a0,s1
    5e5a:	85a2                	mv	a1,s0
    5e5c:	149030ef          	jal	ra,97a4 <__eqdf2>
    5e60:	d93d                	beqz	a0,5dd6 <_strtod_l+0x65a>
    5e62:	875e                	mv	a4,s7
    5e64:	86ee                	mv	a3,s11
    5e66:	8662                	mv	a2,s8
    5e68:	85e6                	mv	a1,s9
    5e6a:	854a                	mv	a0,s2
    5e6c:	4e0010ef          	jal	ra,734c <__s2b>
    5e70:	c62a                	sw	a0,12(sp)
    5e72:	e4050ae3          	beqz	a0,5cc6 <_strtod_l+0x54a>
    5e76:	41fad793          	srai	a5,s5,0x1f
    5e7a:	413b09b3          	sub	s3,s6,s3
    5e7e:	00f9f7b3          	and	a5,s3,a5
    5e82:	d03e                	sw	a5,32(sp)
    5e84:	ce56                	sw	s5,28(sp)
    5e86:	000ad363          	bgez	s5,5e8c <_strtod_l+0x710>
    5e8a:	ce02                	sw	zero,28(sp)
    5e8c:	47b2                	lw	a5,12(sp)
    5e8e:	4b01                	li	s6,0
    5e90:	4981                	li	s3,0
    5e92:	07b1                	addi	a5,a5,12
    5e94:	d83e                	sw	a5,48(sp)
    5e96:	001007b7          	lui	a5,0x100
    5e9a:	17fd                	addi	a5,a5,-1
    5e9c:	d63e                	sw	a5,44(sp)
    5e9e:	47b2                	lw	a5,12(sp)
    5ea0:	854a                	mv	a0,s2
    5ea2:	43cc                	lw	a1,4(a5)
    5ea4:	340010ef          	jal	ra,71e4 <_Balloc>
    5ea8:	8baa                	mv	s7,a0
    5eaa:	e20502e3          	beqz	a0,5cce <_strtod_l+0x552>
    5eae:	47b2                	lw	a5,12(sp)
    5eb0:	55c2                	lw	a1,48(sp)
    5eb2:	0531                	addi	a0,a0,12
    5eb4:	4b90                	lw	a2,16(a5)
    5eb6:	0609                	addi	a2,a2,2
    5eb8:	060a                	slli	a2,a2,0x2
    5eba:	db6ff0ef          	jal	ra,5470 <memcpy>
    5ebe:	08b8                	addi	a4,sp,88
    5ec0:	08d4                	addi	a3,sp,84
    5ec2:	8622                	mv	a2,s0
    5ec4:	85a6                	mv	a1,s1
    5ec6:	854a                	mv	a0,s2
    5ec8:	ca26                	sw	s1,20(sp)
    5eca:	cc22                	sw	s0,24(sp)
    5ecc:	2df010ef          	jal	ra,79aa <__d2b>
    5ed0:	c8aa                	sw	a0,80(sp)
    5ed2:	de050ee3          	beqz	a0,5cce <_strtod_l+0x552>
    5ed6:	4585                	li	a1,1
    5ed8:	854a                	mv	a0,s2
    5eda:	5c6010ef          	jal	ra,74a0 <__i2b>
    5ede:	89aa                	mv	s3,a0
    5ee0:	de0507e3          	beqz	a0,5cce <_strtod_l+0x552>
    5ee4:	47d6                	lw	a5,84(sp)
    5ee6:	1807c763          	bltz	a5,6074 <_strtod_l+0x8f8>
    5eea:	5702                	lw	a4,32(sp)
    5eec:	4c72                	lw	s8,28(sp)
    5eee:	00e78d33          	add	s10,a5,a4
    5ef2:	4766                	lw	a4,88(sp)
    5ef4:	414787b3          	sub	a5,a5,s4
    5ef8:	03600693          	li	a3,54
    5efc:	97ba                	add	a5,a5,a4
    5efe:	17fd                	addi	a5,a5,-1
    5f00:	c0200d93          	li	s11,-1022
    5f04:	8e99                	sub	a3,a3,a4
    5f06:	19b7d663          	bge	a5,s11,6092 <_strtod_l+0x916>
    5f0a:	40fd8733          	sub	a4,s11,a5
    5f0e:	467d                	li	a2,31
    5f10:	8e99                	sub	a3,a3,a4
    5f12:	16e64663          	blt	a2,a4,607e <_strtod_l+0x902>
    5f16:	4d85                	li	s11,1
    5f18:	00ed97b3          	sll	a5,s11,a4
    5f1c:	d23e                	sw	a5,36(sp)
    5f1e:	4c81                	li	s9,0
    5f20:	9c36                	add	s8,s8,a3
    5f22:	00dd0db3          	add	s11,s10,a3
    5f26:	9c52                	add	s8,s8,s4
    5f28:	87ea                	mv	a5,s10
    5f2a:	01add363          	bge	s11,s10,5f30 <_strtod_l+0x7b4>
    5f2e:	87ee                	mv	a5,s11
    5f30:	00fc5363          	bge	s8,a5,5f36 <_strtod_l+0x7ba>
    5f34:	87e2                	mv	a5,s8
    5f36:	00f05863          	blez	a5,5f46 <_strtod_l+0x7ca>
    5f3a:	40fd8db3          	sub	s11,s11,a5
    5f3e:	40fc0c33          	sub	s8,s8,a5
    5f42:	40fd0d33          	sub	s10,s10,a5
    5f46:	5782                	lw	a5,32(sp)
    5f48:	02f05863          	blez	a5,5f78 <_strtod_l+0x7fc>
    5f4c:	85ce                	mv	a1,s3
    5f4e:	863e                	mv	a2,a5
    5f50:	854a                	mv	a0,s2
    5f52:	6ae010ef          	jal	ra,7600 <__pow5mult>
    5f56:	89aa                	mv	s3,a0
    5f58:	d6050be3          	beqz	a0,5cce <_strtod_l+0x552>
    5f5c:	4646                	lw	a2,80(sp)
    5f5e:	85aa                	mv	a1,a0
    5f60:	854a                	mv	a0,s2
    5f62:	55a010ef          	jal	ra,74bc <__multiply>
    5f66:	da2a                	sw	a0,52(sp)
    5f68:	d60503e3          	beqz	a0,5cce <_strtod_l+0x552>
    5f6c:	45c6                	lw	a1,80(sp)
    5f6e:	854a                	mv	a0,s2
    5f70:	300010ef          	jal	ra,7270 <_Bfree>
    5f74:	57d2                	lw	a5,52(sp)
    5f76:	c8be                	sw	a5,80(sp)
    5f78:	11b04f63          	bgtz	s11,6096 <_strtod_l+0x91a>
    5f7c:	01505a63          	blez	s5,5f90 <_strtod_l+0x814>
    5f80:	4672                	lw	a2,28(sp)
    5f82:	85de                	mv	a1,s7
    5f84:	854a                	mv	a0,s2
    5f86:	67a010ef          	jal	ra,7600 <__pow5mult>
    5f8a:	8baa                	mv	s7,a0
    5f8c:	d40501e3          	beqz	a0,5cce <_strtod_l+0x552>
    5f90:	01805a63          	blez	s8,5fa4 <_strtod_l+0x828>
    5f94:	85de                	mv	a1,s7
    5f96:	8662                	mv	a2,s8
    5f98:	854a                	mv	a0,s2
    5f9a:	724010ef          	jal	ra,76be <__lshift>
    5f9e:	8baa                	mv	s7,a0
    5fa0:	d20507e3          	beqz	a0,5cce <_strtod_l+0x552>
    5fa4:	01a05a63          	blez	s10,5fb8 <_strtod_l+0x83c>
    5fa8:	85ce                	mv	a1,s3
    5faa:	866a                	mv	a2,s10
    5fac:	854a                	mv	a0,s2
    5fae:	710010ef          	jal	ra,76be <__lshift>
    5fb2:	89aa                	mv	s3,a0
    5fb4:	d0050de3          	beqz	a0,5cce <_strtod_l+0x552>
    5fb8:	45c6                	lw	a1,80(sp)
    5fba:	865e                	mv	a2,s7
    5fbc:	854a                	mv	a0,s2
    5fbe:	001010ef          	jal	ra,77be <__mdiff>
    5fc2:	8b2a                	mv	s6,a0
    5fc4:	d00505e3          	beqz	a0,5cce <_strtod_l+0x552>
    5fc8:	00c52c03          	lw	s8,12(a0)
    5fcc:	85ce                	mv	a1,s3
    5fce:	00052623          	sw	zero,12(a0)
    5fd2:	7ba010ef          	jal	ra,778c <__mcmp>
    5fd6:	0c055963          	bgez	a0,60a8 <_strtod_l+0x92c>
    5fda:	009c6c33          	or	s8,s8,s1
    5fde:	120c1163          	bnez	s8,6100 <_strtod_l+0x984>
    5fe2:	00c41793          	slli	a5,s0,0xc
    5fe6:	10079d63          	bnez	a5,6100 <_strtod_l+0x984>
    5fea:	7ff007b7          	lui	a5,0x7ff00
    5fee:	8fe1                	and	a5,a5,s0
    5ff0:	06b00737          	lui	a4,0x6b00
    5ff4:	10f77663          	bgeu	a4,a5,6100 <_strtod_l+0x984>
    5ff8:	014b2783          	lw	a5,20(s6)
    5ffc:	e791                	bnez	a5,6008 <_strtod_l+0x88c>
    5ffe:	010b2703          	lw	a4,16(s6)
    6002:	4785                	li	a5,1
    6004:	0ee7de63          	bge	a5,a4,6100 <_strtod_l+0x984>
    6008:	85da                	mv	a1,s6
    600a:	4605                	li	a2,1
    600c:	854a                	mv	a0,s2
    600e:	6b0010ef          	jal	ra,76be <__lshift>
    6012:	85ce                	mv	a1,s3
    6014:	8b2a                	mv	s6,a0
    6016:	776010ef          	jal	ra,778c <__mcmp>
    601a:	0ea05363          	blez	a0,6100 <_strtod_l+0x984>
    601e:	100a0c63          	beqz	s4,6136 <_strtod_l+0x9ba>
    6022:	7ff007b7          	lui	a5,0x7ff00
    6026:	8fe1                	and	a5,a5,s0
    6028:	06b00737          	lui	a4,0x6b00
    602c:	10f74563          	blt	a4,a5,6136 <_strtod_l+0x9ba>
    6030:	03700737          	lui	a4,0x3700
    6034:	daf755e3          	bge	a4,a5,5dde <_strtod_l+0x662>
    6038:	4701                	li	a4,0
    603a:	395007b7          	lui	a5,0x39500
    603e:	8526                	mv	a0,s1
    6040:	85a2                	mv	a1,s0
    6042:	863a                	mv	a2,a4
    6044:	86be                	mv	a3,a5
    6046:	12d030ef          	jal	ra,9972 <__muldf3>
    604a:	842e                	mv	s0,a1
    604c:	8dc9                	or	a1,a1,a0
    604e:	84aa                	mv	s1,a0
    6050:	c80599e3          	bnez	a1,5ce2 <_strtod_l+0x566>
    6054:	02200793          	li	a5,34
    6058:	00f92023          	sw	a5,0(s2)
    605c:	b159                	j	5ce2 <_strtod_l+0x566>
    605e:	1781                	addi	a5,a5,-32
    6060:	577d                	li	a4,-1
    6062:	00f717b3          	sll	a5,a4,a5
    6066:	8c7d                	and	s0,s0,a5
    6068:	b3f5                	j	5e54 <_strtod_l+0x6d8>
    606a:	577d                	li	a4,-1
    606c:	00f717b3          	sll	a5,a4,a5
    6070:	8cfd                	and	s1,s1,a5
    6072:	b3cd                	j	5e54 <_strtod_l+0x6d8>
    6074:	4772                	lw	a4,28(sp)
    6076:	5d02                	lw	s10,32(sp)
    6078:	40f70c33          	sub	s8,a4,a5
    607c:	bd9d                	j	5ef2 <_strtod_l+0x776>
    607e:	be200c93          	li	s9,-1054
    6082:	40fc87b3          	sub	a5,s9,a5
    6086:	4c85                	li	s9,1
    6088:	00fc9cb3          	sll	s9,s9,a5
    608c:	4785                	li	a5,1
    608e:	d23e                	sw	a5,36(sp)
    6090:	bd41                	j	5f20 <_strtod_l+0x7a4>
    6092:	4c81                	li	s9,0
    6094:	bfe5                	j	608c <_strtod_l+0x910>
    6096:	45c6                	lw	a1,80(sp)
    6098:	866e                	mv	a2,s11
    609a:	854a                	mv	a0,s2
    609c:	622010ef          	jal	ra,76be <__lshift>
    60a0:	c8aa                	sw	a0,80(sp)
    60a2:	ec051de3          	bnez	a0,5f7c <_strtod_l+0x800>
    60a6:	b125                	j	5cce <_strtod_l+0x552>
    60a8:	e969                	bnez	a0,617a <_strtod_l+0x9fe>
    60aa:	00100737          	lui	a4,0x100
    60ae:	177d                	addi	a4,a4,-1
    60b0:	00e477b3          	and	a5,s0,a4
    60b4:	040c0963          	beqz	s8,6106 <_strtod_l+0x98a>
    60b8:	04e79963          	bne	a5,a4,610a <_strtod_l+0x98e>
    60bc:	577d                	li	a4,-1
    60be:	020a0063          	beqz	s4,60de <_strtod_l+0x962>
    60c2:	7ff007b7          	lui	a5,0x7ff00
    60c6:	8fe1                	and	a5,a5,s0
    60c8:	06a006b7          	lui	a3,0x6a00
    60cc:	00f6e963          	bltu	a3,a5,60de <_strtod_l+0x962>
    60d0:	83d1                	srli	a5,a5,0x14
    60d2:	06b00693          	li	a3,107
    60d6:	40f687b3          	sub	a5,a3,a5
    60da:	00f71733          	sll	a4,a4,a5
    60de:	02e49663          	bne	s1,a4,610a <_strtod_l+0x98e>
    60e2:	7ff007b7          	lui	a5,0x7ff00
    60e6:	17fd                	addi	a5,a5,-1
    60e8:	00f41563          	bne	s0,a5,60f2 <_strtod_l+0x976>
    60ec:	57fd                	li	a5,-1
    60ee:	bef480e3          	beq	s1,a5,5cce <_strtod_l+0x552>
    60f2:	7ff005b7          	lui	a1,0x7ff00
    60f6:	8de1                	and	a1,a1,s0
    60f8:	00100437          	lui	s0,0x100
    60fc:	942e                	add	s0,s0,a1
    60fe:	4481                	li	s1,0
    6100:	f20a1ce3          	bnez	s4,6038 <_strtod_l+0x8bc>
    6104:	bef9                	j	5ce2 <_strtod_l+0x566>
    6106:	8fc5                	or	a5,a5,s1
    6108:	db99                	beqz	a5,601e <_strtod_l+0x8a2>
    610a:	040c8263          	beqz	s9,614e <_strtod_l+0x9d2>
    610e:	008cfcb3          	and	s9,s9,s0
    6112:	fe0c87e3          	beqz	s9,6100 <_strtod_l+0x984>
    6116:	8652                	mv	a2,s4
    6118:	8526                	mv	a0,s1
    611a:	85a2                	mv	a1,s0
    611c:	020c0f63          	beqz	s8,615a <_strtod_l+0x9de>
    6120:	e0eff0ef          	jal	ra,572e <sulp>
    6124:	862a                	mv	a2,a0
    6126:	86ae                	mv	a3,a1
    6128:	4552                	lw	a0,20(sp)
    612a:	45e2                	lw	a1,24(sp)
    612c:	195020ef          	jal	ra,8ac0 <__adddf3>
    6130:	84aa                	mv	s1,a0
    6132:	842e                	mv	s0,a1
    6134:	b7f1                	j	6100 <_strtod_l+0x984>
    6136:	7ff005b7          	lui	a1,0x7ff00
    613a:	8de1                	and	a1,a1,s0
    613c:	fff00437          	lui	s0,0xfff00
    6140:	95a2                	add	a1,a1,s0
    6142:	00100437          	lui	s0,0x100
    6146:	147d                	addi	s0,s0,-1
    6148:	8c4d                	or	s0,s0,a1
    614a:	54fd                	li	s1,-1
    614c:	bf55                	j	6100 <_strtod_l+0x984>
    614e:	5792                	lw	a5,36(sp)
    6150:	0097fdb3          	and	s11,a5,s1
    6154:	fa0d86e3          	beqz	s11,6100 <_strtod_l+0x984>
    6158:	bf7d                	j	6116 <_strtod_l+0x99a>
    615a:	dd4ff0ef          	jal	ra,572e <sulp>
    615e:	862a                	mv	a2,a0
    6160:	86ae                	mv	a3,a1
    6162:	4552                	lw	a0,20(sp)
    6164:	45e2                	lw	a1,24(sp)
    6166:	4c5030ef          	jal	ra,9e2a <__subdf3>
    616a:	4601                	li	a2,0
    616c:	4681                	li	a3,0
    616e:	84aa                	mv	s1,a0
    6170:	842e                	mv	s0,a1
    6172:	632030ef          	jal	ra,97a4 <__eqdf2>
    6176:	f549                	bnez	a0,6100 <_strtod_l+0x984>
    6178:	b19d                	j	5dde <_strtod_l+0x662>
    617a:	85ce                	mv	a1,s3
    617c:	855a                	mv	a0,s6
    617e:	101010ef          	jal	ra,7a7e <__ratio>
    6182:	00006797          	auipc	a5,0x6
    6186:	3b678793          	addi	a5,a5,950 # c538 <__clz_tab+0x128>
    618a:	4390                	lw	a2,0(a5)
    618c:	43d4                	lw	a3,4(a5)
    618e:	8d2a                	mv	s10,a0
    6190:	8dae                	mv	s11,a1
    6192:	72a030ef          	jal	ra,98bc <__ledf2>
    6196:	10a04263          	bgtz	a0,629a <_strtod_l+0xb1e>
    619a:	0a0c0163          	beqz	s8,623c <_strtod_l+0xac0>
    619e:	4d81                	li	s11,0
    61a0:	3ff00d37          	lui	s10,0x3ff00
    61a4:	4701                	li	a4,0
    61a6:	3ff007b7          	lui	a5,0x3ff00
    61aa:	7ff006b7          	lui	a3,0x7ff00
    61ae:	00d47cb3          	and	s9,s0,a3
    61b2:	7fe006b7          	lui	a3,0x7fe00
    61b6:	16dc9f63          	bne	s9,a3,6334 <_strtod_l+0xbb8>
    61ba:	d26a                	sw	s10,36(sp)
    61bc:	fcb00d37          	lui	s10,0xfcb00
    61c0:	9d22                	add	s10,s10,s0
    61c2:	8526                	mv	a0,s1
    61c4:	85ea                	mv	a1,s10
    61c6:	de3e                	sw	a5,60(sp)
    61c8:	dc3a                	sw	a4,56(sp)
    61ca:	da6e                	sw	s11,52(sp)
    61cc:	6e4010ef          	jal	ra,78b0 <__ulp>
    61d0:	58d2                	lw	a7,52(sp)
    61d2:	5812                	lw	a6,36(sp)
    61d4:	862a                	mv	a2,a0
    61d6:	86ae                	mv	a3,a1
    61d8:	8546                	mv	a0,a7
    61da:	85c2                	mv	a1,a6
    61dc:	796030ef          	jal	ra,9972 <__muldf3>
    61e0:	8626                	mv	a2,s1
    61e2:	86ea                	mv	a3,s10
    61e4:	0dd020ef          	jal	ra,8ac0 <__adddf3>
    61e8:	84aa                	mv	s1,a0
    61ea:	7ff00537          	lui	a0,0x7ff00
    61ee:	00b57633          	and	a2,a0,a1
    61f2:	7ca006b7          	lui	a3,0x7ca00
    61f6:	5762                	lw	a4,56(sp)
    61f8:	57f2                	lw	a5,60(sp)
    61fa:	0cd66563          	bltu	a2,a3,62c4 <_strtod_l+0xb48>
    61fe:	4762                	lw	a4,24(sp)
    6200:	fff50793          	addi	a5,a0,-1 # 7fefffff <_eusrstack+0x5fef7fff>
    6204:	00e79663          	bne	a5,a4,6210 <_strtod_l+0xa94>
    6208:	4752                	lw	a4,20(sp)
    620a:	57fd                	li	a5,-1
    620c:	ace781e3          	beq	a5,a4,5cce <_strtod_l+0x552>
    6210:	7ff007b7          	lui	a5,0x7ff00
    6214:	fff78413          	addi	s0,a5,-1 # 7fefffff <_eusrstack+0x5fef7fff>
    6218:	54fd                	li	s1,-1
    621a:	45c6                	lw	a1,80(sp)
    621c:	854a                	mv	a0,s2
    621e:	052010ef          	jal	ra,7270 <_Bfree>
    6222:	85de                	mv	a1,s7
    6224:	854a                	mv	a0,s2
    6226:	04a010ef          	jal	ra,7270 <_Bfree>
    622a:	85ce                	mv	a1,s3
    622c:	854a                	mv	a0,s2
    622e:	042010ef          	jal	ra,7270 <_Bfree>
    6232:	85da                	mv	a1,s6
    6234:	854a                	mv	a0,s2
    6236:	03a010ef          	jal	ra,7270 <_Bfree>
    623a:	b195                	j	5e9e <_strtod_l+0x722>
    623c:	e0b1                	bnez	s1,6280 <_strtod_l+0xb04>
    623e:	57b2                	lw	a5,44(sp)
    6240:	8fe1                	and	a5,a5,s0
    6242:	e7a1                	bnez	a5,628a <_strtod_l+0xb0e>
    6244:	00006797          	auipc	a5,0x6
    6248:	2ec78793          	addi	a5,a5,748 # c530 <__clz_tab+0x120>
    624c:	4390                	lw	a2,0(a5)
    624e:	43d4                	lw	a3,4(a5)
    6250:	856a                	mv	a0,s10
    6252:	85ee                	mv	a1,s11
    6254:	668030ef          	jal	ra,98bc <__ledf2>
    6258:	02054d63          	bltz	a0,6292 <_strtod_l+0xb16>
    625c:	00006797          	auipc	a5,0x6
    6260:	2cc78793          	addi	a5,a5,716 # c528 <__clz_tab+0x118>
    6264:	4390                	lw	a2,0(a5)
    6266:	43d4                	lw	a3,4(a5)
    6268:	856a                	mv	a0,s10
    626a:	85ee                	mv	a1,s11
    626c:	706030ef          	jal	ra,9972 <__muldf3>
    6270:	872a                	mv	a4,a0
    6272:	87ae                	mv	a5,a1
    6274:	80000d37          	lui	s10,0x80000
    6278:	8dba                	mv	s11,a4
    627a:	00fd4d33          	xor	s10,s10,a5
    627e:	b735                	j	61aa <_strtod_l+0xa2e>
    6280:	4785                	li	a5,1
    6282:	00f49463          	bne	s1,a5,628a <_strtod_l+0xb0e>
    6286:	b4040ce3          	beqz	s0,5dde <_strtod_l+0x662>
    628a:	4d81                	li	s11,0
    628c:	bff00d37          	lui	s10,0xbff00
    6290:	bf11                	j	61a4 <_strtod_l+0xa28>
    6292:	4701                	li	a4,0
    6294:	3fe007b7          	lui	a5,0x3fe00
    6298:	bff1                	j	6274 <_strtod_l+0xaf8>
    629a:	00006797          	auipc	a5,0x6
    629e:	28e78793          	addi	a5,a5,654 # c528 <__clz_tab+0x118>
    62a2:	4390                	lw	a2,0(a5)
    62a4:	43d4                	lw	a3,4(a5)
    62a6:	856a                	mv	a0,s10
    62a8:	85ee                	mv	a1,s11
    62aa:	6c8030ef          	jal	ra,9972 <__muldf3>
    62ae:	872a                	mv	a4,a0
    62b0:	87ae                	mv	a5,a1
    62b2:	8d2e                	mv	s10,a1
    62b4:	000c1663          	bnez	s8,62c0 <_strtod_l+0xb44>
    62b8:	80000d37          	lui	s10,0x80000
    62bc:	00bd4d33          	xor	s10,s10,a1
    62c0:	8daa                	mv	s11,a0
    62c2:	b5e5                	j	61aa <_strtod_l+0xa2e>
    62c4:	03500437          	lui	s0,0x3500
    62c8:	942e                	add	s0,s0,a1
    62ca:	f40a18e3          	bnez	s4,621a <_strtod_l+0xa9e>
    62ce:	7ff006b7          	lui	a3,0x7ff00
    62d2:	8ee1                	and	a3,a3,s0
    62d4:	f4dc93e3          	bne	s9,a3,621a <_strtod_l+0xa9e>
    62d8:	85be                	mv	a1,a5
    62da:	853a                	mv	a0,a4
    62dc:	8d3a                	mv	s10,a4
    62de:	8cbe                	mv	s9,a5
    62e0:	288040ef          	jal	ra,a568 <__fixdfsi>
    62e4:	348040ef          	jal	ra,a62c <__floatsidf>
    62e8:	862a                	mv	a2,a0
    62ea:	86ae                	mv	a3,a1
    62ec:	856a                	mv	a0,s10
    62ee:	85e6                	mv	a1,s9
    62f0:	33b030ef          	jal	ra,9e2a <__subdf3>
    62f4:	57b2                	lw	a5,44(sp)
    62f6:	8d2a                	mv	s10,a0
    62f8:	8dae                	mv	s11,a1
    62fa:	8fe1                	and	a5,a5,s0
    62fc:	8fc5                	or	a5,a5,s1
    62fe:	0187ec33          	or	s8,a5,s8
    6302:	0a0c0b63          	beqz	s8,63b8 <_strtod_l+0xc3c>
    6306:	00006797          	auipc	a5,0x6
    630a:	24278793          	addi	a5,a5,578 # c548 <__clz_tab+0x138>
    630e:	4390                	lw	a2,0(a5)
    6310:	43d4                	lw	a3,4(a5)
    6312:	5aa030ef          	jal	ra,98bc <__ledf2>
    6316:	9c0546e3          	bltz	a0,5ce2 <_strtod_l+0x566>
    631a:	00006797          	auipc	a5,0x6
    631e:	23678793          	addi	a5,a5,566 # c550 <__clz_tab+0x140>
    6322:	4390                	lw	a2,0(a5)
    6324:	43d4                	lw	a3,4(a5)
    6326:	856a                	mv	a0,s10
    6328:	85ee                	mv	a1,s11
    632a:	4e4030ef          	jal	ra,980e <__gedf2>
    632e:	eea056e3          	blez	a0,621a <_strtod_l+0xa9e>
    6332:	ba45                	j	5ce2 <_strtod_l+0x566>
    6334:	040a0d63          	beqz	s4,638e <_strtod_l+0xc12>
    6338:	06a006b7          	lui	a3,0x6a00
    633c:	0596e963          	bltu	a3,s9,638e <_strtod_l+0xc12>
    6340:	00006697          	auipc	a3,0x6
    6344:	20068693          	addi	a3,a3,512 # c540 <__clz_tab+0x130>
    6348:	4290                	lw	a2,0(a3)
    634a:	42d4                	lw	a3,4(a3)
    634c:	853a                	mv	a0,a4
    634e:	85be                	mv	a1,a5
    6350:	da3a                	sw	a4,52(sp)
    6352:	d23e                	sw	a5,36(sp)
    6354:	568030ef          	jal	ra,98bc <__ledf2>
    6358:	5792                	lw	a5,36(sp)
    635a:	5752                	lw	a4,52(sp)
    635c:	02a04463          	bgtz	a0,6384 <_strtod_l+0xc08>
    6360:	853a                	mv	a0,a4
    6362:	85be                	mv	a1,a5
    6364:	26c040ef          	jal	ra,a5d0 <__fixunsdfsi>
    6368:	e111                	bnez	a0,636c <_strtod_l+0xbf0>
    636a:	4505                	li	a0,1
    636c:	332040ef          	jal	ra,a69e <__floatunsidf>
    6370:	872a                	mv	a4,a0
    6372:	87ae                	mv	a5,a1
    6374:	8d2e                	mv	s10,a1
    6376:	000c1663          	bnez	s8,6382 <_strtod_l+0xc06>
    637a:	80000d37          	lui	s10,0x80000
    637e:	00bd4d33          	xor	s10,s10,a1
    6382:	8daa                	mv	s11,a0
    6384:	06b005b7          	lui	a1,0x6b00
    6388:	9d2e                	add	s10,s10,a1
    638a:	419d0d33          	sub	s10,s10,s9
    638e:	4552                	lw	a0,20(sp)
    6390:	45e2                	lw	a1,24(sp)
    6392:	da3e                	sw	a5,52(sp)
    6394:	d23a                	sw	a4,36(sp)
    6396:	51a010ef          	jal	ra,78b0 <__ulp>
    639a:	862a                	mv	a2,a0
    639c:	86ae                	mv	a3,a1
    639e:	856e                	mv	a0,s11
    63a0:	85ea                	mv	a1,s10
    63a2:	5d0030ef          	jal	ra,9972 <__muldf3>
    63a6:	4652                	lw	a2,20(sp)
    63a8:	46e2                	lw	a3,24(sp)
    63aa:	716020ef          	jal	ra,8ac0 <__adddf3>
    63ae:	84aa                	mv	s1,a0
    63b0:	842e                	mv	s0,a1
    63b2:	57d2                	lw	a5,52(sp)
    63b4:	5712                	lw	a4,36(sp)
    63b6:	bf11                	j	62ca <_strtod_l+0xb4e>
    63b8:	00006797          	auipc	a5,0x6
    63bc:	1a078793          	addi	a5,a5,416 # c558 <__clz_tab+0x148>
    63c0:	4390                	lw	a2,0(a5)
    63c2:	43d4                	lw	a3,4(a5)
    63c4:	4f8030ef          	jal	ra,98bc <__ledf2>
    63c8:	e40559e3          	bgez	a0,621a <_strtod_l+0xa9e>
    63cc:	ba19                	j	5ce2 <_strtod_l+0x566>
    63ce:	06500713          	li	a4,101
    63d2:	00e78763          	beq	a5,a4,63e0 <_strtod_l+0xc64>
    63d6:	04500713          	li	a4,69
    63da:	4505                	li	a0,1
    63dc:	eee79963          	bne	a5,a4,5ace <_strtod_l+0x352>
    63e0:	4b01                	li	s6,0
    63e2:	4505                	li	a0,1
    63e4:	d84ff06f          	j	5968 <_strtod_l+0x1ec>

000063e8 <strtod>:
    63e8:	81818793          	addi	a5,gp,-2024 # 200004f0 <_impure_ptr>
    63ec:	439c                	lw	a5,0(a5)
    63ee:	862e                	mv	a2,a1
    63f0:	5394                	lw	a3,32(a5)
    63f2:	e689                	bnez	a3,63fc <strtod+0x14>
    63f4:	1fffa697          	auipc	a3,0x1fffa
    63f8:	f7868693          	addi	a3,a3,-136 # 2000036c <__global_locale>
    63fc:	85aa                	mv	a1,a0
    63fe:	853e                	mv	a0,a5
    6400:	b7cff06f          	j	577c <_strtod_l>

00006404 <__swbuf_r>:
    6404:	1101                	addi	sp,sp,-32
    6406:	cc22                	sw	s0,24(sp)
    6408:	ca26                	sw	s1,20(sp)
    640a:	c84a                	sw	s2,16(sp)
    640c:	ce06                	sw	ra,28(sp)
    640e:	c64e                	sw	s3,12(sp)
    6410:	84aa                	mv	s1,a0
    6412:	892e                	mv	s2,a1
    6414:	8432                	mv	s0,a2
    6416:	c501                	beqz	a0,641e <__swbuf_r+0x1a>
    6418:	4d1c                	lw	a5,24(a0)
    641a:	e391                	bnez	a5,641e <__swbuf_r+0x1a>
    641c:	2ed5                	jal	6810 <__sinit>
    641e:	00006797          	auipc	a5,0x6
    6422:	1c278793          	addi	a5,a5,450 # c5e0 <__sf_fake_stdin>
    6426:	06f41763          	bne	s0,a5,6494 <__swbuf_r+0x90>
    642a:	40c0                	lw	s0,4(s1)
    642c:	4c1c                	lw	a5,24(s0)
    642e:	c41c                	sw	a5,8(s0)
    6430:	245e                	lhu	a5,12(s0)
    6432:	8ba1                	andi	a5,a5,8
    6434:	c3c1                	beqz	a5,64b4 <__swbuf_r+0xb0>
    6436:	481c                	lw	a5,16(s0)
    6438:	cfb5                	beqz	a5,64b4 <__swbuf_r+0xb0>
    643a:	481c                	lw	a5,16(s0)
    643c:	4008                	lw	a0,0(s0)
    643e:	0ff97993          	andi	s3,s2,255
    6442:	0ff97913          	andi	s2,s2,255
    6446:	8d1d                	sub	a0,a0,a5
    6448:	485c                	lw	a5,20(s0)
    644a:	00f54663          	blt	a0,a5,6456 <__swbuf_r+0x52>
    644e:	85a2                	mv	a1,s0
    6450:	8526                	mv	a0,s1
    6452:	2445                	jal	66f2 <_fflush_r>
    6454:	e525                	bnez	a0,64bc <__swbuf_r+0xb8>
    6456:	441c                	lw	a5,8(s0)
    6458:	0505                	addi	a0,a0,1
    645a:	17fd                	addi	a5,a5,-1
    645c:	c41c                	sw	a5,8(s0)
    645e:	401c                	lw	a5,0(s0)
    6460:	00178713          	addi	a4,a5,1
    6464:	c018                	sw	a4,0(s0)
    6466:	01378023          	sb	s3,0(a5)
    646a:	485c                	lw	a5,20(s0)
    646c:	00a78863          	beq	a5,a0,647c <__swbuf_r+0x78>
    6470:	245e                	lhu	a5,12(s0)
    6472:	8b85                	andi	a5,a5,1
    6474:	cb81                	beqz	a5,6484 <__swbuf_r+0x80>
    6476:	47a9                	li	a5,10
    6478:	00f91663          	bne	s2,a5,6484 <__swbuf_r+0x80>
    647c:	85a2                	mv	a1,s0
    647e:	8526                	mv	a0,s1
    6480:	2c8d                	jal	66f2 <_fflush_r>
    6482:	ed0d                	bnez	a0,64bc <__swbuf_r+0xb8>
    6484:	40f2                	lw	ra,28(sp)
    6486:	4462                	lw	s0,24(sp)
    6488:	854a                	mv	a0,s2
    648a:	44d2                	lw	s1,20(sp)
    648c:	4942                	lw	s2,16(sp)
    648e:	49b2                	lw	s3,12(sp)
    6490:	6105                	addi	sp,sp,32
    6492:	8082                	ret
    6494:	00006797          	auipc	a5,0x6
    6498:	16c78793          	addi	a5,a5,364 # c600 <__sf_fake_stdout>
    649c:	00f41463          	bne	s0,a5,64a4 <__swbuf_r+0xa0>
    64a0:	4480                	lw	s0,8(s1)
    64a2:	b769                	j	642c <__swbuf_r+0x28>
    64a4:	00006797          	auipc	a5,0x6
    64a8:	11c78793          	addi	a5,a5,284 # c5c0 <__sf_fake_stderr>
    64ac:	f8f410e3          	bne	s0,a5,642c <__swbuf_r+0x28>
    64b0:	44c0                	lw	s0,12(s1)
    64b2:	bfad                	j	642c <__swbuf_r+0x28>
    64b4:	85a2                	mv	a1,s0
    64b6:	8526                	mv	a0,s1
    64b8:	2021                	jal	64c0 <__swsetup_r>
    64ba:	d141                	beqz	a0,643a <__swbuf_r+0x36>
    64bc:	597d                	li	s2,-1
    64be:	b7d9                	j	6484 <__swbuf_r+0x80>

000064c0 <__swsetup_r>:
    64c0:	1141                	addi	sp,sp,-16
    64c2:	81818793          	addi	a5,gp,-2024 # 200004f0 <_impure_ptr>
    64c6:	c226                	sw	s1,4(sp)
    64c8:	4384                	lw	s1,0(a5)
    64ca:	c422                	sw	s0,8(sp)
    64cc:	c04a                	sw	s2,0(sp)
    64ce:	c606                	sw	ra,12(sp)
    64d0:	892a                	mv	s2,a0
    64d2:	842e                	mv	s0,a1
    64d4:	c489                	beqz	s1,64de <__swsetup_r+0x1e>
    64d6:	4c9c                	lw	a5,24(s1)
    64d8:	e399                	bnez	a5,64de <__swsetup_r+0x1e>
    64da:	8526                	mv	a0,s1
    64dc:	2e15                	jal	6810 <__sinit>
    64de:	00006797          	auipc	a5,0x6
    64e2:	10278793          	addi	a5,a5,258 # c5e0 <__sf_fake_stdin>
    64e6:	02f41b63          	bne	s0,a5,651c <__swsetup_r+0x5c>
    64ea:	40c0                	lw	s0,4(s1)
    64ec:	00c41703          	lh	a4,12(s0) # 350000c <_data_lma+0x34f3720>
    64f0:	01071793          	slli	a5,a4,0x10
    64f4:	83c1                	srli	a5,a5,0x10
    64f6:	0087f693          	andi	a3,a5,8
    64fa:	eab5                	bnez	a3,656e <__swsetup_r+0xae>
    64fc:	0107f693          	andi	a3,a5,16
    6500:	ee95                	bnez	a3,653c <__swsetup_r+0x7c>
    6502:	47a5                	li	a5,9
    6504:	00f92023          	sw	a5,0(s2)
    6508:	04076713          	ori	a4,a4,64
    650c:	a45a                	sh	a4,12(s0)
    650e:	557d                	li	a0,-1
    6510:	40b2                	lw	ra,12(sp)
    6512:	4422                	lw	s0,8(sp)
    6514:	4492                	lw	s1,4(sp)
    6516:	4902                	lw	s2,0(sp)
    6518:	0141                	addi	sp,sp,16
    651a:	8082                	ret
    651c:	00006797          	auipc	a5,0x6
    6520:	0e478793          	addi	a5,a5,228 # c600 <__sf_fake_stdout>
    6524:	00f41463          	bne	s0,a5,652c <__swsetup_r+0x6c>
    6528:	4480                	lw	s0,8(s1)
    652a:	b7c9                	j	64ec <__swsetup_r+0x2c>
    652c:	00006797          	auipc	a5,0x6
    6530:	09478793          	addi	a5,a5,148 # c5c0 <__sf_fake_stderr>
    6534:	faf41ce3          	bne	s0,a5,64ec <__swsetup_r+0x2c>
    6538:	44c0                	lw	s0,12(s1)
    653a:	bf4d                	j	64ec <__swsetup_r+0x2c>
    653c:	8b91                	andi	a5,a5,4
    653e:	c785                	beqz	a5,6566 <__swsetup_r+0xa6>
    6540:	584c                	lw	a1,52(s0)
    6542:	c991                	beqz	a1,6556 <__swsetup_r+0x96>
    6544:	04440793          	addi	a5,s0,68
    6548:	00f58563          	beq	a1,a5,6552 <__swsetup_r+0x92>
    654c:	854a                	mv	a0,s2
    654e:	646010ef          	jal	ra,7b94 <_free_r>
    6552:	02042a23          	sw	zero,52(s0)
    6556:	245e                	lhu	a5,12(s0)
    6558:	00042223          	sw	zero,4(s0)
    655c:	fdb7f793          	andi	a5,a5,-37
    6560:	a45e                	sh	a5,12(s0)
    6562:	481c                	lw	a5,16(s0)
    6564:	c01c                	sw	a5,0(s0)
    6566:	245e                	lhu	a5,12(s0)
    6568:	0087e793          	ori	a5,a5,8
    656c:	a45e                	sh	a5,12(s0)
    656e:	481c                	lw	a5,16(s0)
    6570:	ef81                	bnez	a5,6588 <__swsetup_r+0xc8>
    6572:	245e                	lhu	a5,12(s0)
    6574:	20000713          	li	a4,512
    6578:	2807f793          	andi	a5,a5,640
    657c:	00e78663          	beq	a5,a4,6588 <__swsetup_r+0xc8>
    6580:	85a2                	mv	a1,s0
    6582:	854a                	mv	a0,s2
    6584:	39b000ef          	jal	ra,711e <__smakebuf_r>
    6588:	245e                	lhu	a5,12(s0)
    658a:	0017f713          	andi	a4,a5,1
    658e:	c31d                	beqz	a4,65b4 <__swsetup_r+0xf4>
    6590:	485c                	lw	a5,20(s0)
    6592:	00042423          	sw	zero,8(s0)
    6596:	40f007b3          	neg	a5,a5
    659a:	cc1c                	sw	a5,24(s0)
    659c:	481c                	lw	a5,16(s0)
    659e:	4501                	li	a0,0
    65a0:	fba5                	bnez	a5,6510 <__swsetup_r+0x50>
    65a2:	00c41783          	lh	a5,12(s0)
    65a6:	0807f713          	andi	a4,a5,128
    65aa:	d33d                	beqz	a4,6510 <__swsetup_r+0x50>
    65ac:	0407e793          	ori	a5,a5,64
    65b0:	a45e                	sh	a5,12(s0)
    65b2:	bfb1                	j	650e <__swsetup_r+0x4e>
    65b4:	8b89                	andi	a5,a5,2
    65b6:	4701                	li	a4,0
    65b8:	e391                	bnez	a5,65bc <__swsetup_r+0xfc>
    65ba:	4858                	lw	a4,20(s0)
    65bc:	c418                	sw	a4,8(s0)
    65be:	bff9                	j	659c <__swsetup_r+0xdc>

000065c0 <__sflush_r>:
    65c0:	25de                	lhu	a5,12(a1)
    65c2:	1101                	addi	sp,sp,-32
    65c4:	cc22                	sw	s0,24(sp)
    65c6:	ca26                	sw	s1,20(sp)
    65c8:	ce06                	sw	ra,28(sp)
    65ca:	c84a                	sw	s2,16(sp)
    65cc:	c64e                	sw	s3,12(sp)
    65ce:	0087f713          	andi	a4,a5,8
    65d2:	84aa                	mv	s1,a0
    65d4:	842e                	mv	s0,a1
    65d6:	ef61                	bnez	a4,66ae <__sflush_r+0xee>
    65d8:	41d8                	lw	a4,4(a1)
    65da:	00e04d63          	bgtz	a4,65f4 <__sflush_r+0x34>
    65de:	41b8                	lw	a4,64(a1)
    65e0:	00e04a63          	bgtz	a4,65f4 <__sflush_r+0x34>
    65e4:	4501                	li	a0,0
    65e6:	40f2                	lw	ra,28(sp)
    65e8:	4462                	lw	s0,24(sp)
    65ea:	44d2                	lw	s1,20(sp)
    65ec:	4942                	lw	s2,16(sp)
    65ee:	49b2                	lw	s3,12(sp)
    65f0:	6105                	addi	sp,sp,32
    65f2:	8082                	ret
    65f4:	5458                	lw	a4,44(s0)
    65f6:	d77d                	beqz	a4,65e4 <__sflush_r+0x24>
    65f8:	0004a903          	lw	s2,0(s1)
    65fc:	01379693          	slli	a3,a5,0x13
    6600:	0004a023          	sw	zero,0(s1)
    6604:	0606dc63          	bgez	a3,667c <__sflush_r+0xbc>
    6608:	4870                	lw	a2,84(s0)
    660a:	245e                	lhu	a5,12(s0)
    660c:	8b91                	andi	a5,a5,4
    660e:	c799                	beqz	a5,661c <__sflush_r+0x5c>
    6610:	405c                	lw	a5,4(s0)
    6612:	8e1d                	sub	a2,a2,a5
    6614:	585c                	lw	a5,52(s0)
    6616:	c399                	beqz	a5,661c <__sflush_r+0x5c>
    6618:	403c                	lw	a5,64(s0)
    661a:	8e1d                	sub	a2,a2,a5
    661c:	545c                	lw	a5,44(s0)
    661e:	500c                	lw	a1,32(s0)
    6620:	4681                	li	a3,0
    6622:	8526                	mv	a0,s1
    6624:	9782                	jalr	a5
    6626:	57fd                	li	a5,-1
    6628:	245a                	lhu	a4,12(s0)
    662a:	00f51d63          	bne	a0,a5,6644 <__sflush_r+0x84>
    662e:	4094                	lw	a3,0(s1)
    6630:	47f5                	li	a5,29
    6632:	06d7e963          	bltu	a5,a3,66a4 <__sflush_r+0xe4>
    6636:	204007b7          	lui	a5,0x20400
    663a:	0785                	addi	a5,a5,1
    663c:	00d7d7b3          	srl	a5,a5,a3
    6640:	8b85                	andi	a5,a5,1
    6642:	c3ad                	beqz	a5,66a4 <__sflush_r+0xe4>
    6644:	481c                	lw	a5,16(s0)
    6646:	00042223          	sw	zero,4(s0)
    664a:	c01c                	sw	a5,0(s0)
    664c:	01371793          	slli	a5,a4,0x13
    6650:	0007d863          	bgez	a5,6660 <__sflush_r+0xa0>
    6654:	57fd                	li	a5,-1
    6656:	00f51463          	bne	a0,a5,665e <__sflush_r+0x9e>
    665a:	409c                	lw	a5,0(s1)
    665c:	e391                	bnez	a5,6660 <__sflush_r+0xa0>
    665e:	c868                	sw	a0,84(s0)
    6660:	584c                	lw	a1,52(s0)
    6662:	0124a023          	sw	s2,0(s1)
    6666:	ddbd                	beqz	a1,65e4 <__sflush_r+0x24>
    6668:	04440793          	addi	a5,s0,68
    666c:	00f58563          	beq	a1,a5,6676 <__sflush_r+0xb6>
    6670:	8526                	mv	a0,s1
    6672:	522010ef          	jal	ra,7b94 <_free_r>
    6676:	02042a23          	sw	zero,52(s0)
    667a:	b7ad                	j	65e4 <__sflush_r+0x24>
    667c:	500c                	lw	a1,32(s0)
    667e:	4601                	li	a2,0
    6680:	4685                	li	a3,1
    6682:	8526                	mv	a0,s1
    6684:	9702                	jalr	a4
    6686:	57fd                	li	a5,-1
    6688:	862a                	mv	a2,a0
    668a:	f8f510e3          	bne	a0,a5,660a <__sflush_r+0x4a>
    668e:	409c                	lw	a5,0(s1)
    6690:	dfad                	beqz	a5,660a <__sflush_r+0x4a>
    6692:	4775                	li	a4,29
    6694:	00e78563          	beq	a5,a4,669e <__sflush_r+0xde>
    6698:	4759                	li	a4,22
    669a:	04e79363          	bne	a5,a4,66e0 <__sflush_r+0x120>
    669e:	0124a023          	sw	s2,0(s1)
    66a2:	b789                	j	65e4 <__sflush_r+0x24>
    66a4:	04076713          	ori	a4,a4,64
    66a8:	a45a                	sh	a4,12(s0)
    66aa:	557d                	li	a0,-1
    66ac:	bf2d                	j	65e6 <__sflush_r+0x26>
    66ae:	0105a983          	lw	s3,16(a1) # 6b00010 <_data_lma+0x6af3724>
    66b2:	f20989e3          	beqz	s3,65e4 <__sflush_r+0x24>
    66b6:	0005a903          	lw	s2,0(a1)
    66ba:	8b8d                	andi	a5,a5,3
    66bc:	0135a023          	sw	s3,0(a1)
    66c0:	41390933          	sub	s2,s2,s3
    66c4:	4701                	li	a4,0
    66c6:	e391                	bnez	a5,66ca <__sflush_r+0x10a>
    66c8:	49d8                	lw	a4,20(a1)
    66ca:	c418                	sw	a4,8(s0)
    66cc:	f1205ce3          	blez	s2,65e4 <__sflush_r+0x24>
    66d0:	541c                	lw	a5,40(s0)
    66d2:	500c                	lw	a1,32(s0)
    66d4:	86ca                	mv	a3,s2
    66d6:	864e                	mv	a2,s3
    66d8:	8526                	mv	a0,s1
    66da:	9782                	jalr	a5
    66dc:	00a04763          	bgtz	a0,66ea <__sflush_r+0x12a>
    66e0:	245e                	lhu	a5,12(s0)
    66e2:	0407e793          	ori	a5,a5,64
    66e6:	a45e                	sh	a5,12(s0)
    66e8:	b7c9                	j	66aa <__sflush_r+0xea>
    66ea:	99aa                	add	s3,s3,a0
    66ec:	40a90933          	sub	s2,s2,a0
    66f0:	bff1                	j	66cc <__sflush_r+0x10c>

000066f2 <_fflush_r>:
    66f2:	499c                	lw	a5,16(a1)
    66f4:	c3a5                	beqz	a5,6754 <_fflush_r+0x62>
    66f6:	1101                	addi	sp,sp,-32
    66f8:	cc22                	sw	s0,24(sp)
    66fa:	ce06                	sw	ra,28(sp)
    66fc:	842a                	mv	s0,a0
    66fe:	c511                	beqz	a0,670a <_fflush_r+0x18>
    6700:	4d1c                	lw	a5,24(a0)
    6702:	e781                	bnez	a5,670a <_fflush_r+0x18>
    6704:	c62e                	sw	a1,12(sp)
    6706:	2229                	jal	6810 <__sinit>
    6708:	45b2                	lw	a1,12(sp)
    670a:	00006797          	auipc	a5,0x6
    670e:	ed678793          	addi	a5,a5,-298 # c5e0 <__sf_fake_stdin>
    6712:	00f59c63          	bne	a1,a5,672a <_fflush_r+0x38>
    6716:	404c                	lw	a1,4(s0)
    6718:	00c59783          	lh	a5,12(a1)
    671c:	c79d                	beqz	a5,674a <_fflush_r+0x58>
    671e:	8522                	mv	a0,s0
    6720:	4462                	lw	s0,24(sp)
    6722:	40f2                	lw	ra,28(sp)
    6724:	6105                	addi	sp,sp,32
    6726:	e9bff06f          	j	65c0 <__sflush_r>
    672a:	00006797          	auipc	a5,0x6
    672e:	ed678793          	addi	a5,a5,-298 # c600 <__sf_fake_stdout>
    6732:	00f59463          	bne	a1,a5,673a <_fflush_r+0x48>
    6736:	440c                	lw	a1,8(s0)
    6738:	b7c5                	j	6718 <_fflush_r+0x26>
    673a:	00006797          	auipc	a5,0x6
    673e:	e8678793          	addi	a5,a5,-378 # c5c0 <__sf_fake_stderr>
    6742:	fcf59be3          	bne	a1,a5,6718 <_fflush_r+0x26>
    6746:	444c                	lw	a1,12(s0)
    6748:	bfc1                	j	6718 <_fflush_r+0x26>
    674a:	40f2                	lw	ra,28(sp)
    674c:	4462                	lw	s0,24(sp)
    674e:	4501                	li	a0,0
    6750:	6105                	addi	sp,sp,32
    6752:	8082                	ret
    6754:	4501                	li	a0,0
    6756:	8082                	ret

00006758 <std>:
    6758:	1141                	addi	sp,sp,-16
    675a:	c422                	sw	s0,8(sp)
    675c:	c606                	sw	ra,12(sp)
    675e:	842a                	mv	s0,a0
    6760:	a54e                	sh	a1,12(a0)
    6762:	a572                	sh	a2,14(a0)
    6764:	00052023          	sw	zero,0(a0)
    6768:	00052223          	sw	zero,4(a0)
    676c:	00052423          	sw	zero,8(a0)
    6770:	06052223          	sw	zero,100(a0)
    6774:	00052823          	sw	zero,16(a0)
    6778:	00052a23          	sw	zero,20(a0)
    677c:	00052c23          	sw	zero,24(a0)
    6780:	4621                	li	a2,8
    6782:	4581                	li	a1,0
    6784:	05c50513          	addi	a0,a0,92
    6788:	a99f90ef          	jal	ra,220 <memset>
    678c:	00002797          	auipc	a5,0x2
    6790:	03078793          	addi	a5,a5,48 # 87bc <__sread>
    6794:	d05c                	sw	a5,36(s0)
    6796:	00002797          	auipc	a5,0x2
    679a:	05278793          	addi	a5,a5,82 # 87e8 <__swrite>
    679e:	d41c                	sw	a5,40(s0)
    67a0:	00002797          	auipc	a5,0x2
    67a4:	09078793          	addi	a5,a5,144 # 8830 <__sseek>
    67a8:	d45c                	sw	a5,44(s0)
    67aa:	00002797          	auipc	a5,0x2
    67ae:	0b678793          	addi	a5,a5,182 # 8860 <__sclose>
    67b2:	d000                	sw	s0,32(s0)
    67b4:	d81c                	sw	a5,48(s0)
    67b6:	40b2                	lw	ra,12(sp)
    67b8:	4422                	lw	s0,8(sp)
    67ba:	0141                	addi	sp,sp,16
    67bc:	8082                	ret

000067be <_cleanup_r>:
    67be:	00000597          	auipc	a1,0x0
    67c2:	f3458593          	addi	a1,a1,-204 # 66f2 <_fflush_r>
    67c6:	aa99                	j	691c <_fwalk_reent>

000067c8 <__sfmoreglue>:
    67c8:	1141                	addi	sp,sp,-16
    67ca:	c226                	sw	s1,4(sp)
    67cc:	06800613          	li	a2,104
    67d0:	fff58493          	addi	s1,a1,-1
    67d4:	02c484b3          	mul	s1,s1,a2
    67d8:	c04a                	sw	s2,0(sp)
    67da:	892e                	mv	s2,a1
    67dc:	c422                	sw	s0,8(sp)
    67de:	c606                	sw	ra,12(sp)
    67e0:	07448593          	addi	a1,s1,116
    67e4:	458010ef          	jal	ra,7c3c <_malloc_r>
    67e8:	842a                	mv	s0,a0
    67ea:	cd01                	beqz	a0,6802 <__sfmoreglue+0x3a>
    67ec:	00052023          	sw	zero,0(a0)
    67f0:	01252223          	sw	s2,4(a0)
    67f4:	0531                	addi	a0,a0,12
    67f6:	c408                	sw	a0,8(s0)
    67f8:	06848613          	addi	a2,s1,104
    67fc:	4581                	li	a1,0
    67fe:	a23f90ef          	jal	ra,220 <memset>
    6802:	8522                	mv	a0,s0
    6804:	40b2                	lw	ra,12(sp)
    6806:	4422                	lw	s0,8(sp)
    6808:	4492                	lw	s1,4(sp)
    680a:	4902                	lw	s2,0(sp)
    680c:	0141                	addi	sp,sp,16
    680e:	8082                	ret

00006810 <__sinit>:
    6810:	4d1c                	lw	a5,24(a0)
    6812:	e7a5                	bnez	a5,687a <__sinit+0x6a>
    6814:	1141                	addi	sp,sp,-16
    6816:	c606                	sw	ra,12(sp)
    6818:	c422                	sw	s0,8(sp)
    681a:	00000797          	auipc	a5,0x0
    681e:	fa478793          	addi	a5,a5,-92 # 67be <_cleanup_r>
    6822:	d51c                	sw	a5,40(a0)
    6824:	81c18793          	addi	a5,gp,-2020 # 200004f4 <_global_impure_ptr>
    6828:	439c                	lw	a5,0(a5)
    682a:	04052423          	sw	zero,72(a0)
    682e:	04052623          	sw	zero,76(a0)
    6832:	04052823          	sw	zero,80(a0)
    6836:	00f51463          	bne	a0,a5,683e <__sinit+0x2e>
    683a:	4785                	li	a5,1
    683c:	cd1c                	sw	a5,24(a0)
    683e:	842a                	mv	s0,a0
    6840:	2835                	jal	687c <__sfp>
    6842:	c048                	sw	a0,4(s0)
    6844:	8522                	mv	a0,s0
    6846:	281d                	jal	687c <__sfp>
    6848:	c408                	sw	a0,8(s0)
    684a:	8522                	mv	a0,s0
    684c:	2805                	jal	687c <__sfp>
    684e:	c448                	sw	a0,12(s0)
    6850:	4048                	lw	a0,4(s0)
    6852:	4601                	li	a2,0
    6854:	4591                	li	a1,4
    6856:	f03ff0ef          	jal	ra,6758 <std>
    685a:	4408                	lw	a0,8(s0)
    685c:	4605                	li	a2,1
    685e:	45a5                	li	a1,9
    6860:	ef9ff0ef          	jal	ra,6758 <std>
    6864:	4448                	lw	a0,12(s0)
    6866:	4609                	li	a2,2
    6868:	45c9                	li	a1,18
    686a:	eefff0ef          	jal	ra,6758 <std>
    686e:	4785                	li	a5,1
    6870:	cc1c                	sw	a5,24(s0)
    6872:	40b2                	lw	ra,12(sp)
    6874:	4422                	lw	s0,8(sp)
    6876:	0141                	addi	sp,sp,16
    6878:	8082                	ret
    687a:	8082                	ret

0000687c <__sfp>:
    687c:	1141                	addi	sp,sp,-16
    687e:	81c18793          	addi	a5,gp,-2020 # 200004f4 <_global_impure_ptr>
    6882:	c226                	sw	s1,4(sp)
    6884:	4384                	lw	s1,0(a5)
    6886:	c04a                	sw	s2,0(sp)
    6888:	c606                	sw	ra,12(sp)
    688a:	4c9c                	lw	a5,24(s1)
    688c:	c422                	sw	s0,8(sp)
    688e:	892a                	mv	s2,a0
    6890:	e781                	bnez	a5,6898 <__sfp+0x1c>
    6892:	8526                	mv	a0,s1
    6894:	f7dff0ef          	jal	ra,6810 <__sinit>
    6898:	04848493          	addi	s1,s1,72
    689c:	4480                	lw	s0,8(s1)
    689e:	40dc                	lw	a5,4(s1)
    68a0:	17fd                	addi	a5,a5,-1
    68a2:	0007d663          	bgez	a5,68ae <__sfp+0x32>
    68a6:	409c                	lw	a5,0(s1)
    68a8:	cfb9                	beqz	a5,6906 <__sfp+0x8a>
    68aa:	4084                	lw	s1,0(s1)
    68ac:	bfc5                	j	689c <__sfp+0x20>
    68ae:	00c41703          	lh	a4,12(s0)
    68b2:	e739                	bnez	a4,6900 <__sfp+0x84>
    68b4:	77c1                	lui	a5,0xffff0
    68b6:	0785                	addi	a5,a5,1
    68b8:	06042223          	sw	zero,100(s0)
    68bc:	00042023          	sw	zero,0(s0)
    68c0:	00042223          	sw	zero,4(s0)
    68c4:	00042423          	sw	zero,8(s0)
    68c8:	c45c                	sw	a5,12(s0)
    68ca:	00042823          	sw	zero,16(s0)
    68ce:	00042a23          	sw	zero,20(s0)
    68d2:	00042c23          	sw	zero,24(s0)
    68d6:	4621                	li	a2,8
    68d8:	4581                	li	a1,0
    68da:	05c40513          	addi	a0,s0,92
    68de:	943f90ef          	jal	ra,220 <memset>
    68e2:	02042a23          	sw	zero,52(s0)
    68e6:	02042c23          	sw	zero,56(s0)
    68ea:	04042423          	sw	zero,72(s0)
    68ee:	04042623          	sw	zero,76(s0)
    68f2:	8522                	mv	a0,s0
    68f4:	40b2                	lw	ra,12(sp)
    68f6:	4422                	lw	s0,8(sp)
    68f8:	4492                	lw	s1,4(sp)
    68fa:	4902                	lw	s2,0(sp)
    68fc:	0141                	addi	sp,sp,16
    68fe:	8082                	ret
    6900:	06840413          	addi	s0,s0,104
    6904:	bf71                	j	68a0 <__sfp+0x24>
    6906:	4591                	li	a1,4
    6908:	854a                	mv	a0,s2
    690a:	ebfff0ef          	jal	ra,67c8 <__sfmoreglue>
    690e:	c088                	sw	a0,0(s1)
    6910:	fd49                	bnez	a0,68aa <__sfp+0x2e>
    6912:	47b1                	li	a5,12
    6914:	00f92023          	sw	a5,0(s2)
    6918:	4401                	li	s0,0
    691a:	bfe1                	j	68f2 <__sfp+0x76>

0000691c <_fwalk_reent>:
    691c:	7179                	addi	sp,sp,-48
    691e:	d422                	sw	s0,40(sp)
    6920:	d04a                	sw	s2,32(sp)
    6922:	cc52                	sw	s4,24(sp)
    6924:	ca56                	sw	s5,20(sp)
    6926:	c85a                	sw	s6,16(sp)
    6928:	c65e                	sw	s7,12(sp)
    692a:	d606                	sw	ra,44(sp)
    692c:	d226                	sw	s1,36(sp)
    692e:	ce4e                	sw	s3,28(sp)
    6930:	8a2a                	mv	s4,a0
    6932:	8aae                	mv	s5,a1
    6934:	04850413          	addi	s0,a0,72
    6938:	4901                	li	s2,0
    693a:	4b05                	li	s6,1
    693c:	5bfd                	li	s7,-1
    693e:	ec09                	bnez	s0,6958 <_fwalk_reent+0x3c>
    6940:	50b2                	lw	ra,44(sp)
    6942:	5422                	lw	s0,40(sp)
    6944:	854a                	mv	a0,s2
    6946:	5492                	lw	s1,36(sp)
    6948:	5902                	lw	s2,32(sp)
    694a:	49f2                	lw	s3,28(sp)
    694c:	4a62                	lw	s4,24(sp)
    694e:	4ad2                	lw	s5,20(sp)
    6950:	4b42                	lw	s6,16(sp)
    6952:	4bb2                	lw	s7,12(sp)
    6954:	6145                	addi	sp,sp,48
    6956:	8082                	ret
    6958:	4404                	lw	s1,8(s0)
    695a:	00442983          	lw	s3,4(s0)
    695e:	19fd                	addi	s3,s3,-1
    6960:	0009d463          	bgez	s3,6968 <_fwalk_reent+0x4c>
    6964:	4000                	lw	s0,0(s0)
    6966:	bfe1                	j	693e <_fwalk_reent+0x22>
    6968:	24de                	lhu	a5,12(s1)
    696a:	00fb7b63          	bgeu	s6,a5,6980 <_fwalk_reent+0x64>
    696e:	00e49783          	lh	a5,14(s1)
    6972:	01778763          	beq	a5,s7,6980 <_fwalk_reent+0x64>
    6976:	85a6                	mv	a1,s1
    6978:	8552                	mv	a0,s4
    697a:	9a82                	jalr	s5
    697c:	00a96933          	or	s2,s2,a0
    6980:	06848493          	addi	s1,s1,104
    6984:	bfe9                	j	695e <_fwalk_reent+0x42>

00006986 <rshift>:
    6986:	4910                	lw	a2,16(a0)
    6988:	01450693          	addi	a3,a0,20
    698c:	4055d713          	srai	a4,a1,0x5
    6990:	87b6                	mv	a5,a3
    6992:	02c75663          	bge	a4,a2,69be <rshift+0x38>
    6996:	060a                	slli	a2,a2,0x2
    6998:	070a                	slli	a4,a4,0x2
    699a:	89fd                	andi	a1,a1,31
    699c:	9636                	add	a2,a2,a3
    699e:	9736                	add	a4,a4,a3
    69a0:	c9b9                	beqz	a1,69f6 <rshift+0x70>
    69a2:	00470813          	addi	a6,a4,4 # 100004 <_data_lma+0xf3718>
    69a6:	4318                	lw	a4,0(a4)
    69a8:	02000313          	li	t1,32
    69ac:	40b30333          	sub	t1,t1,a1
    69b0:	00b75733          	srl	a4,a4,a1
    69b4:	00c86e63          	bltu	a6,a2,69d0 <rshift+0x4a>
    69b8:	c398                	sw	a4,0(a5)
    69ba:	c311                	beqz	a4,69be <rshift+0x38>
    69bc:	0791                	addi	a5,a5,4
    69be:	40d78733          	sub	a4,a5,a3
    69c2:	8709                	srai	a4,a4,0x2
    69c4:	c918                	sw	a4,16(a0)
    69c6:	00d79463          	bne	a5,a3,69ce <rshift+0x48>
    69ca:	00052a23          	sw	zero,20(a0)
    69ce:	8082                	ret
    69d0:	00082883          	lw	a7,0(a6)
    69d4:	0791                	addi	a5,a5,4
    69d6:	0811                	addi	a6,a6,4
    69d8:	006898b3          	sll	a7,a7,t1
    69dc:	00e8e733          	or	a4,a7,a4
    69e0:	fee7ae23          	sw	a4,-4(a5) # fffefffc <_eusrstack+0xdffe7ffc>
    69e4:	ffc82703          	lw	a4,-4(a6)
    69e8:	b7e1                	j	69b0 <rshift+0x2a>
    69ea:	0711                	addi	a4,a4,4
    69ec:	ffc72583          	lw	a1,-4(a4)
    69f0:	0791                	addi	a5,a5,4
    69f2:	feb7ae23          	sw	a1,-4(a5)
    69f6:	fec76ae3          	bltu	a4,a2,69ea <rshift+0x64>
    69fa:	b7d1                	j	69be <rshift+0x38>

000069fc <__hexdig_fun>:
    69fc:	fd050793          	addi	a5,a0,-48
    6a00:	0ff7f793          	andi	a5,a5,255
    6a04:	4725                	li	a4,9
    6a06:	00f76763          	bltu	a4,a5,6a14 <__hexdig_fun+0x18>
    6a0a:	1501                	addi	a0,a0,-32
    6a0c:	0ff57793          	andi	a5,a0,255
    6a10:	853e                	mv	a0,a5
    6a12:	8082                	ret
    6a14:	f9f50793          	addi	a5,a0,-97
    6a18:	0ff7f793          	andi	a5,a5,255
    6a1c:	4695                	li	a3,5
    6a1e:	00f6e563          	bltu	a3,a5,6a28 <__hexdig_fun+0x2c>
    6a22:	fb950513          	addi	a0,a0,-71
    6a26:	b7dd                	j	6a0c <__hexdig_fun+0x10>
    6a28:	fbf50713          	addi	a4,a0,-65
    6a2c:	0ff77713          	andi	a4,a4,255
    6a30:	4781                	li	a5,0
    6a32:	fce6efe3          	bltu	a3,a4,6a10 <__hexdig_fun+0x14>
    6a36:	fd950513          	addi	a0,a0,-39
    6a3a:	bfc9                	j	6a0c <__hexdig_fun+0x10>

00006a3c <__gethex>:
    6a3c:	711d                	addi	sp,sp,-96
    6a3e:	c2d6                	sw	s5,68(sp)
    6a40:	8aaa                	mv	s5,a0
    6a42:	8542                	mv	a0,a6
    6a44:	c636                	sw	a3,12(sp)
    6a46:	c23a                	sw	a4,4(sp)
    6a48:	ce86                	sw	ra,92(sp)
    6a4a:	c8ca                	sw	s2,80(sp)
    6a4c:	c4d2                	sw	s4,72(sp)
    6a4e:	c0da                	sw	s6,64(sp)
    6a50:	de5e                	sw	s7,60(sp)
    6a52:	8b3e                	mv	s6,a5
    6a54:	d66e                	sw	s11,44(sp)
    6a56:	8932                	mv	s2,a2
    6a58:	8dae                	mv	s11,a1
    6a5a:	cca2                	sw	s0,88(sp)
    6a5c:	caa6                	sw	s1,84(sp)
    6a5e:	c6ce                	sw	s3,76(sp)
    6a60:	dc62                	sw	s8,56(sp)
    6a62:	da66                	sw	s9,52(sp)
    6a64:	d86a                	sw	s10,48(sp)
    6a66:	2da9                	jal	70c0 <__localeconv_l>
    6a68:	00052b83          	lw	s7,0(a0)
    6a6c:	855e                	mv	a0,s7
    6a6e:	c7bfe0ef          	jal	ra,56e8 <strlen>
    6a72:	00ab87b3          	add	a5,s7,a0
    6a76:	000da683          	lw	a3,0(s11)
    6a7a:	fff7c783          	lbu	a5,-1(a5)
    6a7e:	5779                	li	a4,-2
    6a80:	8f15                	sub	a4,a4,a3
    6a82:	c83e                	sw	a5,16(sp)
    6a84:	8a2a                	mv	s4,a0
    6a86:	00268793          	addi	a5,a3,2
    6a8a:	03000693          	li	a3,48
    6a8e:	00f70633          	add	a2,a4,a5
    6a92:	84be                	mv	s1,a5
    6a94:	0785                	addi	a5,a5,1
    6a96:	fff7c503          	lbu	a0,-1(a5)
    6a9a:	c432                	sw	a2,8(sp)
    6a9c:	fed509e3          	beq	a0,a3,6a8e <__gethex+0x52>
    6aa0:	f5dff0ef          	jal	ra,69fc <__hexdig_fun>
    6aa4:	10051e63          	bnez	a0,6bc0 <__gethex+0x184>
    6aa8:	8652                	mv	a2,s4
    6aaa:	85de                	mv	a1,s7
    6aac:	8526                	mv	a0,s1
    6aae:	5b9010ef          	jal	ra,8866 <strncmp>
    6ab2:	10051c63          	bnez	a0,6bca <__gethex+0x18e>
    6ab6:	01448c33          	add	s8,s1,s4
    6aba:	000c4503          	lbu	a0,0(s8)
    6abe:	f3fff0ef          	jal	ra,69fc <__hexdig_fun>
    6ac2:	10050563          	beqz	a0,6bcc <__gethex+0x190>
    6ac6:	84e2                	mv	s1,s8
    6ac8:	03000793          	li	a5,48
    6acc:	2088                	lbu	a0,0(s1)
    6ace:	00f50b63          	beq	a0,a5,6ae4 <__gethex+0xa8>
    6ad2:	f2bff0ef          	jal	ra,69fc <__hexdig_fun>
    6ad6:	4785                	li	a5,1
    6ad8:	00153993          	seqz	s3,a0
    6adc:	8ce2                	mv	s9,s8
    6ade:	c43e                	sw	a5,8(sp)
    6ae0:	8c26                	mv	s8,s1
    6ae2:	a021                	j	6aea <__gethex+0xae>
    6ae4:	0485                	addi	s1,s1,1
    6ae6:	b7dd                	j	6acc <__gethex+0x90>
    6ae8:	0c05                	addi	s8,s8,1
    6aea:	000c4503          	lbu	a0,0(s8)
    6aee:	f0fff0ef          	jal	ra,69fc <__hexdig_fun>
    6af2:	f97d                	bnez	a0,6ae8 <__gethex+0xac>
    6af4:	8652                	mv	a2,s4
    6af6:	85de                	mv	a1,s7
    6af8:	8562                	mv	a0,s8
    6afa:	56d010ef          	jal	ra,8866 <strncmp>
    6afe:	e911                	bnez	a0,6b12 <__gethex+0xd6>
    6b00:	000c9c63          	bnez	s9,6b18 <__gethex+0xdc>
    6b04:	9c52                	add	s8,s8,s4
    6b06:	8ce2                	mv	s9,s8
    6b08:	000c4503          	lbu	a0,0(s8)
    6b0c:	ef1ff0ef          	jal	ra,69fc <__hexdig_fun>
    6b10:	e95d                	bnez	a0,6bc6 <__gethex+0x18a>
    6b12:	4401                	li	s0,0
    6b14:	000c8563          	beqz	s9,6b1e <__gethex+0xe2>
    6b18:	418c8433          	sub	s0,s9,s8
    6b1c:	040a                	slli	s0,s0,0x2
    6b1e:	000c4783          	lbu	a5,0(s8)
    6b22:	05000713          	li	a4,80
    6b26:	00e78763          	beq	a5,a4,6b34 <__gethex+0xf8>
    6b2a:	07000613          	li	a2,112
    6b2e:	8ce2                	mv	s9,s8
    6b30:	06c79063          	bne	a5,a2,6b90 <__gethex+0x154>
    6b34:	001c4783          	lbu	a5,1(s8)
    6b38:	02b00713          	li	a4,43
    6b3c:	08e78b63          	beq	a5,a4,6bd2 <__gethex+0x196>
    6b40:	02d00713          	li	a4,45
    6b44:	08e78b63          	beq	a5,a4,6bda <__gethex+0x19e>
    6b48:	001c0c93          	addi	s9,s8,1
    6b4c:	4d01                	li	s10,0
    6b4e:	000cc503          	lbu	a0,0(s9)
    6b52:	eabff0ef          	jal	ra,69fc <__hexdig_fun>
    6b56:	fff50793          	addi	a5,a0,-1
    6b5a:	0ff7f793          	andi	a5,a5,255
    6b5e:	45e1                	li	a1,24
    6b60:	08f5e463          	bltu	a1,a5,6be8 <__gethex+0x1ac>
    6b64:	ff050793          	addi	a5,a0,-16
    6b68:	0c85                	addi	s9,s9,1
    6b6a:	000cc503          	lbu	a0,0(s9)
    6b6e:	ca3e                	sw	a5,20(sp)
    6b70:	e8dff0ef          	jal	ra,69fc <__hexdig_fun>
    6b74:	fff50593          	addi	a1,a0,-1
    6b78:	0ff5f593          	andi	a1,a1,255
    6b7c:	4861                	li	a6,24
    6b7e:	47d2                	lw	a5,20(sp)
    6b80:	48a9                	li	a7,10
    6b82:	04b87e63          	bgeu	a6,a1,6bde <__gethex+0x1a2>
    6b86:	000d0463          	beqz	s10,6b8e <__gethex+0x152>
    6b8a:	40f007b3          	neg	a5,a5
    6b8e:	943e                	add	s0,s0,a5
    6b90:	019da023          	sw	s9,0(s11)
    6b94:	04098c63          	beqz	s3,6bec <__gethex+0x1b0>
    6b98:	47a2                	lw	a5,8(sp)
    6b9a:	4481                	li	s1,0
    6b9c:	e391                	bnez	a5,6ba0 <__gethex+0x164>
    6b9e:	4499                	li	s1,6
    6ba0:	40f6                	lw	ra,92(sp)
    6ba2:	4466                	lw	s0,88(sp)
    6ba4:	8526                	mv	a0,s1
    6ba6:	4946                	lw	s2,80(sp)
    6ba8:	44d6                	lw	s1,84(sp)
    6baa:	49b6                	lw	s3,76(sp)
    6bac:	4a26                	lw	s4,72(sp)
    6bae:	4a96                	lw	s5,68(sp)
    6bb0:	4b06                	lw	s6,64(sp)
    6bb2:	5bf2                	lw	s7,60(sp)
    6bb4:	5c62                	lw	s8,56(sp)
    6bb6:	5cd2                	lw	s9,52(sp)
    6bb8:	5d42                	lw	s10,48(sp)
    6bba:	5db2                	lw	s11,44(sp)
    6bbc:	6125                	addi	sp,sp,96
    6bbe:	8082                	ret
    6bc0:	4981                	li	s3,0
    6bc2:	4c81                	li	s9,0
    6bc4:	bf31                	j	6ae0 <__gethex+0xa4>
    6bc6:	0c05                	addi	s8,s8,1
    6bc8:	b781                	j	6b08 <__gethex+0xcc>
    6bca:	8c26                	mv	s8,s1
    6bcc:	4401                	li	s0,0
    6bce:	4985                	li	s3,1
    6bd0:	b7b9                	j	6b1e <__gethex+0xe2>
    6bd2:	4d01                	li	s10,0
    6bd4:	002c0c93          	addi	s9,s8,2
    6bd8:	bf9d                	j	6b4e <__gethex+0x112>
    6bda:	4d05                	li	s10,1
    6bdc:	bfe5                	j	6bd4 <__gethex+0x198>
    6bde:	031787b3          	mul	a5,a5,a7
    6be2:	97aa                	add	a5,a5,a0
    6be4:	17c1                	addi	a5,a5,-16
    6be6:	b749                	j	6b68 <__gethex+0x12c>
    6be8:	8ce2                	mv	s9,s8
    6bea:	b75d                	j	6b90 <__gethex+0x154>
    6bec:	409c07b3          	sub	a5,s8,s1
    6bf0:	17fd                	addi	a5,a5,-1
    6bf2:	4581                	li	a1,0
    6bf4:	471d                	li	a4,7
    6bf6:	0af74463          	blt	a4,a5,6c9e <__gethex+0x262>
    6bfa:	8556                	mv	a0,s5
    6bfc:	23e5                	jal	71e4 <_Balloc>
    6bfe:	4605                	li	a2,1
    6c00:	01450993          	addi	s3,a0,20
    6c04:	414607b3          	sub	a5,a2,s4
    6c08:	8daa                	mv	s11,a0
    6c0a:	8d4e                	mv	s10,s3
    6c0c:	4881                	li	a7,0
    6c0e:	4c81                	li	s9,0
    6c10:	ca3e                	sw	a5,20(sp)
    6c12:	0984e963          	bltu	s1,s8,6ca4 <__gethex+0x268>
    6c16:	004d0513          	addi	a0,s10,4 # 80000004 <_eusrstack+0x5fff8004>
    6c1a:	41350533          	sub	a0,a0,s3
    6c1e:	8509                	srai	a0,a0,0x2
    6c20:	019d2023          	sw	s9,0(s10)
    6c24:	00ada823          	sw	a0,16(s11)
    6c28:	00551493          	slli	s1,a0,0x5
    6c2c:	8566                	mv	a0,s9
    6c2e:	7c2000ef          	jal	ra,73f0 <__hi0bits>
    6c32:	00092b83          	lw	s7,0(s2)
    6c36:	8c89                	sub	s1,s1,a0
    6c38:	0c9bd863          	bge	s7,s1,6d08 <__gethex+0x2cc>
    6c3c:	417484b3          	sub	s1,s1,s7
    6c40:	85a6                	mv	a1,s1
    6c42:	856e                	mv	a0,s11
    6c44:	6e5000ef          	jal	ra,7b28 <__any_on>
    6c48:	8a2a                	mv	s4,a0
    6c4a:	c905                	beqz	a0,6c7a <__gethex+0x23e>
    6c4c:	fff48613          	addi	a2,s1,-1
    6c50:	40565693          	srai	a3,a2,0x5
    6c54:	068a                	slli	a3,a3,0x2
    6c56:	96ce                	add	a3,a3,s3
    6c58:	4294                	lw	a3,0(a3)
    6c5a:	4705                	li	a4,1
    6c5c:	00c71733          	sll	a4,a4,a2
    6c60:	8f75                	and	a4,a4,a3
    6c62:	4a05                	li	s4,1
    6c64:	cb19                	beqz	a4,6c7a <__gethex+0x23e>
    6c66:	00ca5963          	bge	s4,a2,6c78 <__gethex+0x23c>
    6c6a:	ffe48593          	addi	a1,s1,-2
    6c6e:	856e                	mv	a0,s11
    6c70:	6b9000ef          	jal	ra,7b28 <__any_on>
    6c74:	4a0d                	li	s4,3
    6c76:	e111                	bnez	a0,6c7a <__gethex+0x23e>
    6c78:	4a09                	li	s4,2
    6c7a:	85a6                	mv	a1,s1
    6c7c:	856e                	mv	a0,s11
    6c7e:	d09ff0ef          	jal	ra,6986 <rshift>
    6c82:	9426                	add	s0,s0,s1
    6c84:	00892703          	lw	a4,8(s2)
    6c88:	08875f63          	bge	a4,s0,6d26 <__gethex+0x2ea>
    6c8c:	85ee                	mv	a1,s11
    6c8e:	8556                	mv	a0,s5
    6c90:	23c5                	jal	7270 <_Bfree>
    6c92:	4792                	lw	a5,4(sp)
    6c94:	0a300493          	li	s1,163
    6c98:	0007a023          	sw	zero,0(a5)
    6c9c:	b711                	j	6ba0 <__gethex+0x164>
    6c9e:	0585                	addi	a1,a1,1
    6ca0:	8785                	srai	a5,a5,0x1
    6ca2:	bf91                	j	6bf6 <__gethex+0x1ba>
    6ca4:	fffc0793          	addi	a5,s8,-1
    6ca8:	c43e                	sw	a5,8(sp)
    6caa:	fffc4603          	lbu	a2,-1(s8)
    6cae:	47c2                	lw	a5,16(sp)
    6cb0:	02f60963          	beq	a2,a5,6ce2 <__gethex+0x2a6>
    6cb4:	02000793          	li	a5,32
    6cb8:	00f89763          	bne	a7,a5,6cc6 <__gethex+0x28a>
    6cbc:	019d2023          	sw	s9,0(s10)
    6cc0:	4881                	li	a7,0
    6cc2:	0d11                	addi	s10,s10,4
    6cc4:	4c81                	li	s9,0
    6cc6:	fffc4503          	lbu	a0,-1(s8)
    6cca:	cc46                	sw	a7,24(sp)
    6ccc:	d31ff0ef          	jal	ra,69fc <__hexdig_fun>
    6cd0:	48e2                	lw	a7,24(sp)
    6cd2:	893d                	andi	a0,a0,15
    6cd4:	4322                	lw	t1,8(sp)
    6cd6:	01151533          	sll	a0,a0,a7
    6cda:	00acecb3          	or	s9,s9,a0
    6cde:	0891                	addi	a7,a7,4
    6ce0:	a015                	j	6d04 <__gethex+0x2c8>
    6ce2:	4752                	lw	a4,20(sp)
    6ce4:	fffc0793          	addi	a5,s8,-1
    6ce8:	00e78333          	add	t1,a5,a4
    6cec:	fc9364e3          	bltu	t1,s1,6cb4 <__gethex+0x278>
    6cf0:	851a                	mv	a0,t1
    6cf2:	8652                	mv	a2,s4
    6cf4:	85de                	mv	a1,s7
    6cf6:	ce46                	sw	a7,28(sp)
    6cf8:	cc1a                	sw	t1,24(sp)
    6cfa:	36d010ef          	jal	ra,8866 <strncmp>
    6cfe:	4362                	lw	t1,24(sp)
    6d00:	48f2                	lw	a7,28(sp)
    6d02:	f94d                	bnez	a0,6cb4 <__gethex+0x278>
    6d04:	8c1a                	mv	s8,t1
    6d06:	b731                	j	6c12 <__gethex+0x1d6>
    6d08:	4a01                	li	s4,0
    6d0a:	f774dde3          	bge	s1,s7,6c84 <__gethex+0x248>
    6d0e:	409b84b3          	sub	s1,s7,s1
    6d12:	85ee                	mv	a1,s11
    6d14:	8626                	mv	a2,s1
    6d16:	8556                	mv	a0,s5
    6d18:	1a7000ef          	jal	ra,76be <__lshift>
    6d1c:	8daa                	mv	s11,a0
    6d1e:	8c05                	sub	s0,s0,s1
    6d20:	01450993          	addi	s3,a0,20
    6d24:	b785                	j	6c84 <__gethex+0x248>
    6d26:	00492703          	lw	a4,4(s2)
    6d2a:	0ee45563          	bge	s0,a4,6e14 <__gethex+0x3d8>
    6d2e:	40870433          	sub	s0,a4,s0
    6d32:	07744563          	blt	s0,s7,6d9c <__gethex+0x360>
    6d36:	00c92703          	lw	a4,12(s2)
    6d3a:	4689                	li	a3,2
    6d3c:	04d70a63          	beq	a4,a3,6d90 <__gethex+0x354>
    6d40:	468d                	li	a3,3
    6d42:	04d70a63          	beq	a4,a3,6d96 <__gethex+0x35a>
    6d46:	4685                	li	a3,1
    6d48:	02d71b63          	bne	a4,a3,6d7e <__gethex+0x342>
    6d4c:	028b9963          	bne	s7,s0,6d7e <__gethex+0x342>
    6d50:	02eb9163          	bne	s7,a4,6d72 <__gethex+0x336>
    6d54:	00492703          	lw	a4,4(s2)
    6d58:	47b2                	lw	a5,12(sp)
    6d5a:	06200493          	li	s1,98
    6d5e:	c398                	sw	a4,0(a5)
    6d60:	4705                	li	a4,1
    6d62:	4792                	lw	a5,4(sp)
    6d64:	00eda823          	sw	a4,16(s11)
    6d68:	00e9a023          	sw	a4,0(s3)
    6d6c:	01b7a023          	sw	s11,0(a5)
    6d70:	bd05                	j	6ba0 <__gethex+0x164>
    6d72:	fffb8593          	addi	a1,s7,-1
    6d76:	856e                	mv	a0,s11
    6d78:	5b1000ef          	jal	ra,7b28 <__any_on>
    6d7c:	fd61                	bnez	a0,6d54 <__gethex+0x318>
    6d7e:	85ee                	mv	a1,s11
    6d80:	8556                	mv	a0,s5
    6d82:	21fd                	jal	7270 <_Bfree>
    6d84:	4792                	lw	a5,4(sp)
    6d86:	05000493          	li	s1,80
    6d8a:	0007a023          	sw	zero,0(a5)
    6d8e:	bd09                	j	6ba0 <__gethex+0x164>
    6d90:	fe0b17e3          	bnez	s6,6d7e <__gethex+0x342>
    6d94:	b7c1                	j	6d54 <__gethex+0x318>
    6d96:	fa0b1fe3          	bnez	s6,6d54 <__gethex+0x318>
    6d9a:	b7d5                	j	6d7e <__gethex+0x342>
    6d9c:	fff40493          	addi	s1,s0,-1
    6da0:	060a1863          	bnez	s4,6e10 <__gethex+0x3d4>
    6da4:	c491                	beqz	s1,6db0 <__gethex+0x374>
    6da6:	85a6                	mv	a1,s1
    6da8:	856e                	mv	a0,s11
    6daa:	57f000ef          	jal	ra,7b28 <__any_on>
    6dae:	8a2a                	mv	s4,a0
    6db0:	4054d713          	srai	a4,s1,0x5
    6db4:	070a                	slli	a4,a4,0x2
    6db6:	974e                	add	a4,a4,s3
    6db8:	4318                	lw	a4,0(a4)
    6dba:	4585                	li	a1,1
    6dbc:	009595b3          	sll	a1,a1,s1
    6dc0:	8df9                	and	a1,a1,a4
    6dc2:	c199                	beqz	a1,6dc8 <__gethex+0x38c>
    6dc4:	002a6a13          	ori	s4,s4,2
    6dc8:	85a2                	mv	a1,s0
    6dca:	856e                	mv	a0,s11
    6dcc:	408b8bb3          	sub	s7,s7,s0
    6dd0:	bb7ff0ef          	jal	ra,6986 <rshift>
    6dd4:	00492403          	lw	s0,4(s2)
    6dd8:	4489                	li	s1,2
    6dda:	080a0b63          	beqz	s4,6e70 <__gethex+0x434>
    6dde:	00c92703          	lw	a4,12(s2)
    6de2:	4689                	li	a3,2
    6de4:	02d70a63          	beq	a4,a3,6e18 <__gethex+0x3dc>
    6de8:	468d                	li	a3,3
    6dea:	02d70a63          	beq	a4,a3,6e1e <__gethex+0x3e2>
    6dee:	4685                	li	a3,1
    6df0:	00d71d63          	bne	a4,a3,6e0a <__gethex+0x3ce>
    6df4:	002a7713          	andi	a4,s4,2
    6df8:	cb09                	beqz	a4,6e0a <__gethex+0x3ce>
    6dfa:	0009a703          	lw	a4,0(s3)
    6dfe:	00ea6a33          	or	s4,s4,a4
    6e02:	001a7a13          	andi	s4,s4,1
    6e06:	000a1e63          	bnez	s4,6e22 <__gethex+0x3e6>
    6e0a:	0104e493          	ori	s1,s1,16
    6e0e:	a08d                	j	6e70 <__gethex+0x434>
    6e10:	4a05                	li	s4,1
    6e12:	bf79                	j	6db0 <__gethex+0x374>
    6e14:	4485                	li	s1,1
    6e16:	b7d1                	j	6dda <__gethex+0x39e>
    6e18:	4705                	li	a4,1
    6e1a:	41670b33          	sub	s6,a4,s6
    6e1e:	fe0b06e3          	beqz	s6,6e0a <__gethex+0x3ce>
    6e22:	010da983          	lw	s3,16(s11)
    6e26:	014d8713          	addi	a4,s11,20
    6e2a:	55fd                	li	a1,-1
    6e2c:	00299a13          	slli	s4,s3,0x2
    6e30:	01470633          	add	a2,a4,s4
    6e34:	4314                	lw	a3,0(a4)
    6e36:	04b68363          	beq	a3,a1,6e7c <__gethex+0x440>
    6e3a:	0685                	addi	a3,a3,1
    6e3c:	c314                	sw	a3,0(a4)
    6e3e:	4689                	li	a3,2
    6e40:	014d8713          	addi	a4,s11,20
    6e44:	08d49463          	bne	s1,a3,6ecc <__gethex+0x490>
    6e48:	00092683          	lw	a3,0(s2)
    6e4c:	16fd                	addi	a3,a3,-1
    6e4e:	01769f63          	bne	a3,s7,6e6c <__gethex+0x430>
    6e52:	405bd693          	srai	a3,s7,0x5
    6e56:	068a                	slli	a3,a3,0x2
    6e58:	9736                	add	a4,a4,a3
    6e5a:	4318                	lw	a4,0(a4)
    6e5c:	4685                	li	a3,1
    6e5e:	01769bb3          	sll	s7,a3,s7
    6e62:	00ebfbb3          	and	s7,s7,a4
    6e66:	000b8363          	beqz	s7,6e6c <__gethex+0x430>
    6e6a:	4485                	li	s1,1
    6e6c:	0204e493          	ori	s1,s1,32
    6e70:	4792                	lw	a5,4(sp)
    6e72:	01b7a023          	sw	s11,0(a5)
    6e76:	47b2                	lw	a5,12(sp)
    6e78:	c380                	sw	s0,0(a5)
    6e7a:	b31d                	j	6ba0 <__gethex+0x164>
    6e7c:	0711                	addi	a4,a4,4
    6e7e:	fe072e23          	sw	zero,-4(a4)
    6e82:	fac769e3          	bltu	a4,a2,6e34 <__gethex+0x3f8>
    6e86:	008da703          	lw	a4,8(s11)
    6e8a:	02e9c563          	blt	s3,a4,6eb4 <__gethex+0x478>
    6e8e:	004da583          	lw	a1,4(s11)
    6e92:	8556                	mv	a0,s5
    6e94:	0585                	addi	a1,a1,1
    6e96:	26b9                	jal	71e4 <_Balloc>
    6e98:	010da603          	lw	a2,16(s11)
    6e9c:	00cd8593          	addi	a1,s11,12
    6ea0:	8b2a                	mv	s6,a0
    6ea2:	0609                	addi	a2,a2,2
    6ea4:	060a                	slli	a2,a2,0x2
    6ea6:	0531                	addi	a0,a0,12
    6ea8:	dc8fe0ef          	jal	ra,5470 <memcpy>
    6eac:	85ee                	mv	a1,s11
    6eae:	8556                	mv	a0,s5
    6eb0:	26c1                	jal	7270 <_Bfree>
    6eb2:	8dda                	mv	s11,s6
    6eb4:	010da703          	lw	a4,16(s11)
    6eb8:	00170693          	addi	a3,a4,1
    6ebc:	0711                	addi	a4,a4,4
    6ebe:	070a                	slli	a4,a4,0x2
    6ec0:	00dda823          	sw	a3,16(s11)
    6ec4:	976e                	add	a4,a4,s11
    6ec6:	4685                	li	a3,1
    6ec8:	c354                	sw	a3,4(a4)
    6eca:	bf95                	j	6e3e <__gethex+0x402>
    6ecc:	010da683          	lw	a3,16(s11)
    6ed0:	00d9dc63          	bge	s3,a3,6ee8 <__gethex+0x4ac>
    6ed4:	4585                	li	a1,1
    6ed6:	856e                	mv	a0,s11
    6ed8:	aafff0ef          	jal	ra,6986 <rshift>
    6edc:	00892703          	lw	a4,8(s2)
    6ee0:	0405                	addi	s0,s0,1
    6ee2:	f88754e3          	bge	a4,s0,6e6a <__gethex+0x42e>
    6ee6:	b35d                	j	6c8c <__gethex+0x250>
    6ee8:	01fbfb93          	andi	s7,s7,31
    6eec:	4485                	li	s1,1
    6eee:	f60b8fe3          	beqz	s7,6e6c <__gethex+0x430>
    6ef2:	9752                	add	a4,a4,s4
    6ef4:	ffc72503          	lw	a0,-4(a4)
    6ef8:	29e5                	jal	73f0 <__hi0bits>
    6efa:	02000713          	li	a4,32
    6efe:	41770bb3          	sub	s7,a4,s7
    6f02:	fd7549e3          	blt	a0,s7,6ed4 <__gethex+0x498>
    6f06:	b79d                	j	6e6c <__gethex+0x430>

00006f08 <L_shift>:
    6f08:	47a1                	li	a5,8
    6f0a:	40c78633          	sub	a2,a5,a2
    6f0e:	060a                	slli	a2,a2,0x2
    6f10:	02000693          	li	a3,32
    6f14:	8e91                	sub	a3,a3,a2
    6f16:	415c                	lw	a5,4(a0)
    6f18:	4118                	lw	a4,0(a0)
    6f1a:	0511                	addi	a0,a0,4
    6f1c:	00d79833          	sll	a6,a5,a3
    6f20:	01076733          	or	a4,a4,a6
    6f24:	00c7d7b3          	srl	a5,a5,a2
    6f28:	fee52e23          	sw	a4,-4(a0)
    6f2c:	c11c                	sw	a5,0(a0)
    6f2e:	feb564e3          	bltu	a0,a1,6f16 <L_shift+0xe>
    6f32:	8082                	ret

00006f34 <__match>:
    6f34:	411c                	lw	a5,0(a0)
    6f36:	4865                	li	a6,25
    6f38:	0585                	addi	a1,a1,1
    6f3a:	fff5c603          	lbu	a2,-1(a1)
    6f3e:	0785                	addi	a5,a5,1
    6f40:	e601                	bnez	a2,6f48 <__match+0x14>
    6f42:	c11c                	sw	a5,0(a0)
    6f44:	4505                	li	a0,1
    6f46:	8082                	ret
    6f48:	2398                	lbu	a4,0(a5)
    6f4a:	fbf70693          	addi	a3,a4,-65
    6f4e:	0ff6f693          	andi	a3,a3,255
    6f52:	00d86463          	bltu	a6,a3,6f5a <__match+0x26>
    6f56:	02070713          	addi	a4,a4,32
    6f5a:	fcc70fe3          	beq	a4,a2,6f38 <__match+0x4>
    6f5e:	4501                	li	a0,0
    6f60:	8082                	ret

00006f62 <__hexnan>:
    6f62:	715d                	addi	sp,sp,-80
    6f64:	dc52                	sw	s4,56(sp)
    6f66:	0005aa03          	lw	s4,0(a1)
    6f6a:	c2a6                	sw	s1,68(sp)
    6f6c:	de4e                	sw	s3,60(sp)
    6f6e:	405a5493          	srai	s1,s4,0x5
    6f72:	d85a                	sw	s6,48(sp)
    6f74:	048a                	slli	s1,s1,0x2
    6f76:	c686                	sw	ra,76(sp)
    6f78:	c4a2                	sw	s0,72(sp)
    6f7a:	c0ca                	sw	s2,64(sp)
    6f7c:	da56                	sw	s5,52(sp)
    6f7e:	d65e                	sw	s7,44(sp)
    6f80:	d462                	sw	s8,40(sp)
    6f82:	d266                	sw	s9,36(sp)
    6f84:	d06a                	sw	s10,32(sp)
    6f86:	ce6e                	sw	s11,28(sp)
    6f88:	01fa7a13          	andi	s4,s4,31
    6f8c:	8b2a                	mv	s6,a0
    6f8e:	89b2                	mv	s3,a2
    6f90:	94b2                	add	s1,s1,a2
    6f92:	000a0363          	beqz	s4,6f98 <__hexnan+0x36>
    6f96:	0491                	addi	s1,s1,4
    6f98:	000b2783          	lw	a5,0(s6)
    6f9c:	ffc48913          	addi	s2,s1,-4
    6fa0:	fe04ae23          	sw	zero,-4(s1)
    6fa4:	8dca                	mv	s11,s2
    6fa6:	844a                	mv	s0,s2
    6fa8:	4601                	li	a2,0
    6faa:	4a81                	li	s5,0
    6fac:	4b81                	li	s7,0
    6fae:	4c21                	li	s8,8
    6fb0:	02000c93          	li	s9,32
    6fb4:	4d1d                	li	s10,7
    6fb6:	3394                	lbu	a3,1(a5)
    6fb8:	00178713          	addi	a4,a5,1
    6fbc:	c03a                	sw	a4,0(sp)
    6fbe:	cab1                	beqz	a3,7012 <__hexnan+0xb0>
    6fc0:	8536                	mv	a0,a3
    6fc2:	c632                	sw	a2,12(sp)
    6fc4:	c43e                	sw	a5,8(sp)
    6fc6:	c236                	sw	a3,4(sp)
    6fc8:	a35ff0ef          	jal	ra,69fc <__hexdig_fun>
    6fcc:	4632                	lw	a2,12(sp)
    6fce:	e559                	bnez	a0,705c <__hexnan+0xfa>
    6fd0:	4692                	lw	a3,4(sp)
    6fd2:	47a2                	lw	a5,8(sp)
    6fd4:	02dce863          	bltu	s9,a3,7004 <__hexnan+0xa2>
    6fd8:	037ad463          	bge	s5,s7,7000 <__hexnan+0x9e>
    6fdc:	01b47863          	bgeu	s0,s11,6fec <__hexnan+0x8a>
    6fe0:	00cd4663          	blt	s10,a2,6fec <__hexnan+0x8a>
    6fe4:	85ee                	mv	a1,s11
    6fe6:	8522                	mv	a0,s0
    6fe8:	f21ff0ef          	jal	ra,6f08 <L_shift>
    6fec:	4621                	li	a2,8
    6fee:	0089f963          	bgeu	s3,s0,7000 <__hexnan+0x9e>
    6ff2:	ffc40d93          	addi	s11,s0,-4
    6ff6:	fe042e23          	sw	zero,-4(s0)
    6ffa:	8ade                	mv	s5,s7
    6ffc:	846e                	mv	s0,s11
    6ffe:	4601                	li	a2,0
    7000:	4782                	lw	a5,0(sp)
    7002:	bf55                	j	6fb6 <__hexnan+0x54>
    7004:	02900593          	li	a1,41
    7008:	08b69c63          	bne	a3,a1,70a0 <__hexnan+0x13e>
    700c:	0789                	addi	a5,a5,2
    700e:	00fb2023          	sw	a5,0(s6)
    7012:	080b8763          	beqz	s7,70a0 <__hexnan+0x13e>
    7016:	01b47963          	bgeu	s0,s11,7028 <__hexnan+0xc6>
    701a:	479d                	li	a5,7
    701c:	00c7c663          	blt	a5,a2,7028 <__hexnan+0xc6>
    7020:	85ee                	mv	a1,s11
    7022:	8522                	mv	a0,s0
    7024:	ee5ff0ef          	jal	ra,6f08 <L_shift>
    7028:	0489fa63          	bgeu	s3,s0,707c <__hexnan+0x11a>
    702c:	87ce                	mv	a5,s3
    702e:	0411                	addi	s0,s0,4
    7030:	ffc42703          	lw	a4,-4(s0)
    7034:	0791                	addi	a5,a5,4
    7036:	fee7ae23          	sw	a4,-4(a5)
    703a:	fe897ae3          	bgeu	s2,s0,702e <__hexnan+0xcc>
    703e:	0791                	addi	a5,a5,4
    7040:	fe07ae23          	sw	zero,-4(a5)
    7044:	fef97de3          	bgeu	s2,a5,703e <__hexnan+0xdc>
    7048:	00092783          	lw	a5,0(s2)
    704c:	e791                	bnez	a5,7058 <__hexnan+0xf6>
    704e:	05391763          	bne	s2,s3,709c <__hexnan+0x13a>
    7052:	4785                	li	a5,1
    7054:	00f92023          	sw	a5,0(s2)
    7058:	4515                	li	a0,5
    705a:	a0a1                	j	70a2 <__hexnan+0x140>
    705c:	0605                	addi	a2,a2,1
    705e:	0b85                	addi	s7,s7,1
    7060:	00cc5863          	bge	s8,a2,7070 <__hexnan+0x10e>
    7064:	f889fee3          	bgeu	s3,s0,7000 <__hexnan+0x9e>
    7068:	fe042e23          	sw	zero,-4(s0)
    706c:	4605                	li	a2,1
    706e:	1471                	addi	s0,s0,-4
    7070:	401c                	lw	a5,0(s0)
    7072:	893d                	andi	a0,a0,15
    7074:	0792                	slli	a5,a5,0x4
    7076:	8fc9                	or	a5,a5,a0
    7078:	c01c                	sw	a5,0(s0)
    707a:	b759                	j	7000 <__hexnan+0x9e>
    707c:	fc0a06e3          	beqz	s4,7048 <__hexnan+0xe6>
    7080:	02000793          	li	a5,32
    7084:	414787b3          	sub	a5,a5,s4
    7088:	5a7d                	li	s4,-1
    708a:	00fa57b3          	srl	a5,s4,a5
    708e:	ffc4aa03          	lw	s4,-4(s1)
    7092:	00fa7a33          	and	s4,s4,a5
    7096:	ff44ae23          	sw	s4,-4(s1)
    709a:	b77d                	j	7048 <__hexnan+0xe6>
    709c:	1971                	addi	s2,s2,-4
    709e:	b76d                	j	7048 <__hexnan+0xe6>
    70a0:	4511                	li	a0,4
    70a2:	40b6                	lw	ra,76(sp)
    70a4:	4426                	lw	s0,72(sp)
    70a6:	4496                	lw	s1,68(sp)
    70a8:	4906                	lw	s2,64(sp)
    70aa:	59f2                	lw	s3,60(sp)
    70ac:	5a62                	lw	s4,56(sp)
    70ae:	5ad2                	lw	s5,52(sp)
    70b0:	5b42                	lw	s6,48(sp)
    70b2:	5bb2                	lw	s7,44(sp)
    70b4:	5c22                	lw	s8,40(sp)
    70b6:	5c92                	lw	s9,36(sp)
    70b8:	5d02                	lw	s10,32(sp)
    70ba:	4df2                	lw	s11,28(sp)
    70bc:	6161                	addi	sp,sp,80
    70be:	8082                	ret

000070c0 <__localeconv_l>:
    70c0:	0f050513          	addi	a0,a0,240
    70c4:	8082                	ret

000070c6 <__swhatbuf_r>:
    70c6:	7119                	addi	sp,sp,-128
    70c8:	daa6                	sw	s1,116(sp)
    70ca:	84ae                	mv	s1,a1
    70cc:	00e59583          	lh	a1,14(a1)
    70d0:	dca2                	sw	s0,120(sp)
    70d2:	de86                	sw	ra,124(sp)
    70d4:	8432                	mv	s0,a2
    70d6:	0005db63          	bgez	a1,70ec <__swhatbuf_r+0x26>
    70da:	24de                	lhu	a5,12(s1)
    70dc:	0006a023          	sw	zero,0(a3)
    70e0:	0807f793          	andi	a5,a5,128
    70e4:	e785                	bnez	a5,710c <__swhatbuf_r+0x46>
    70e6:	40000793          	li	a5,1024
    70ea:	a01d                	j	7110 <__swhatbuf_r+0x4a>
    70ec:	0830                	addi	a2,sp,24
    70ee:	c636                	sw	a3,12(sp)
    70f0:	025010ef          	jal	ra,8914 <_fstat_r>
    70f4:	46b2                	lw	a3,12(sp)
    70f6:	fe0542e3          	bltz	a0,70da <__swhatbuf_r+0x14>
    70fa:	4772                	lw	a4,28(sp)
    70fc:	67bd                	lui	a5,0xf
    70fe:	8ff9                	and	a5,a5,a4
    7100:	7779                	lui	a4,0xffffe
    7102:	97ba                	add	a5,a5,a4
    7104:	0017b793          	seqz	a5,a5
    7108:	c29c                	sw	a5,0(a3)
    710a:	bff1                	j	70e6 <__swhatbuf_r+0x20>
    710c:	04000793          	li	a5,64
    7110:	c01c                	sw	a5,0(s0)
    7112:	50f6                	lw	ra,124(sp)
    7114:	5466                	lw	s0,120(sp)
    7116:	54d6                	lw	s1,116(sp)
    7118:	4501                	li	a0,0
    711a:	6109                	addi	sp,sp,128
    711c:	8082                	ret

0000711e <__smakebuf_r>:
    711e:	25de                	lhu	a5,12(a1)
    7120:	1101                	addi	sp,sp,-32
    7122:	cc22                	sw	s0,24(sp)
    7124:	ce06                	sw	ra,28(sp)
    7126:	ca26                	sw	s1,20(sp)
    7128:	c84a                	sw	s2,16(sp)
    712a:	8b89                	andi	a5,a5,2
    712c:	842e                	mv	s0,a1
    712e:	cf89                	beqz	a5,7148 <__smakebuf_r+0x2a>
    7130:	04740793          	addi	a5,s0,71
    7134:	c01c                	sw	a5,0(s0)
    7136:	c81c                	sw	a5,16(s0)
    7138:	4785                	li	a5,1
    713a:	c85c                	sw	a5,20(s0)
    713c:	40f2                	lw	ra,28(sp)
    713e:	4462                	lw	s0,24(sp)
    7140:	44d2                	lw	s1,20(sp)
    7142:	4942                	lw	s2,16(sp)
    7144:	6105                	addi	sp,sp,32
    7146:	8082                	ret
    7148:	0074                	addi	a3,sp,12
    714a:	0030                	addi	a2,sp,8
    714c:	84aa                	mv	s1,a0
    714e:	f79ff0ef          	jal	ra,70c6 <__swhatbuf_r>
    7152:	45a2                	lw	a1,8(sp)
    7154:	892a                	mv	s2,a0
    7156:	8526                	mv	a0,s1
    7158:	2e5000ef          	jal	ra,7c3c <_malloc_r>
    715c:	e919                	bnez	a0,7172 <__smakebuf_r+0x54>
    715e:	00c41783          	lh	a5,12(s0)
    7162:	2007f713          	andi	a4,a5,512
    7166:	fb79                	bnez	a4,713c <__smakebuf_r+0x1e>
    7168:	9bf1                	andi	a5,a5,-4
    716a:	0027e793          	ori	a5,a5,2
    716e:	a45e                	sh	a5,12(s0)
    7170:	b7c1                	j	7130 <__smakebuf_r+0x12>
    7172:	fffff797          	auipc	a5,0xfffff
    7176:	64c78793          	addi	a5,a5,1612 # 67be <_cleanup_r>
    717a:	d49c                	sw	a5,40(s1)
    717c:	245e                	lhu	a5,12(s0)
    717e:	c008                	sw	a0,0(s0)
    7180:	c808                	sw	a0,16(s0)
    7182:	0807e793          	ori	a5,a5,128
    7186:	a45e                	sh	a5,12(s0)
    7188:	47a2                	lw	a5,8(sp)
    718a:	c85c                	sw	a5,20(s0)
    718c:	47b2                	lw	a5,12(sp)
    718e:	cf81                	beqz	a5,71a6 <__smakebuf_r+0x88>
    7190:	00e41583          	lh	a1,14(s0)
    7194:	8526                	mv	a0,s1
    7196:	7b2010ef          	jal	ra,8948 <_isatty_r>
    719a:	c511                	beqz	a0,71a6 <__smakebuf_r+0x88>
    719c:	245e                	lhu	a5,12(s0)
    719e:	9bf1                	andi	a5,a5,-4
    71a0:	0017e793          	ori	a5,a5,1
    71a4:	a45e                	sh	a5,12(s0)
    71a6:	245e                	lhu	a5,12(s0)
    71a8:	00f96933          	or	s2,s2,a5
    71ac:	01241623          	sh	s2,12(s0)
    71b0:	b771                	j	713c <__smakebuf_r+0x1e>

000071b2 <__ascii_mbtowc>:
    71b2:	ed91                	bnez	a1,71ce <__ascii_mbtowc+0x1c>
    71b4:	1141                	addi	sp,sp,-16
    71b6:	006c                	addi	a1,sp,12
    71b8:	4501                	li	a0,0
    71ba:	ca01                	beqz	a2,71ca <__ascii_mbtowc+0x18>
    71bc:	5579                	li	a0,-2
    71be:	c691                	beqz	a3,71ca <__ascii_mbtowc+0x18>
    71c0:	221c                	lbu	a5,0(a2)
    71c2:	c19c                	sw	a5,0(a1)
    71c4:	2208                	lbu	a0,0(a2)
    71c6:	00a03533          	snez	a0,a0
    71ca:	0141                	addi	sp,sp,16
    71cc:	8082                	ret
    71ce:	4501                	li	a0,0
    71d0:	ca09                	beqz	a2,71e2 <__ascii_mbtowc+0x30>
    71d2:	5579                	li	a0,-2
    71d4:	c699                	beqz	a3,71e2 <__ascii_mbtowc+0x30>
    71d6:	221c                	lbu	a5,0(a2)
    71d8:	c19c                	sw	a5,0(a1)
    71da:	2208                	lbu	a0,0(a2)
    71dc:	00a03533          	snez	a0,a0
    71e0:	8082                	ret
    71e2:	8082                	ret

000071e4 <_Balloc>:
    71e4:	515c                	lw	a5,36(a0)
    71e6:	1141                	addi	sp,sp,-16
    71e8:	c422                	sw	s0,8(sp)
    71ea:	c04a                	sw	s2,0(sp)
    71ec:	c606                	sw	ra,12(sp)
    71ee:	c226                	sw	s1,4(sp)
    71f0:	842a                	mv	s0,a0
    71f2:	892e                	mv	s2,a1
    71f4:	ef89                	bnez	a5,720e <_Balloc+0x2a>
    71f6:	4541                	li	a0,16
    71f8:	7b8010ef          	jal	ra,89b0 <malloc>
    71fc:	d048                	sw	a0,36(s0)
    71fe:	00052223          	sw	zero,4(a0)
    7202:	00052423          	sw	zero,8(a0)
    7206:	00052023          	sw	zero,0(a0)
    720a:	00052623          	sw	zero,12(a0)
    720e:	5044                	lw	s1,36(s0)
    7210:	44dc                	lw	a5,12(s1)
    7212:	c79d                	beqz	a5,7240 <_Balloc+0x5c>
    7214:	5058                	lw	a4,36(s0)
    7216:	00291793          	slli	a5,s2,0x2
    721a:	4758                	lw	a4,12(a4)
    721c:	97ba                	add	a5,a5,a4
    721e:	4388                	lw	a0,0(a5)
    7220:	e129                	bnez	a0,7262 <_Balloc+0x7e>
    7222:	4485                	li	s1,1
    7224:	012494b3          	sll	s1,s1,s2
    7228:	00548613          	addi	a2,s1,5
    722c:	060a                	slli	a2,a2,0x2
    722e:	4585                	li	a1,1
    7230:	8522                	mv	a0,s0
    7232:	13d000ef          	jal	ra,7b6e <_calloc_r>
    7236:	cd19                	beqz	a0,7254 <_Balloc+0x70>
    7238:	01252223          	sw	s2,4(a0)
    723c:	c504                	sw	s1,8(a0)
    723e:	a025                	j	7266 <_Balloc+0x82>
    7240:	02100613          	li	a2,33
    7244:	4591                	li	a1,4
    7246:	8522                	mv	a0,s0
    7248:	127000ef          	jal	ra,7b6e <_calloc_r>
    724c:	505c                	lw	a5,36(s0)
    724e:	c4c8                	sw	a0,12(s1)
    7250:	47dc                	lw	a5,12(a5)
    7252:	f3e9                	bnez	a5,7214 <_Balloc+0x30>
    7254:	4501                	li	a0,0
    7256:	40b2                	lw	ra,12(sp)
    7258:	4422                	lw	s0,8(sp)
    725a:	4492                	lw	s1,4(sp)
    725c:	4902                	lw	s2,0(sp)
    725e:	0141                	addi	sp,sp,16
    7260:	8082                	ret
    7262:	4118                	lw	a4,0(a0)
    7264:	c398                	sw	a4,0(a5)
    7266:	00052823          	sw	zero,16(a0)
    726a:	00052623          	sw	zero,12(a0)
    726e:	b7e5                	j	7256 <_Balloc+0x72>

00007270 <_Bfree>:
    7270:	515c                	lw	a5,36(a0)
    7272:	1101                	addi	sp,sp,-32
    7274:	cc22                	sw	s0,24(sp)
    7276:	ce06                	sw	ra,28(sp)
    7278:	842a                	mv	s0,a0
    727a:	ef99                	bnez	a5,7298 <_Bfree+0x28>
    727c:	4541                	li	a0,16
    727e:	c62e                	sw	a1,12(sp)
    7280:	730010ef          	jal	ra,89b0 <malloc>
    7284:	45b2                	lw	a1,12(sp)
    7286:	d048                	sw	a0,36(s0)
    7288:	00052223          	sw	zero,4(a0)
    728c:	00052423          	sw	zero,8(a0)
    7290:	00052023          	sw	zero,0(a0)
    7294:	00052623          	sw	zero,12(a0)
    7298:	c991                	beqz	a1,72ac <_Bfree+0x3c>
    729a:	5054                	lw	a3,36(s0)
    729c:	41dc                	lw	a5,4(a1)
    729e:	00279713          	slli	a4,a5,0x2
    72a2:	46dc                	lw	a5,12(a3)
    72a4:	97ba                	add	a5,a5,a4
    72a6:	4398                	lw	a4,0(a5)
    72a8:	c198                	sw	a4,0(a1)
    72aa:	c38c                	sw	a1,0(a5)
    72ac:	40f2                	lw	ra,28(sp)
    72ae:	4462                	lw	s0,24(sp)
    72b0:	6105                	addi	sp,sp,32
    72b2:	8082                	ret

000072b4 <__multadd>:
    72b4:	7179                	addi	sp,sp,-48
    72b6:	ce4e                	sw	s3,28(sp)
    72b8:	89aa                	mv	s3,a0
    72ba:	6541                	lui	a0,0x10
    72bc:	d422                	sw	s0,40(sp)
    72be:	d226                	sw	s1,36(sp)
    72c0:	842e                	mv	s0,a1
    72c2:	4984                	lw	s1,16(a1)
    72c4:	d606                	sw	ra,44(sp)
    72c6:	d04a                	sw	s2,32(sp)
    72c8:	05d1                	addi	a1,a1,20
    72ca:	4801                	li	a6,0
    72cc:	157d                	addi	a0,a0,-1
    72ce:	419c                	lw	a5,0(a1)
    72d0:	0591                	addi	a1,a1,4
    72d2:	0805                	addi	a6,a6,1
    72d4:	00a7f733          	and	a4,a5,a0
    72d8:	02c70733          	mul	a4,a4,a2
    72dc:	83c1                	srli	a5,a5,0x10
    72de:	02c787b3          	mul	a5,a5,a2
    72e2:	9736                	add	a4,a4,a3
    72e4:	01075693          	srli	a3,a4,0x10
    72e8:	8f69                	and	a4,a4,a0
    72ea:	97b6                	add	a5,a5,a3
    72ec:	0107d693          	srli	a3,a5,0x10
    72f0:	07c2                	slli	a5,a5,0x10
    72f2:	97ba                	add	a5,a5,a4
    72f4:	fef5ae23          	sw	a5,-4(a1)
    72f8:	fc984be3          	blt	a6,s1,72ce <__multadd+0x1a>
    72fc:	c2a1                	beqz	a3,733c <__multadd+0x88>
    72fe:	441c                	lw	a5,8(s0)
    7300:	02f4c763          	blt	s1,a5,732e <__multadd+0x7a>
    7304:	404c                	lw	a1,4(s0)
    7306:	854e                	mv	a0,s3
    7308:	c636                	sw	a3,12(sp)
    730a:	0585                	addi	a1,a1,1
    730c:	ed9ff0ef          	jal	ra,71e4 <_Balloc>
    7310:	4810                	lw	a2,16(s0)
    7312:	00c40593          	addi	a1,s0,12
    7316:	892a                	mv	s2,a0
    7318:	0609                	addi	a2,a2,2
    731a:	060a                	slli	a2,a2,0x2
    731c:	0531                	addi	a0,a0,12
    731e:	952fe0ef          	jal	ra,5470 <memcpy>
    7322:	85a2                	mv	a1,s0
    7324:	854e                	mv	a0,s3
    7326:	f4bff0ef          	jal	ra,7270 <_Bfree>
    732a:	46b2                	lw	a3,12(sp)
    732c:	844a                	mv	s0,s2
    732e:	00448793          	addi	a5,s1,4
    7332:	078a                	slli	a5,a5,0x2
    7334:	97a2                	add	a5,a5,s0
    7336:	c3d4                	sw	a3,4(a5)
    7338:	0485                	addi	s1,s1,1
    733a:	c804                	sw	s1,16(s0)
    733c:	8522                	mv	a0,s0
    733e:	50b2                	lw	ra,44(sp)
    7340:	5422                	lw	s0,40(sp)
    7342:	5492                	lw	s1,36(sp)
    7344:	5902                	lw	s2,32(sp)
    7346:	49f2                	lw	s3,28(sp)
    7348:	6145                	addi	sp,sp,48
    734a:	8082                	ret

0000734c <__s2b>:
    734c:	7179                	addi	sp,sp,-48
    734e:	00868793          	addi	a5,a3,8
    7352:	cc52                	sw	s4,24(sp)
    7354:	8a36                	mv	s4,a3
    7356:	46a5                	li	a3,9
    7358:	d422                	sw	s0,40(sp)
    735a:	d226                	sw	s1,36(sp)
    735c:	ce4e                	sw	s3,28(sp)
    735e:	842e                	mv	s0,a1
    7360:	02d7c7b3          	div	a5,a5,a3
    7364:	d606                	sw	ra,44(sp)
    7366:	d04a                	sw	s2,32(sp)
    7368:	ca56                	sw	s5,20(sp)
    736a:	89aa                	mv	s3,a0
    736c:	84b2                	mv	s1,a2
    736e:	4685                	li	a3,1
    7370:	4581                	li	a1,0
    7372:	04f6cc63          	blt	a3,a5,73ca <__s2b+0x7e>
    7376:	854e                	mv	a0,s3
    7378:	c63a                	sw	a4,12(sp)
    737a:	e6bff0ef          	jal	ra,71e4 <_Balloc>
    737e:	4732                	lw	a4,12(sp)
    7380:	4785                	li	a5,1
    7382:	c91c                	sw	a5,16(a0)
    7384:	c958                	sw	a4,20(a0)
    7386:	47a5                	li	a5,9
    7388:	0497d463          	bge	a5,s1,73d0 <__s2b+0x84>
    738c:	00940a93          	addi	s5,s0,9
    7390:	8956                	mv	s2,s5
    7392:	9426                	add	s0,s0,s1
    7394:	0905                	addi	s2,s2,1
    7396:	fff94683          	lbu	a3,-1(s2)
    739a:	85aa                	mv	a1,a0
    739c:	4629                	li	a2,10
    739e:	fd068693          	addi	a3,a3,-48
    73a2:	854e                	mv	a0,s3
    73a4:	f11ff0ef          	jal	ra,72b4 <__multadd>
    73a8:	fe8916e3          	bne	s2,s0,7394 <__s2b+0x48>
    73ac:	ff848413          	addi	s0,s1,-8
    73b0:	9456                	add	s0,s0,s5
    73b2:	8926                	mv	s2,s1
    73b4:	03494163          	blt	s2,s4,73d6 <__s2b+0x8a>
    73b8:	50b2                	lw	ra,44(sp)
    73ba:	5422                	lw	s0,40(sp)
    73bc:	5492                	lw	s1,36(sp)
    73be:	5902                	lw	s2,32(sp)
    73c0:	49f2                	lw	s3,28(sp)
    73c2:	4a62                	lw	s4,24(sp)
    73c4:	4ad2                	lw	s5,20(sp)
    73c6:	6145                	addi	sp,sp,48
    73c8:	8082                	ret
    73ca:	0686                	slli	a3,a3,0x1
    73cc:	0585                	addi	a1,a1,1
    73ce:	b755                	j	7372 <__s2b+0x26>
    73d0:	0429                	addi	s0,s0,10
    73d2:	44a5                	li	s1,9
    73d4:	bff9                	j	73b2 <__s2b+0x66>
    73d6:	409907b3          	sub	a5,s2,s1
    73da:	97a2                	add	a5,a5,s0
    73dc:	2394                	lbu	a3,0(a5)
    73de:	85aa                	mv	a1,a0
    73e0:	4629                	li	a2,10
    73e2:	fd068693          	addi	a3,a3,-48
    73e6:	854e                	mv	a0,s3
    73e8:	ecdff0ef          	jal	ra,72b4 <__multadd>
    73ec:	0905                	addi	s2,s2,1
    73ee:	b7d9                	j	73b4 <__s2b+0x68>

000073f0 <__hi0bits>:
    73f0:	7741                	lui	a4,0xffff0
    73f2:	8f69                	and	a4,a4,a0
    73f4:	87aa                	mv	a5,a0
    73f6:	4501                	li	a0,0
    73f8:	e319                	bnez	a4,73fe <__hi0bits+0xe>
    73fa:	07c2                	slli	a5,a5,0x10
    73fc:	4541                	li	a0,16
    73fe:	ff000737          	lui	a4,0xff000
    7402:	8f7d                	and	a4,a4,a5
    7404:	e319                	bnez	a4,740a <__hi0bits+0x1a>
    7406:	0521                	addi	a0,a0,8
    7408:	07a2                	slli	a5,a5,0x8
    740a:	f0000737          	lui	a4,0xf0000
    740e:	8f7d                	and	a4,a4,a5
    7410:	e319                	bnez	a4,7416 <__hi0bits+0x26>
    7412:	0511                	addi	a0,a0,4
    7414:	0792                	slli	a5,a5,0x4
    7416:	c0000737          	lui	a4,0xc0000
    741a:	8f7d                	and	a4,a4,a5
    741c:	e319                	bnez	a4,7422 <__hi0bits+0x32>
    741e:	0509                	addi	a0,a0,2
    7420:	078a                	slli	a5,a5,0x2
    7422:	0007c963          	bltz	a5,7434 <__hi0bits+0x44>
    7426:	00179713          	slli	a4,a5,0x1
    742a:	0505                	addi	a0,a0,1
    742c:	00074463          	bltz	a4,7434 <__hi0bits+0x44>
    7430:	02000513          	li	a0,32
    7434:	8082                	ret

00007436 <__lo0bits>:
    7436:	411c                	lw	a5,0(a0)
    7438:	0077f713          	andi	a4,a5,7
    743c:	c30d                	beqz	a4,745e <__lo0bits+0x28>
    743e:	0017f693          	andi	a3,a5,1
    7442:	4701                	li	a4,0
    7444:	e699                	bnez	a3,7452 <__lo0bits+0x1c>
    7446:	0027f713          	andi	a4,a5,2
    744a:	c711                	beqz	a4,7456 <__lo0bits+0x20>
    744c:	8385                	srli	a5,a5,0x1
    744e:	c11c                	sw	a5,0(a0)
    7450:	4705                	li	a4,1
    7452:	853a                	mv	a0,a4
    7454:	8082                	ret
    7456:	8389                	srli	a5,a5,0x2
    7458:	c11c                	sw	a5,0(a0)
    745a:	4709                	li	a4,2
    745c:	bfdd                	j	7452 <__lo0bits+0x1c>
    745e:	01079693          	slli	a3,a5,0x10
    7462:	82c1                	srli	a3,a3,0x10
    7464:	4701                	li	a4,0
    7466:	e299                	bnez	a3,746c <__lo0bits+0x36>
    7468:	83c1                	srli	a5,a5,0x10
    746a:	4741                	li	a4,16
    746c:	0ff7f693          	andi	a3,a5,255
    7470:	e299                	bnez	a3,7476 <__lo0bits+0x40>
    7472:	0721                	addi	a4,a4,8
    7474:	83a1                	srli	a5,a5,0x8
    7476:	00f7f693          	andi	a3,a5,15
    747a:	e299                	bnez	a3,7480 <__lo0bits+0x4a>
    747c:	0711                	addi	a4,a4,4
    747e:	8391                	srli	a5,a5,0x4
    7480:	0037f693          	andi	a3,a5,3
    7484:	e299                	bnez	a3,748a <__lo0bits+0x54>
    7486:	0709                	addi	a4,a4,2
    7488:	8389                	srli	a5,a5,0x2
    748a:	0017f693          	andi	a3,a5,1
    748e:	e681                	bnez	a3,7496 <__lo0bits+0x60>
    7490:	8385                	srli	a5,a5,0x1
    7492:	0705                	addi	a4,a4,1
    7494:	c399                	beqz	a5,749a <__lo0bits+0x64>
    7496:	c11c                	sw	a5,0(a0)
    7498:	bf6d                	j	7452 <__lo0bits+0x1c>
    749a:	02000713          	li	a4,32
    749e:	bf55                	j	7452 <__lo0bits+0x1c>

000074a0 <__i2b>:
    74a0:	1141                	addi	sp,sp,-16
    74a2:	c422                	sw	s0,8(sp)
    74a4:	842e                	mv	s0,a1
    74a6:	4585                	li	a1,1
    74a8:	c606                	sw	ra,12(sp)
    74aa:	d3bff0ef          	jal	ra,71e4 <_Balloc>
    74ae:	c940                	sw	s0,20(a0)
    74b0:	40b2                	lw	ra,12(sp)
    74b2:	4422                	lw	s0,8(sp)
    74b4:	4705                	li	a4,1
    74b6:	c918                	sw	a4,16(a0)
    74b8:	0141                	addi	sp,sp,16
    74ba:	8082                	ret

000074bc <__multiply>:
    74bc:	4998                	lw	a4,16(a1)
    74be:	4a1c                	lw	a5,16(a2)
    74c0:	7179                	addi	sp,sp,-48
    74c2:	d226                	sw	s1,36(sp)
    74c4:	d606                	sw	ra,44(sp)
    74c6:	d422                	sw	s0,40(sp)
    74c8:	d04a                	sw	s2,32(sp)
    74ca:	ce4e                	sw	s3,28(sp)
    74cc:	84ae                	mv	s1,a1
    74ce:	00f75463          	bge	a4,a5,74d6 <__multiply+0x1a>
    74d2:	84b2                	mv	s1,a2
    74d4:	862e                	mv	a2,a1
    74d6:	0104a983          	lw	s3,16(s1)
    74da:	01062903          	lw	s2,16(a2)
    74de:	449c                	lw	a5,8(s1)
    74e0:	40cc                	lw	a1,4(s1)
    74e2:	01298433          	add	s0,s3,s2
    74e6:	0087d363          	bge	a5,s0,74ec <__multiply+0x30>
    74ea:	0585                	addi	a1,a1,1
    74ec:	c632                	sw	a2,12(sp)
    74ee:	cf7ff0ef          	jal	ra,71e4 <_Balloc>
    74f2:	4632                	lw	a2,12(sp)
    74f4:	01450813          	addi	a6,a0,20 # 10014 <_data_lma+0x3728>
    74f8:	00241313          	slli	t1,s0,0x2
    74fc:	9342                	add	t1,t1,a6
    74fe:	87c2                	mv	a5,a6
    7500:	0267ed63          	bltu	a5,t1,753a <__multiply+0x7e>
    7504:	01448593          	addi	a1,s1,20
    7508:	00299893          	slli	a7,s3,0x2
    750c:	0651                	addi	a2,a2,20
    750e:	00291e13          	slli	t3,s2,0x2
    7512:	66c1                	lui	a3,0x10
    7514:	98ae                	add	a7,a7,a1
    7516:	9e32                	add	t3,t3,a2
    7518:	16fd                	addi	a3,a3,-1
    751a:	03c66463          	bltu	a2,t3,7542 <__multiply+0x86>
    751e:	00805663          	blez	s0,752a <__multiply+0x6e>
    7522:	1371                	addi	t1,t1,-4
    7524:	00032783          	lw	a5,0(t1)
    7528:	cbf1                	beqz	a5,75fc <__multiply+0x140>
    752a:	c900                	sw	s0,16(a0)
    752c:	50b2                	lw	ra,44(sp)
    752e:	5422                	lw	s0,40(sp)
    7530:	5492                	lw	s1,36(sp)
    7532:	5902                	lw	s2,32(sp)
    7534:	49f2                	lw	s3,28(sp)
    7536:	6145                	addi	sp,sp,48
    7538:	8082                	ret
    753a:	0007a023          	sw	zero,0(a5)
    753e:	0791                	addi	a5,a5,4
    7540:	b7c1                	j	7500 <__multiply+0x44>
    7542:	00062f83          	lw	t6,0(a2)
    7546:	00dfffb3          	and	t6,t6,a3
    754a:	040f8a63          	beqz	t6,759e <__multiply+0xe2>
    754e:	8f42                	mv	t5,a6
    7550:	82ae                	mv	t0,a1
    7552:	4481                	li	s1,0
    7554:	0002a703          	lw	a4,0(t0)
    7558:	000f2383          	lw	t2,0(t5)
    755c:	0f11                	addi	t5,t5,4
    755e:	00d77eb3          	and	t4,a4,a3
    7562:	03fe8eb3          	mul	t4,t4,t6
    7566:	00d3f7b3          	and	a5,t2,a3
    756a:	0103d393          	srli	t2,t2,0x10
    756e:	0291                	addi	t0,t0,4
    7570:	9ebe                	add	t4,t4,a5
    7572:	01075793          	srli	a5,a4,0x10
    7576:	03f787b3          	mul	a5,a5,t6
    757a:	9ea6                	add	t4,t4,s1
    757c:	010ed713          	srli	a4,t4,0x10
    7580:	00defeb3          	and	t4,t4,a3
    7584:	979e                	add	a5,a5,t2
    7586:	97ba                	add	a5,a5,a4
    7588:	0107d493          	srli	s1,a5,0x10
    758c:	07c2                	slli	a5,a5,0x10
    758e:	01d7e7b3          	or	a5,a5,t4
    7592:	feff2e23          	sw	a5,-4(t5)
    7596:	fb12efe3          	bltu	t0,a7,7554 <__multiply+0x98>
    759a:	009f2023          	sw	s1,0(t5)
    759e:	00265283          	lhu	t0,2(a2)
    75a2:	04028a63          	beqz	t0,75f6 <__multiply+0x13a>
    75a6:	00082783          	lw	a5,0(a6)
    75aa:	8ec2                	mv	t4,a6
    75ac:	8f2e                	mv	t5,a1
    75ae:	4f81                	li	t6,0
    75b0:	000f2703          	lw	a4,0(t5)
    75b4:	002ed383          	lhu	t2,2(t4)
    75b8:	8ff5                	and	a5,a5,a3
    75ba:	8f75                	and	a4,a4,a3
    75bc:	02570733          	mul	a4,a4,t0
    75c0:	0e91                	addi	t4,t4,4
    75c2:	0f11                	addi	t5,t5,4
    75c4:	971e                	add	a4,a4,t2
    75c6:	977e                	add	a4,a4,t6
    75c8:	01071f93          	slli	t6,a4,0x10
    75cc:	00ffe7b3          	or	a5,t6,a5
    75d0:	fefeae23          	sw	a5,-4(t4)
    75d4:	ffef5783          	lhu	a5,-2(t5)
    75d8:	000eaf83          	lw	t6,0(t4)
    75dc:	8341                	srli	a4,a4,0x10
    75de:	025787b3          	mul	a5,a5,t0
    75e2:	00dfffb3          	and	t6,t6,a3
    75e6:	97fe                	add	a5,a5,t6
    75e8:	97ba                	add	a5,a5,a4
    75ea:	0107df93          	srli	t6,a5,0x10
    75ee:	fd1f61e3          	bltu	t5,a7,75b0 <__multiply+0xf4>
    75f2:	00fea023          	sw	a5,0(t4)
    75f6:	0611                	addi	a2,a2,4
    75f8:	0811                	addi	a6,a6,4
    75fa:	b705                	j	751a <__multiply+0x5e>
    75fc:	147d                	addi	s0,s0,-1
    75fe:	b705                	j	751e <__multiply+0x62>

00007600 <__pow5mult>:
    7600:	1101                	addi	sp,sp,-32
    7602:	ca26                	sw	s1,20(sp)
    7604:	c84a                	sw	s2,16(sp)
    7606:	c64e                	sw	s3,12(sp)
    7608:	ce06                	sw	ra,28(sp)
    760a:	cc22                	sw	s0,24(sp)
    760c:	c452                	sw	s4,8(sp)
    760e:	00367793          	andi	a5,a2,3
    7612:	892a                	mv	s2,a0
    7614:	84b2                	mv	s1,a2
    7616:	89ae                	mv	s3,a1
    7618:	cf89                	beqz	a5,7632 <__pow5mult+0x32>
    761a:	17fd                	addi	a5,a5,-1
    761c:	00005717          	auipc	a4,0x5
    7620:	10470713          	addi	a4,a4,260 # c720 <p05.3319>
    7624:	078a                	slli	a5,a5,0x2
    7626:	97ba                	add	a5,a5,a4
    7628:	4390                	lw	a2,0(a5)
    762a:	4681                	li	a3,0
    762c:	c89ff0ef          	jal	ra,72b4 <__multadd>
    7630:	89aa                	mv	s3,a0
    7632:	8489                	srai	s1,s1,0x2
    7634:	cca5                	beqz	s1,76ac <__pow5mult+0xac>
    7636:	02492783          	lw	a5,36(s2)
    763a:	ef91                	bnez	a5,7656 <__pow5mult+0x56>
    763c:	4541                	li	a0,16
    763e:	372010ef          	jal	ra,89b0 <malloc>
    7642:	02a92223          	sw	a0,36(s2)
    7646:	00052223          	sw	zero,4(a0)
    764a:	00052423          	sw	zero,8(a0)
    764e:	00052023          	sw	zero,0(a0)
    7652:	00052623          	sw	zero,12(a0)
    7656:	02492a03          	lw	s4,36(s2)
    765a:	008a2403          	lw	s0,8(s4)
    765e:	e819                	bnez	s0,7674 <__pow5mult+0x74>
    7660:	27100593          	li	a1,625
    7664:	854a                	mv	a0,s2
    7666:	e3bff0ef          	jal	ra,74a0 <__i2b>
    766a:	00aa2423          	sw	a0,8(s4)
    766e:	842a                	mv	s0,a0
    7670:	00052023          	sw	zero,0(a0)
    7674:	0014f793          	andi	a5,s1,1
    7678:	cf81                	beqz	a5,7690 <__pow5mult+0x90>
    767a:	85ce                	mv	a1,s3
    767c:	8622                	mv	a2,s0
    767e:	854a                	mv	a0,s2
    7680:	e3dff0ef          	jal	ra,74bc <__multiply>
    7684:	8a2a                	mv	s4,a0
    7686:	85ce                	mv	a1,s3
    7688:	854a                	mv	a0,s2
    768a:	be7ff0ef          	jal	ra,7270 <_Bfree>
    768e:	89d2                	mv	s3,s4
    7690:	8485                	srai	s1,s1,0x1
    7692:	cc89                	beqz	s1,76ac <__pow5mult+0xac>
    7694:	4008                	lw	a0,0(s0)
    7696:	e909                	bnez	a0,76a8 <__pow5mult+0xa8>
    7698:	8622                	mv	a2,s0
    769a:	85a2                	mv	a1,s0
    769c:	854a                	mv	a0,s2
    769e:	e1fff0ef          	jal	ra,74bc <__multiply>
    76a2:	c008                	sw	a0,0(s0)
    76a4:	00052023          	sw	zero,0(a0)
    76a8:	842a                	mv	s0,a0
    76aa:	b7e9                	j	7674 <__pow5mult+0x74>
    76ac:	40f2                	lw	ra,28(sp)
    76ae:	4462                	lw	s0,24(sp)
    76b0:	854e                	mv	a0,s3
    76b2:	44d2                	lw	s1,20(sp)
    76b4:	4942                	lw	s2,16(sp)
    76b6:	49b2                	lw	s3,12(sp)
    76b8:	4a22                	lw	s4,8(sp)
    76ba:	6105                	addi	sp,sp,32
    76bc:	8082                	ret

000076be <__lshift>:
    76be:	7179                	addi	sp,sp,-48
    76c0:	d226                	sw	s1,36(sp)
    76c2:	84ae                	mv	s1,a1
    76c4:	ce4e                	sw	s3,28(sp)
    76c6:	0104a983          	lw	s3,16(s1)
    76ca:	d422                	sw	s0,40(sp)
    76cc:	41cc                	lw	a1,4(a1)
    76ce:	40565413          	srai	s0,a2,0x5
    76d2:	449c                	lw	a5,8(s1)
    76d4:	99a2                	add	s3,s3,s0
    76d6:	d04a                	sw	s2,32(sp)
    76d8:	ca56                	sw	s5,20(sp)
    76da:	d606                	sw	ra,44(sp)
    76dc:	cc52                	sw	s4,24(sp)
    76de:	8aaa                	mv	s5,a0
    76e0:	00198913          	addi	s2,s3,1
    76e4:	0927c463          	blt	a5,s2,776c <__lshift+0xae>
    76e8:	8556                	mv	a0,s5
    76ea:	c632                	sw	a2,12(sp)
    76ec:	af9ff0ef          	jal	ra,71e4 <_Balloc>
    76f0:	4632                	lw	a2,12(sp)
    76f2:	01450793          	addi	a5,a0,20
    76f6:	8a2a                	mv	s4,a0
    76f8:	86be                	mv	a3,a5
    76fa:	4701                	li	a4,0
    76fc:	0691                	addi	a3,a3,4
    76fe:	06874a63          	blt	a4,s0,7772 <__lshift+0xb4>
    7702:	00045363          	bgez	s0,7708 <__lshift+0x4a>
    7706:	4401                	li	s0,0
    7708:	4894                	lw	a3,16(s1)
    770a:	040a                	slli	s0,s0,0x2
    770c:	00878733          	add	a4,a5,s0
    7710:	068a                	slli	a3,a3,0x2
    7712:	01448793          	addi	a5,s1,20
    7716:	8a7d                	andi	a2,a2,31
    7718:	96be                	add	a3,a3,a5
    771a:	c225                	beqz	a2,777a <__lshift+0xbc>
    771c:	02000813          	li	a6,32
    7720:	40c80833          	sub	a6,a6,a2
    7724:	4581                	li	a1,0
    7726:	4388                	lw	a0,0(a5)
    7728:	0711                	addi	a4,a4,4
    772a:	0791                	addi	a5,a5,4
    772c:	00c51533          	sll	a0,a0,a2
    7730:	8dc9                	or	a1,a1,a0
    7732:	feb72e23          	sw	a1,-4(a4)
    7736:	ffc7a583          	lw	a1,-4(a5)
    773a:	0105d5b3          	srl	a1,a1,a6
    773e:	fed7e4e3          	bltu	a5,a3,7726 <__lshift+0x68>
    7742:	c30c                	sw	a1,0(a4)
    7744:	c199                	beqz	a1,774a <__lshift+0x8c>
    7746:	00298913          	addi	s2,s3,2
    774a:	197d                	addi	s2,s2,-1
    774c:	012a2823          	sw	s2,16(s4)
    7750:	8556                	mv	a0,s5
    7752:	85a6                	mv	a1,s1
    7754:	b1dff0ef          	jal	ra,7270 <_Bfree>
    7758:	50b2                	lw	ra,44(sp)
    775a:	5422                	lw	s0,40(sp)
    775c:	8552                	mv	a0,s4
    775e:	5492                	lw	s1,36(sp)
    7760:	5902                	lw	s2,32(sp)
    7762:	49f2                	lw	s3,28(sp)
    7764:	4a62                	lw	s4,24(sp)
    7766:	4ad2                	lw	s5,20(sp)
    7768:	6145                	addi	sp,sp,48
    776a:	8082                	ret
    776c:	0585                	addi	a1,a1,1
    776e:	0786                	slli	a5,a5,0x1
    7770:	bf95                	j	76e4 <__lshift+0x26>
    7772:	fe06ae23          	sw	zero,-4(a3) # fffc <_data_lma+0x3710>
    7776:	0705                	addi	a4,a4,1
    7778:	b751                	j	76fc <__lshift+0x3e>
    777a:	0791                	addi	a5,a5,4
    777c:	ffc7a603          	lw	a2,-4(a5)
    7780:	0711                	addi	a4,a4,4
    7782:	fec72e23          	sw	a2,-4(a4)
    7786:	fed7eae3          	bltu	a5,a3,777a <__lshift+0xbc>
    778a:	b7c1                	j	774a <__lshift+0x8c>

0000778c <__mcmp>:
    778c:	491c                	lw	a5,16(a0)
    778e:	4998                	lw	a4,16(a1)
    7790:	8f99                	sub	a5,a5,a4
    7792:	e38d                	bnez	a5,77b4 <__mcmp+0x28>
    7794:	070a                	slli	a4,a4,0x2
    7796:	0551                	addi	a0,a0,20
    7798:	05d1                	addi	a1,a1,20
    779a:	00e506b3          	add	a3,a0,a4
    779e:	95ba                	add	a1,a1,a4
    77a0:	16f1                	addi	a3,a3,-4
    77a2:	15f1                	addi	a1,a1,-4
    77a4:	4290                	lw	a2,0(a3)
    77a6:	4198                	lw	a4,0(a1)
    77a8:	00e60863          	beq	a2,a4,77b8 <__mcmp+0x2c>
    77ac:	57fd                	li	a5,-1
    77ae:	00e66363          	bltu	a2,a4,77b4 <__mcmp+0x28>
    77b2:	4785                	li	a5,1
    77b4:	853e                	mv	a0,a5
    77b6:	8082                	ret
    77b8:	fed564e3          	bltu	a0,a3,77a0 <__mcmp+0x14>
    77bc:	bfe5                	j	77b4 <__mcmp+0x28>

000077be <__mdiff>:
    77be:	1101                	addi	sp,sp,-32
    77c0:	ca26                	sw	s1,20(sp)
    77c2:	84ae                	mv	s1,a1
    77c4:	c64e                	sw	s3,12(sp)
    77c6:	85b2                	mv	a1,a2
    77c8:	89aa                	mv	s3,a0
    77ca:	8526                	mv	a0,s1
    77cc:	cc22                	sw	s0,24(sp)
    77ce:	ce06                	sw	ra,28(sp)
    77d0:	c84a                	sw	s2,16(sp)
    77d2:	8432                	mv	s0,a2
    77d4:	fb9ff0ef          	jal	ra,778c <__mcmp>
    77d8:	e105                	bnez	a0,77f8 <__mdiff+0x3a>
    77da:	4581                	li	a1,0
    77dc:	854e                	mv	a0,s3
    77de:	a07ff0ef          	jal	ra,71e4 <_Balloc>
    77e2:	4785                	li	a5,1
    77e4:	c91c                	sw	a5,16(a0)
    77e6:	00052a23          	sw	zero,20(a0)
    77ea:	40f2                	lw	ra,28(sp)
    77ec:	4462                	lw	s0,24(sp)
    77ee:	44d2                	lw	s1,20(sp)
    77f0:	4942                	lw	s2,16(sp)
    77f2:	49b2                	lw	s3,12(sp)
    77f4:	6105                	addi	sp,sp,32
    77f6:	8082                	ret
    77f8:	4905                	li	s2,1
    77fa:	00054663          	bltz	a0,7806 <__mdiff+0x48>
    77fe:	87a2                	mv	a5,s0
    7800:	4901                	li	s2,0
    7802:	8426                	mv	s0,s1
    7804:	84be                	mv	s1,a5
    7806:	404c                	lw	a1,4(s0)
    7808:	854e                	mv	a0,s3
    780a:	9dbff0ef          	jal	ra,71e4 <_Balloc>
    780e:	01042303          	lw	t1,16(s0)
    7812:	0104a883          	lw	a7,16(s1)
    7816:	01440613          	addi	a2,s0,20
    781a:	00231e13          	slli	t3,t1,0x2
    781e:	01448813          	addi	a6,s1,20
    7822:	088a                	slli	a7,a7,0x2
    7824:	6ec1                	lui	t4,0x10
    7826:	01252623          	sw	s2,12(a0)
    782a:	9e32                	add	t3,t3,a2
    782c:	98c2                	add	a7,a7,a6
    782e:	01450693          	addi	a3,a0,20
    7832:	4f01                	li	t5,0
    7834:	1efd                	addi	t4,t4,-1
    7836:	4218                	lw	a4,0(a2)
    7838:	00082f83          	lw	t6,0(a6)
    783c:	0691                	addi	a3,a3,4
    783e:	01d775b3          	and	a1,a4,t4
    7842:	01dff7b3          	and	a5,t6,t4
    7846:	95fa                	add	a1,a1,t5
    7848:	8d9d                	sub	a1,a1,a5
    784a:	010fdf93          	srli	t6,t6,0x10
    784e:	01075793          	srli	a5,a4,0x10
    7852:	41f787b3          	sub	a5,a5,t6
    7856:	4105d713          	srai	a4,a1,0x10
    785a:	97ba                	add	a5,a5,a4
    785c:	4107df13          	srai	t5,a5,0x10
    7860:	01d5f5b3          	and	a1,a1,t4
    7864:	07c2                	slli	a5,a5,0x10
    7866:	8fcd                	or	a5,a5,a1
    7868:	0811                	addi	a6,a6,4
    786a:	fef6ae23          	sw	a5,-4(a3)
    786e:	0611                	addi	a2,a2,4
    7870:	fd1863e3          	bltu	a6,a7,7836 <__mdiff+0x78>
    7874:	65c1                	lui	a1,0x10
    7876:	15fd                	addi	a1,a1,-1
    7878:	01c66863          	bltu	a2,t3,7888 <__mdiff+0xca>
    787c:	16f1                	addi	a3,a3,-4
    787e:	429c                	lw	a5,0(a3)
    7880:	c795                	beqz	a5,78ac <__mdiff+0xee>
    7882:	00652823          	sw	t1,16(a0)
    7886:	b795                	j	77ea <__mdiff+0x2c>
    7888:	421c                	lw	a5,0(a2)
    788a:	0691                	addi	a3,a3,4
    788c:	0611                	addi	a2,a2,4
    788e:	00b7f733          	and	a4,a5,a1
    7892:	977a                	add	a4,a4,t5
    7894:	41075813          	srai	a6,a4,0x10
    7898:	83c1                	srli	a5,a5,0x10
    789a:	97c2                	add	a5,a5,a6
    789c:	4107df13          	srai	t5,a5,0x10
    78a0:	8f6d                	and	a4,a4,a1
    78a2:	07c2                	slli	a5,a5,0x10
    78a4:	8fd9                	or	a5,a5,a4
    78a6:	fef6ae23          	sw	a5,-4(a3)
    78aa:	b7f9                	j	7878 <__mdiff+0xba>
    78ac:	137d                	addi	t1,t1,-1
    78ae:	b7f9                	j	787c <__mdiff+0xbe>

000078b0 <__ulp>:
    78b0:	7ff007b7          	lui	a5,0x7ff00
    78b4:	8dfd                	and	a1,a1,a5
    78b6:	fcc007b7          	lui	a5,0xfcc00
    78ba:	95be                	add	a1,a1,a5
    78bc:	00b05563          	blez	a1,78c6 <__ulp+0x16>
    78c0:	4781                	li	a5,0
    78c2:	853e                	mv	a0,a5
    78c4:	8082                	ret
    78c6:	40b005b3          	neg	a1,a1
    78ca:	4145d793          	srai	a5,a1,0x14
    78ce:	474d                	li	a4,19
    78d0:	00f74763          	blt	a4,a5,78de <__ulp+0x2e>
    78d4:	000805b7          	lui	a1,0x80
    78d8:	40f5d5b3          	sra	a1,a1,a5
    78dc:	b7d5                	j	78c0 <__ulp+0x10>
    78de:	fec78713          	addi	a4,a5,-20 # fcbfffec <_eusrstack+0xdcbf7fec>
    78e2:	46f9                	li	a3,30
    78e4:	4581                	li	a1,0
    78e6:	4785                	li	a5,1
    78e8:	fce6cde3          	blt	a3,a4,78c2 <__ulp+0x12>
    78ec:	800007b7          	lui	a5,0x80000
    78f0:	00e7d7b3          	srl	a5,a5,a4
    78f4:	b7f9                	j	78c2 <__ulp+0x12>

000078f6 <__b2d>:
    78f6:	7179                	addi	sp,sp,-48
    78f8:	d226                	sw	s1,36(sp)
    78fa:	4904                	lw	s1,16(a0)
    78fc:	ce4e                	sw	s3,28(sp)
    78fe:	01450993          	addi	s3,a0,20
    7902:	048a                	slli	s1,s1,0x2
    7904:	94ce                	add	s1,s1,s3
    7906:	d422                	sw	s0,40(sp)
    7908:	ffc4a403          	lw	s0,-4(s1)
    790c:	d04a                	sw	s2,32(sp)
    790e:	c62e                	sw	a1,12(sp)
    7910:	8522                	mv	a0,s0
    7912:	d606                	sw	ra,44(sp)
    7914:	addff0ef          	jal	ra,73f0 <__hi0bits>
    7918:	45b2                	lw	a1,12(sp)
    791a:	02000793          	li	a5,32
    791e:	8f89                	sub	a5,a5,a0
    7920:	c19c                	sw	a5,0(a1)
    7922:	47a9                	li	a5,10
    7924:	ffc48913          	addi	s2,s1,-4
    7928:	02a7cd63          	blt	a5,a0,7962 <__b2d+0x6c>
    792c:	47ad                	li	a5,11
    792e:	8f89                	sub	a5,a5,a0
    7930:	3ff00737          	lui	a4,0x3ff00
    7934:	00f456b3          	srl	a3,s0,a5
    7938:	8ed9                	or	a3,a3,a4
    793a:	4701                	li	a4,0
    793c:	0129f463          	bgeu	s3,s2,7944 <__b2d+0x4e>
    7940:	ff84a703          	lw	a4,-8(s1)
    7944:	0555                	addi	a0,a0,21
    7946:	00a41533          	sll	a0,s0,a0
    794a:	00f757b3          	srl	a5,a4,a5
    794e:	8fc9                	or	a5,a5,a0
    7950:	50b2                	lw	ra,44(sp)
    7952:	5422                	lw	s0,40(sp)
    7954:	5492                	lw	s1,36(sp)
    7956:	5902                	lw	s2,32(sp)
    7958:	49f2                	lw	s3,28(sp)
    795a:	853e                	mv	a0,a5
    795c:	85b6                	mv	a1,a3
    795e:	6145                	addi	sp,sp,48
    7960:	8082                	ret
    7962:	4781                	li	a5,0
    7964:	0129f663          	bgeu	s3,s2,7970 <__b2d+0x7a>
    7968:	ff84a783          	lw	a5,-8(s1)
    796c:	ff848913          	addi	s2,s1,-8
    7970:	1555                	addi	a0,a0,-11
    7972:	c905                	beqz	a0,79a2 <__b2d+0xac>
    7974:	02000713          	li	a4,32
    7978:	40a70633          	sub	a2,a4,a0
    797c:	00c7d733          	srl	a4,a5,a2
    7980:	00a41433          	sll	s0,s0,a0
    7984:	8c59                	or	s0,s0,a4
    7986:	3ff006b7          	lui	a3,0x3ff00
    798a:	8ec1                	or	a3,a3,s0
    798c:	4701                	li	a4,0
    798e:	0129f463          	bgeu	s3,s2,7996 <__b2d+0xa0>
    7992:	ffc92703          	lw	a4,-4(s2)
    7996:	00a797b3          	sll	a5,a5,a0
    799a:	00c75733          	srl	a4,a4,a2
    799e:	8fd9                	or	a5,a5,a4
    79a0:	bf45                	j	7950 <__b2d+0x5a>
    79a2:	3ff006b7          	lui	a3,0x3ff00
    79a6:	8ec1                	or	a3,a3,s0
    79a8:	b765                	j	7950 <__b2d+0x5a>

000079aa <__d2b>:
    79aa:	7179                	addi	sp,sp,-48
    79ac:	d422                	sw	s0,40(sp)
    79ae:	842e                	mv	s0,a1
    79b0:	4585                	li	a1,1
    79b2:	d226                	sw	s1,36(sp)
    79b4:	d04a                	sw	s2,32(sp)
    79b6:	84b2                	mv	s1,a2
    79b8:	ce4e                	sw	s3,28(sp)
    79ba:	cc52                	sw	s4,24(sp)
    79bc:	893a                	mv	s2,a4
    79be:	d606                	sw	ra,44(sp)
    79c0:	8a36                	mv	s4,a3
    79c2:	823ff0ef          	jal	ra,71e4 <_Balloc>
    79c6:	00100737          	lui	a4,0x100
    79ca:	fff70793          	addi	a5,a4,-1 # fffff <_data_lma+0xf3713>
    79ce:	8fe5                	and	a5,a5,s1
    79d0:	80d1                	srli	s1,s1,0x14
    79d2:	7ff4f493          	andi	s1,s1,2047
    79d6:	89aa                	mv	s3,a0
    79d8:	e0b5                	bnez	s1,7a3c <__d2b+0x92>
    79da:	c63e                	sw	a5,12(sp)
    79dc:	c42d                	beqz	s0,7a46 <__d2b+0x9c>
    79de:	0028                	addi	a0,sp,8
    79e0:	c422                	sw	s0,8(sp)
    79e2:	a55ff0ef          	jal	ra,7436 <__lo0bits>
    79e6:	46a2                	lw	a3,8(sp)
    79e8:	cd21                	beqz	a0,7a40 <__d2b+0x96>
    79ea:	4732                	lw	a4,12(sp)
    79ec:	02000793          	li	a5,32
    79f0:	8f89                	sub	a5,a5,a0
    79f2:	00f717b3          	sll	a5,a4,a5
    79f6:	8fd5                	or	a5,a5,a3
    79f8:	00a75733          	srl	a4,a4,a0
    79fc:	00f9aa23          	sw	a5,20(s3)
    7a00:	c63a                	sw	a4,12(sp)
    7a02:	4432                	lw	s0,12(sp)
    7a04:	0089ac23          	sw	s0,24(s3)
    7a08:	00803433          	snez	s0,s0
    7a0c:	0405                	addi	s0,s0,1
    7a0e:	0089a823          	sw	s0,16(s3)
    7a12:	c4b9                	beqz	s1,7a60 <__d2b+0xb6>
    7a14:	bcd48493          	addi	s1,s1,-1075
    7a18:	94aa                	add	s1,s1,a0
    7a1a:	03500793          	li	a5,53
    7a1e:	009a2023          	sw	s1,0(s4)
    7a22:	40a78533          	sub	a0,a5,a0
    7a26:	00a92023          	sw	a0,0(s2)
    7a2a:	50b2                	lw	ra,44(sp)
    7a2c:	5422                	lw	s0,40(sp)
    7a2e:	854e                	mv	a0,s3
    7a30:	5492                	lw	s1,36(sp)
    7a32:	5902                	lw	s2,32(sp)
    7a34:	49f2                	lw	s3,28(sp)
    7a36:	4a62                	lw	s4,24(sp)
    7a38:	6145                	addi	sp,sp,48
    7a3a:	8082                	ret
    7a3c:	8fd9                	or	a5,a5,a4
    7a3e:	bf71                	j	79da <__d2b+0x30>
    7a40:	00d9aa23          	sw	a3,20(s3)
    7a44:	bf7d                	j	7a02 <__d2b+0x58>
    7a46:	0068                	addi	a0,sp,12
    7a48:	9efff0ef          	jal	ra,7436 <__lo0bits>
    7a4c:	47b2                	lw	a5,12(sp)
    7a4e:	02050513          	addi	a0,a0,32
    7a52:	4405                	li	s0,1
    7a54:	00f9aa23          	sw	a5,20(s3)
    7a58:	4785                	li	a5,1
    7a5a:	00f9a823          	sw	a5,16(s3)
    7a5e:	bf55                	j	7a12 <__d2b+0x68>
    7a60:	00241793          	slli	a5,s0,0x2
    7a64:	bce50513          	addi	a0,a0,-1074
    7a68:	97ce                	add	a5,a5,s3
    7a6a:	00aa2023          	sw	a0,0(s4)
    7a6e:	4b88                	lw	a0,16(a5)
    7a70:	0416                	slli	s0,s0,0x5
    7a72:	97fff0ef          	jal	ra,73f0 <__hi0bits>
    7a76:	8c09                	sub	s0,s0,a0
    7a78:	00892023          	sw	s0,0(s2)
    7a7c:	b77d                	j	7a2a <__d2b+0x80>

00007a7e <__ratio>:
    7a7e:	7179                	addi	sp,sp,-48
    7a80:	d04a                	sw	s2,32(sp)
    7a82:	892e                	mv	s2,a1
    7a84:	002c                	addi	a1,sp,8
    7a86:	d606                	sw	ra,44(sp)
    7a88:	d422                	sw	s0,40(sp)
    7a8a:	d226                	sw	s1,36(sp)
    7a8c:	ce4e                	sw	s3,28(sp)
    7a8e:	cc52                	sw	s4,24(sp)
    7a90:	8a2a                	mv	s4,a0
    7a92:	e65ff0ef          	jal	ra,78f6 <__b2d>
    7a96:	89aa                	mv	s3,a0
    7a98:	84ae                	mv	s1,a1
    7a9a:	842e                	mv	s0,a1
    7a9c:	854a                	mv	a0,s2
    7a9e:	006c                	addi	a1,sp,12
    7aa0:	e57ff0ef          	jal	ra,78f6 <__b2d>
    7aa4:	01092783          	lw	a5,16(s2)
    7aa8:	010a2703          	lw	a4,16(s4)
    7aac:	46a2                	lw	a3,8(sp)
    7aae:	8f1d                	sub	a4,a4,a5
    7ab0:	47b2                	lw	a5,12(sp)
    7ab2:	0716                	slli	a4,a4,0x5
    7ab4:	8e9d                	sub	a3,a3,a5
    7ab6:	00d707b3          	add	a5,a4,a3
    7aba:	02f05563          	blez	a5,7ae4 <__ratio+0x66>
    7abe:	07d2                	slli	a5,a5,0x14
    7ac0:	862e                	mv	a2,a1
    7ac2:	00978433          	add	s0,a5,s1
    7ac6:	8732                	mv	a4,a2
    7ac8:	85a2                	mv	a1,s0
    7aca:	862a                	mv	a2,a0
    7acc:	86ba                	mv	a3,a4
    7ace:	854e                	mv	a0,s3
    7ad0:	720010ef          	jal	ra,91f0 <__divdf3>
    7ad4:	50b2                	lw	ra,44(sp)
    7ad6:	5422                	lw	s0,40(sp)
    7ad8:	5492                	lw	s1,36(sp)
    7ada:	5902                	lw	s2,32(sp)
    7adc:	49f2                	lw	s3,28(sp)
    7ade:	4a62                	lw	s4,24(sp)
    7ae0:	6145                	addi	sp,sp,48
    7ae2:	8082                	ret
    7ae4:	fff00737          	lui	a4,0xfff00
    7ae8:	02e787b3          	mul	a5,a5,a4
    7aec:	00b78633          	add	a2,a5,a1
    7af0:	bfd9                	j	7ac6 <__ratio+0x48>

00007af2 <__copybits>:
    7af2:	fff58793          	addi	a5,a1,-1 # 7ffff <_data_lma+0x73713>
    7af6:	4a18                	lw	a4,16(a2)
    7af8:	8795                	srai	a5,a5,0x5
    7afa:	0785                	addi	a5,a5,1
    7afc:	078a                	slli	a5,a5,0x2
    7afe:	01460693          	addi	a3,a2,20
    7b02:	070a                	slli	a4,a4,0x2
    7b04:	97aa                	add	a5,a5,a0
    7b06:	9736                	add	a4,a4,a3
    7b08:	00e6e563          	bltu	a3,a4,7b12 <__copybits+0x20>
    7b0c:	00f56a63          	bltu	a0,a5,7b20 <__copybits+0x2e>
    7b10:	8082                	ret
    7b12:	0691                	addi	a3,a3,4
    7b14:	ffc6a603          	lw	a2,-4(a3) # 3feffffc <_eusrstack+0x1fef7ffc>
    7b18:	0511                	addi	a0,a0,4
    7b1a:	fec52e23          	sw	a2,-4(a0)
    7b1e:	b7ed                	j	7b08 <__copybits+0x16>
    7b20:	0511                	addi	a0,a0,4
    7b22:	fe052e23          	sw	zero,-4(a0)
    7b26:	b7dd                	j	7b0c <__copybits+0x1a>

00007b28 <__any_on>:
    7b28:	4914                	lw	a3,16(a0)
    7b2a:	4055d793          	srai	a5,a1,0x5
    7b2e:	01450713          	addi	a4,a0,20
    7b32:	02f6c763          	blt	a3,a5,7b60 <__any_on+0x38>
    7b36:	00d7df63          	bge	a5,a3,7b54 <__any_on+0x2c>
    7b3a:	89fd                	andi	a1,a1,31
    7b3c:	cd81                	beqz	a1,7b54 <__any_on+0x2c>
    7b3e:	00279693          	slli	a3,a5,0x2
    7b42:	96ba                	add	a3,a3,a4
    7b44:	4290                	lw	a2,0(a3)
    7b46:	4505                	li	a0,1
    7b48:	00b656b3          	srl	a3,a2,a1
    7b4c:	00b695b3          	sll	a1,a3,a1
    7b50:	00b61e63          	bne	a2,a1,7b6c <__any_on+0x44>
    7b54:	078a                	slli	a5,a5,0x2
    7b56:	97ba                	add	a5,a5,a4
    7b58:	00f76663          	bltu	a4,a5,7b64 <__any_on+0x3c>
    7b5c:	4501                	li	a0,0
    7b5e:	8082                	ret
    7b60:	87b6                	mv	a5,a3
    7b62:	bfcd                	j	7b54 <__any_on+0x2c>
    7b64:	17f1                	addi	a5,a5,-4
    7b66:	4394                	lw	a3,0(a5)
    7b68:	dae5                	beqz	a3,7b58 <__any_on+0x30>
    7b6a:	4505                	li	a0,1
    7b6c:	8082                	ret

00007b6e <_calloc_r>:
    7b6e:	02c58633          	mul	a2,a1,a2
    7b72:	1101                	addi	sp,sp,-32
    7b74:	cc22                	sw	s0,24(sp)
    7b76:	ce06                	sw	ra,28(sp)
    7b78:	85b2                	mv	a1,a2
    7b7a:	c632                	sw	a2,12(sp)
    7b7c:	20c1                	jal	7c3c <_malloc_r>
    7b7e:	842a                	mv	s0,a0
    7b80:	c509                	beqz	a0,7b8a <_calloc_r+0x1c>
    7b82:	4632                	lw	a2,12(sp)
    7b84:	4581                	li	a1,0
    7b86:	e9af80ef          	jal	ra,220 <memset>
    7b8a:	8522                	mv	a0,s0
    7b8c:	40f2                	lw	ra,28(sp)
    7b8e:	4462                	lw	s0,24(sp)
    7b90:	6105                	addi	sp,sp,32
    7b92:	8082                	ret

00007b94 <_free_r>:
    7b94:	c1dd                	beqz	a1,7c3a <_free_r+0xa6>
    7b96:	ffc5a783          	lw	a5,-4(a1)
    7b9a:	1141                	addi	sp,sp,-16
    7b9c:	c422                	sw	s0,8(sp)
    7b9e:	c606                	sw	ra,12(sp)
    7ba0:	c226                	sw	s1,4(sp)
    7ba2:	ffc58413          	addi	s0,a1,-4
    7ba6:	0007d363          	bgez	a5,7bac <_free_r+0x18>
    7baa:	943e                	add	s0,s0,a5
    7bac:	84aa                	mv	s1,a0
    7bae:	66d000ef          	jal	ra,8a1a <__malloc_lock>
    7bb2:	89818793          	addi	a5,gp,-1896 # 20000570 <__malloc_free_list>
    7bb6:	439c                	lw	a5,0(a5)
    7bb8:	ef81                	bnez	a5,7bd0 <_free_r+0x3c>
    7bba:	00042223          	sw	zero,4(s0)
    7bbe:	8881ac23          	sw	s0,-1896(gp) # 20000570 <__malloc_free_list>
    7bc2:	4422                	lw	s0,8(sp)
    7bc4:	40b2                	lw	ra,12(sp)
    7bc6:	8526                	mv	a0,s1
    7bc8:	4492                	lw	s1,4(sp)
    7bca:	0141                	addi	sp,sp,16
    7bcc:	6510006f          	j	8a1c <__malloc_unlock>
    7bd0:	00f47e63          	bgeu	s0,a5,7bec <_free_r+0x58>
    7bd4:	4014                	lw	a3,0(s0)
    7bd6:	00d40733          	add	a4,s0,a3
    7bda:	00e79663          	bne	a5,a4,7be6 <_free_r+0x52>
    7bde:	4398                	lw	a4,0(a5)
    7be0:	43dc                	lw	a5,4(a5)
    7be2:	9736                	add	a4,a4,a3
    7be4:	c018                	sw	a4,0(s0)
    7be6:	c05c                	sw	a5,4(s0)
    7be8:	bfd9                	j	7bbe <_free_r+0x2a>
    7bea:	87ba                	mv	a5,a4
    7bec:	43d8                	lw	a4,4(a5)
    7bee:	c319                	beqz	a4,7bf4 <_free_r+0x60>
    7bf0:	fee47de3          	bgeu	s0,a4,7bea <_free_r+0x56>
    7bf4:	4394                	lw	a3,0(a5)
    7bf6:	00d78633          	add	a2,a5,a3
    7bfa:	00861f63          	bne	a2,s0,7c18 <_free_r+0x84>
    7bfe:	4010                	lw	a2,0(s0)
    7c00:	96b2                	add	a3,a3,a2
    7c02:	c394                	sw	a3,0(a5)
    7c04:	00d78633          	add	a2,a5,a3
    7c08:	fac71de3          	bne	a4,a2,7bc2 <_free_r+0x2e>
    7c0c:	4310                	lw	a2,0(a4)
    7c0e:	4358                	lw	a4,4(a4)
    7c10:	96b2                	add	a3,a3,a2
    7c12:	c394                	sw	a3,0(a5)
    7c14:	c3d8                	sw	a4,4(a5)
    7c16:	b775                	j	7bc2 <_free_r+0x2e>
    7c18:	00c47563          	bgeu	s0,a2,7c22 <_free_r+0x8e>
    7c1c:	47b1                	li	a5,12
    7c1e:	c09c                	sw	a5,0(s1)
    7c20:	b74d                	j	7bc2 <_free_r+0x2e>
    7c22:	4010                	lw	a2,0(s0)
    7c24:	00c406b3          	add	a3,s0,a2
    7c28:	00d71663          	bne	a4,a3,7c34 <_free_r+0xa0>
    7c2c:	4314                	lw	a3,0(a4)
    7c2e:	4358                	lw	a4,4(a4)
    7c30:	96b2                	add	a3,a3,a2
    7c32:	c014                	sw	a3,0(s0)
    7c34:	c058                	sw	a4,4(s0)
    7c36:	c3c0                	sw	s0,4(a5)
    7c38:	b769                	j	7bc2 <_free_r+0x2e>
    7c3a:	8082                	ret

00007c3c <_malloc_r>:
    7c3c:	1101                	addi	sp,sp,-32
    7c3e:	ca26                	sw	s1,20(sp)
    7c40:	00358493          	addi	s1,a1,3
    7c44:	98f1                	andi	s1,s1,-4
    7c46:	ce06                	sw	ra,28(sp)
    7c48:	cc22                	sw	s0,24(sp)
    7c4a:	c84a                	sw	s2,16(sp)
    7c4c:	c64e                	sw	s3,12(sp)
    7c4e:	04a1                	addi	s1,s1,8
    7c50:	47b1                	li	a5,12
    7c52:	04f4f563          	bgeu	s1,a5,7c9c <_malloc_r+0x60>
    7c56:	44b1                	li	s1,12
    7c58:	04b4e463          	bltu	s1,a1,7ca0 <_malloc_r+0x64>
    7c5c:	892a                	mv	s2,a0
    7c5e:	5bd000ef          	jal	ra,8a1a <__malloc_lock>
    7c62:	89818793          	addi	a5,gp,-1896 # 20000570 <__malloc_free_list>
    7c66:	4398                	lw	a4,0(a5)
    7c68:	843a                	mv	s0,a4
    7c6a:	e429                	bnez	s0,7cb4 <_malloc_r+0x78>
    7c6c:	89c18793          	addi	a5,gp,-1892 # 20000574 <__malloc_sbrk_start>
    7c70:	439c                	lw	a5,0(a5)
    7c72:	e799                	bnez	a5,7c80 <_malloc_r+0x44>
    7c74:	4581                	li	a1,0
    7c76:	854a                	mv	a0,s2
    7c78:	313000ef          	jal	ra,878a <_sbrk_r>
    7c7c:	88a1ae23          	sw	a0,-1892(gp) # 20000574 <__malloc_sbrk_start>
    7c80:	85a6                	mv	a1,s1
    7c82:	854a                	mv	a0,s2
    7c84:	307000ef          	jal	ra,878a <_sbrk_r>
    7c88:	59fd                	li	s3,-1
    7c8a:	07351963          	bne	a0,s3,7cfc <_malloc_r+0xc0>
    7c8e:	47b1                	li	a5,12
    7c90:	00f92023          	sw	a5,0(s2)
    7c94:	854a                	mv	a0,s2
    7c96:	587000ef          	jal	ra,8a1c <__malloc_unlock>
    7c9a:	a029                	j	7ca4 <_malloc_r+0x68>
    7c9c:	fa04dee3          	bgez	s1,7c58 <_malloc_r+0x1c>
    7ca0:	47b1                	li	a5,12
    7ca2:	c11c                	sw	a5,0(a0)
    7ca4:	4501                	li	a0,0
    7ca6:	40f2                	lw	ra,28(sp)
    7ca8:	4462                	lw	s0,24(sp)
    7caa:	44d2                	lw	s1,20(sp)
    7cac:	4942                	lw	s2,16(sp)
    7cae:	49b2                	lw	s3,12(sp)
    7cb0:	6105                	addi	sp,sp,32
    7cb2:	8082                	ret
    7cb4:	401c                	lw	a5,0(s0)
    7cb6:	8f85                	sub	a5,a5,s1
    7cb8:	0207cf63          	bltz	a5,7cf6 <_malloc_r+0xba>
    7cbc:	46ad                	li	a3,11
    7cbe:	00f6f663          	bgeu	a3,a5,7cca <_malloc_r+0x8e>
    7cc2:	c01c                	sw	a5,0(s0)
    7cc4:	943e                	add	s0,s0,a5
    7cc6:	c004                	sw	s1,0(s0)
    7cc8:	a031                	j	7cd4 <_malloc_r+0x98>
    7cca:	405c                	lw	a5,4(s0)
    7ccc:	02871363          	bne	a4,s0,7cf2 <_malloc_r+0xb6>
    7cd0:	88f1ac23          	sw	a5,-1896(gp) # 20000570 <__malloc_free_list>
    7cd4:	854a                	mv	a0,s2
    7cd6:	547000ef          	jal	ra,8a1c <__malloc_unlock>
    7cda:	00b40513          	addi	a0,s0,11
    7cde:	00440793          	addi	a5,s0,4
    7ce2:	9961                	andi	a0,a0,-8
    7ce4:	40f50733          	sub	a4,a0,a5
    7ce8:	df5d                	beqz	a4,7ca6 <_malloc_r+0x6a>
    7cea:	943a                	add	s0,s0,a4
    7cec:	8f89                	sub	a5,a5,a0
    7cee:	c01c                	sw	a5,0(s0)
    7cf0:	bf5d                	j	7ca6 <_malloc_r+0x6a>
    7cf2:	c35c                	sw	a5,4(a4)
    7cf4:	b7c5                	j	7cd4 <_malloc_r+0x98>
    7cf6:	8722                	mv	a4,s0
    7cf8:	4040                	lw	s0,4(s0)
    7cfa:	bf85                	j	7c6a <_malloc_r+0x2e>
    7cfc:	00350413          	addi	s0,a0,3
    7d00:	9871                	andi	s0,s0,-4
    7d02:	fc8502e3          	beq	a0,s0,7cc6 <_malloc_r+0x8a>
    7d06:	40a405b3          	sub	a1,s0,a0
    7d0a:	854a                	mv	a0,s2
    7d0c:	27f000ef          	jal	ra,878a <_sbrk_r>
    7d10:	fb351be3          	bne	a0,s3,7cc6 <_malloc_r+0x8a>
    7d14:	bfad                	j	7c8e <_malloc_r+0x52>

00007d16 <__ssputs_r>:
    7d16:	1101                	addi	sp,sp,-32
    7d18:	c84a                	sw	s2,16(sp)
    7d1a:	0085a903          	lw	s2,8(a1)
    7d1e:	cc22                	sw	s0,24(sp)
    7d20:	c452                	sw	s4,8(sp)
    7d22:	c05a                	sw	s6,0(sp)
    7d24:	ce06                	sw	ra,28(sp)
    7d26:	ca26                	sw	s1,20(sp)
    7d28:	c64e                	sw	s3,12(sp)
    7d2a:	c256                	sw	s5,4(sp)
    7d2c:	842e                	mv	s0,a1
    7d2e:	8b32                	mv	s6,a2
    7d30:	8a36                	mv	s4,a3
    7d32:	0926e963          	bltu	a3,s2,7dc4 <__ssputs_r+0xae>
    7d36:	25de                	lhu	a5,12(a1)
    7d38:	4807f713          	andi	a4,a5,1152
    7d3c:	c351                	beqz	a4,7dc0 <__ssputs_r+0xaa>
    7d3e:	4004                	lw	s1,0(s0)
    7d40:	498c                	lw	a1,16(a1)
    7d42:	4858                	lw	a4,20(s0)
    7d44:	8aaa                	mv	s5,a0
    7d46:	40b489b3          	sub	s3,s1,a1
    7d4a:	448d                	li	s1,3
    7d4c:	02e484b3          	mul	s1,s1,a4
    7d50:	4709                	li	a4,2
    7d52:	02e4c4b3          	div	s1,s1,a4
    7d56:	00168713          	addi	a4,a3,1
    7d5a:	974e                	add	a4,a4,s3
    7d5c:	00e4f363          	bgeu	s1,a4,7d62 <__ssputs_r+0x4c>
    7d60:	84ba                	mv	s1,a4
    7d62:	4007f793          	andi	a5,a5,1024
    7d66:	cfbd                	beqz	a5,7de4 <__ssputs_r+0xce>
    7d68:	85a6                	mv	a1,s1
    7d6a:	8556                	mv	a0,s5
    7d6c:	ed1ff0ef          	jal	ra,7c3c <_malloc_r>
    7d70:	892a                	mv	s2,a0
    7d72:	e11d                	bnez	a0,7d98 <__ssputs_r+0x82>
    7d74:	47b1                	li	a5,12
    7d76:	00faa023          	sw	a5,0(s5)
    7d7a:	245e                	lhu	a5,12(s0)
    7d7c:	557d                	li	a0,-1
    7d7e:	0407e793          	ori	a5,a5,64
    7d82:	a45e                	sh	a5,12(s0)
    7d84:	40f2                	lw	ra,28(sp)
    7d86:	4462                	lw	s0,24(sp)
    7d88:	44d2                	lw	s1,20(sp)
    7d8a:	4942                	lw	s2,16(sp)
    7d8c:	49b2                	lw	s3,12(sp)
    7d8e:	4a22                	lw	s4,8(sp)
    7d90:	4a92                	lw	s5,4(sp)
    7d92:	4b02                	lw	s6,0(sp)
    7d94:	6105                	addi	sp,sp,32
    7d96:	8082                	ret
    7d98:	480c                	lw	a1,16(s0)
    7d9a:	864e                	mv	a2,s3
    7d9c:	ed4fd0ef          	jal	ra,5470 <memcpy>
    7da0:	245e                	lhu	a5,12(s0)
    7da2:	b7f7f793          	andi	a5,a5,-1153
    7da6:	0807e793          	ori	a5,a5,128
    7daa:	a45e                	sh	a5,12(s0)
    7dac:	01242823          	sw	s2,16(s0)
    7db0:	c844                	sw	s1,20(s0)
    7db2:	994e                	add	s2,s2,s3
    7db4:	413484b3          	sub	s1,s1,s3
    7db8:	01242023          	sw	s2,0(s0)
    7dbc:	c404                	sw	s1,8(s0)
    7dbe:	8952                	mv	s2,s4
    7dc0:	012a7363          	bgeu	s4,s2,7dc6 <__ssputs_r+0xb0>
    7dc4:	8952                	mv	s2,s4
    7dc6:	4008                	lw	a0,0(s0)
    7dc8:	864a                	mv	a2,s2
    7dca:	85da                	mv	a1,s6
    7dcc:	409000ef          	jal	ra,89d4 <memmove>
    7dd0:	441c                	lw	a5,8(s0)
    7dd2:	4501                	li	a0,0
    7dd4:	412787b3          	sub	a5,a5,s2
    7dd8:	c41c                	sw	a5,8(s0)
    7dda:	401c                	lw	a5,0(s0)
    7ddc:	993e                	add	s2,s2,a5
    7dde:	01242023          	sw	s2,0(s0)
    7de2:	b74d                	j	7d84 <__ssputs_r+0x6e>
    7de4:	8626                	mv	a2,s1
    7de6:	8556                	mv	a0,s5
    7de8:	437000ef          	jal	ra,8a1e <_realloc_r>
    7dec:	892a                	mv	s2,a0
    7dee:	fd5d                	bnez	a0,7dac <__ssputs_r+0x96>
    7df0:	480c                	lw	a1,16(s0)
    7df2:	8556                	mv	a0,s5
    7df4:	da1ff0ef          	jal	ra,7b94 <_free_r>
    7df8:	bfb5                	j	7d74 <__ssputs_r+0x5e>

00007dfa <_svfiprintf_r>:
    7dfa:	25de                	lhu	a5,12(a1)
    7dfc:	7171                	addi	sp,sp,-176
    7dfe:	d326                	sw	s1,164(sp)
    7e00:	d14a                	sw	s2,160(sp)
    7e02:	cf4e                	sw	s3,156(sp)
    7e04:	d706                	sw	ra,172(sp)
    7e06:	d522                	sw	s0,168(sp)
    7e08:	cd52                	sw	s4,152(sp)
    7e0a:	cb56                	sw	s5,148(sp)
    7e0c:	c95a                	sw	s6,144(sp)
    7e0e:	c75e                	sw	s7,140(sp)
    7e10:	c562                	sw	s8,136(sp)
    7e12:	c366                	sw	s9,132(sp)
    7e14:	0807f793          	andi	a5,a5,128
    7e18:	89aa                	mv	s3,a0
    7e1a:	892e                	mv	s2,a1
    7e1c:	84b2                	mv	s1,a2
    7e1e:	c3b9                	beqz	a5,7e64 <_svfiprintf_r+0x6a>
    7e20:	499c                	lw	a5,16(a1)
    7e22:	e3a9                	bnez	a5,7e64 <_svfiprintf_r+0x6a>
    7e24:	04000593          	li	a1,64
    7e28:	c636                	sw	a3,12(sp)
    7e2a:	e13ff0ef          	jal	ra,7c3c <_malloc_r>
    7e2e:	00a92023          	sw	a0,0(s2)
    7e32:	00a92823          	sw	a0,16(s2)
    7e36:	46b2                	lw	a3,12(sp)
    7e38:	e115                	bnez	a0,7e5c <_svfiprintf_r+0x62>
    7e3a:	47b1                	li	a5,12
    7e3c:	00f9a023          	sw	a5,0(s3)
    7e40:	557d                	li	a0,-1
    7e42:	50ba                	lw	ra,172(sp)
    7e44:	542a                	lw	s0,168(sp)
    7e46:	549a                	lw	s1,164(sp)
    7e48:	590a                	lw	s2,160(sp)
    7e4a:	49fa                	lw	s3,156(sp)
    7e4c:	4a6a                	lw	s4,152(sp)
    7e4e:	4ada                	lw	s5,148(sp)
    7e50:	4b4a                	lw	s6,144(sp)
    7e52:	4bba                	lw	s7,140(sp)
    7e54:	4c2a                	lw	s8,136(sp)
    7e56:	4c9a                	lw	s9,132(sp)
    7e58:	614d                	addi	sp,sp,176
    7e5a:	8082                	ret
    7e5c:	04000793          	li	a5,64
    7e60:	00f92a23          	sw	a5,20(s2)
    7e64:	02000793          	li	a5,32
    7e68:	02f10ca3          	sb	a5,57(sp)
    7e6c:	03000793          	li	a5,48
    7e70:	da02                	sw	zero,52(sp)
    7e72:	02f10d23          	sb	a5,58(sp)
    7e76:	ce36                	sw	a3,28(sp)
    7e78:	02500b93          	li	s7,37
    7e7c:	00005a97          	auipc	s5,0x5
    7e80:	8b0a8a93          	addi	s5,s5,-1872 # c72c <p05.3319+0xc>
    7e84:	4c05                	li	s8,1
    7e86:	4b29                	li	s6,10
    7e88:	8426                	mv	s0,s1
    7e8a:	201c                	lbu	a5,0(s0)
    7e8c:	c399                	beqz	a5,7e92 <_svfiprintf_r+0x98>
    7e8e:	09779963          	bne	a5,s7,7f20 <_svfiprintf_r+0x126>
    7e92:	40940cb3          	sub	s9,s0,s1
    7e96:	000c8e63          	beqz	s9,7eb2 <_svfiprintf_r+0xb8>
    7e9a:	86e6                	mv	a3,s9
    7e9c:	8626                	mv	a2,s1
    7e9e:	85ca                	mv	a1,s2
    7ea0:	854e                	mv	a0,s3
    7ea2:	e75ff0ef          	jal	ra,7d16 <__ssputs_r>
    7ea6:	57fd                	li	a5,-1
    7ea8:	18f50b63          	beq	a0,a5,803e <_svfiprintf_r+0x244>
    7eac:	56d2                	lw	a3,52(sp)
    7eae:	96e6                	add	a3,a3,s9
    7eb0:	da36                	sw	a3,52(sp)
    7eb2:	201c                	lbu	a5,0(s0)
    7eb4:	18078563          	beqz	a5,803e <_svfiprintf_r+0x244>
    7eb8:	57fd                	li	a5,-1
    7eba:	00140493          	addi	s1,s0,1
    7ebe:	d002                	sw	zero,32(sp)
    7ec0:	d602                	sw	zero,44(sp)
    7ec2:	d23e                	sw	a5,36(sp)
    7ec4:	d402                	sw	zero,40(sp)
    7ec6:	060101a3          	sb	zero,99(sp)
    7eca:	dc82                	sw	zero,120(sp)
    7ecc:	208c                	lbu	a1,0(s1)
    7ece:	4615                	li	a2,5
    7ed0:	8556                	mv	a0,s5
    7ed2:	2eb000ef          	jal	ra,89bc <memchr>
    7ed6:	00148413          	addi	s0,s1,1
    7eda:	5782                	lw	a5,32(sp)
    7edc:	e521                	bnez	a0,7f24 <_svfiprintf_r+0x12a>
    7ede:	0107f713          	andi	a4,a5,16
    7ee2:	c709                	beqz	a4,7eec <_svfiprintf_r+0xf2>
    7ee4:	02000713          	li	a4,32
    7ee8:	06e101a3          	sb	a4,99(sp)
    7eec:	0087f713          	andi	a4,a5,8
    7ef0:	c709                	beqz	a4,7efa <_svfiprintf_r+0x100>
    7ef2:	02b00713          	li	a4,43
    7ef6:	06e101a3          	sb	a4,99(sp)
    7efa:	2094                	lbu	a3,0(s1)
    7efc:	02a00713          	li	a4,42
    7f00:	02e68a63          	beq	a3,a4,7f34 <_svfiprintf_r+0x13a>
    7f04:	57b2                	lw	a5,44(sp)
    7f06:	8426                	mv	s0,s1
    7f08:	4681                	li	a3,0
    7f0a:	4625                	li	a2,9
    7f0c:	2018                	lbu	a4,0(s0)
    7f0e:	00140593          	addi	a1,s0,1
    7f12:	fd070713          	addi	a4,a4,-48 # ffefffd0 <_eusrstack+0xdfef7fd0>
    7f16:	06e67263          	bgeu	a2,a4,7f7a <_svfiprintf_r+0x180>
    7f1a:	c68d                	beqz	a3,7f44 <_svfiprintf_r+0x14a>
    7f1c:	d63e                	sw	a5,44(sp)
    7f1e:	a01d                	j	7f44 <_svfiprintf_r+0x14a>
    7f20:	0405                	addi	s0,s0,1
    7f22:	b7a5                	j	7e8a <_svfiprintf_r+0x90>
    7f24:	41550533          	sub	a0,a0,s5
    7f28:	00ac1533          	sll	a0,s8,a0
    7f2c:	8fc9                	or	a5,a5,a0
    7f2e:	d03e                	sw	a5,32(sp)
    7f30:	84a2                	mv	s1,s0
    7f32:	bf69                	j	7ecc <_svfiprintf_r+0xd2>
    7f34:	4772                	lw	a4,28(sp)
    7f36:	00470693          	addi	a3,a4,4
    7f3a:	4318                	lw	a4,0(a4)
    7f3c:	ce36                	sw	a3,28(sp)
    7f3e:	02074763          	bltz	a4,7f6c <_svfiprintf_r+0x172>
    7f42:	d63a                	sw	a4,44(sp)
    7f44:	2018                	lbu	a4,0(s0)
    7f46:	02e00793          	li	a5,46
    7f4a:	04f71d63          	bne	a4,a5,7fa4 <_svfiprintf_r+0x1aa>
    7f4e:	3018                	lbu	a4,1(s0)
    7f50:	02a00793          	li	a5,42
    7f54:	02f71b63          	bne	a4,a5,7f8a <_svfiprintf_r+0x190>
    7f58:	47f2                	lw	a5,28(sp)
    7f5a:	0409                	addi	s0,s0,2
    7f5c:	00478713          	addi	a4,a5,4 # 80000004 <_eusrstack+0x5fff8004>
    7f60:	439c                	lw	a5,0(a5)
    7f62:	ce3a                	sw	a4,28(sp)
    7f64:	0207c163          	bltz	a5,7f86 <_svfiprintf_r+0x18c>
    7f68:	d23e                	sw	a5,36(sp)
    7f6a:	a82d                	j	7fa4 <_svfiprintf_r+0x1aa>
    7f6c:	40e00733          	neg	a4,a4
    7f70:	0027e793          	ori	a5,a5,2
    7f74:	d63a                	sw	a4,44(sp)
    7f76:	d03e                	sw	a5,32(sp)
    7f78:	b7f1                	j	7f44 <_svfiprintf_r+0x14a>
    7f7a:	036787b3          	mul	a5,a5,s6
    7f7e:	4685                	li	a3,1
    7f80:	842e                	mv	s0,a1
    7f82:	97ba                	add	a5,a5,a4
    7f84:	b761                	j	7f0c <_svfiprintf_r+0x112>
    7f86:	57fd                	li	a5,-1
    7f88:	b7c5                	j	7f68 <_svfiprintf_r+0x16e>
    7f8a:	0405                	addi	s0,s0,1
    7f8c:	d202                	sw	zero,36(sp)
    7f8e:	4681                	li	a3,0
    7f90:	4781                	li	a5,0
    7f92:	4625                	li	a2,9
    7f94:	2018                	lbu	a4,0(s0)
    7f96:	00140593          	addi	a1,s0,1
    7f9a:	fd070713          	addi	a4,a4,-48
    7f9e:	06e67663          	bgeu	a2,a4,800a <_svfiprintf_r+0x210>
    7fa2:	f2f9                	bnez	a3,7f68 <_svfiprintf_r+0x16e>
    7fa4:	200c                	lbu	a1,0(s0)
    7fa6:	460d                	li	a2,3
    7fa8:	00004517          	auipc	a0,0x4
    7fac:	78c50513          	addi	a0,a0,1932 # c734 <p05.3319+0x14>
    7fb0:	20d000ef          	jal	ra,89bc <memchr>
    7fb4:	cd11                	beqz	a0,7fd0 <_svfiprintf_r+0x1d6>
    7fb6:	00004797          	auipc	a5,0x4
    7fba:	77e78793          	addi	a5,a5,1918 # c734 <p05.3319+0x14>
    7fbe:	8d1d                	sub	a0,a0,a5
    7fc0:	04000793          	li	a5,64
    7fc4:	00a797b3          	sll	a5,a5,a0
    7fc8:	5502                	lw	a0,32(sp)
    7fca:	0405                	addi	s0,s0,1
    7fcc:	8d5d                	or	a0,a0,a5
    7fce:	d02a                	sw	a0,32(sp)
    7fd0:	200c                	lbu	a1,0(s0)
    7fd2:	4619                	li	a2,6
    7fd4:	00004517          	auipc	a0,0x4
    7fd8:	76450513          	addi	a0,a0,1892 # c738 <p05.3319+0x18>
    7fdc:	00140493          	addi	s1,s0,1
    7fe0:	02b10c23          	sb	a1,56(sp)
    7fe4:	1d9000ef          	jal	ra,89bc <memchr>
    7fe8:	c525                	beqz	a0,8050 <_svfiprintf_r+0x256>
    7fea:	ffff8797          	auipc	a5,0xffff8
    7fee:	01678793          	addi	a5,a5,22 # 0 <_sinit>
    7ff2:	e795                	bnez	a5,801e <_svfiprintf_r+0x224>
    7ff4:	5702                	lw	a4,32(sp)
    7ff6:	47f2                	lw	a5,28(sp)
    7ff8:	10077713          	andi	a4,a4,256
    7ffc:	cf09                	beqz	a4,8016 <_svfiprintf_r+0x21c>
    7ffe:	0791                	addi	a5,a5,4
    8000:	ce3e                	sw	a5,28(sp)
    8002:	57d2                	lw	a5,52(sp)
    8004:	97d2                	add	a5,a5,s4
    8006:	da3e                	sw	a5,52(sp)
    8008:	b541                	j	7e88 <_svfiprintf_r+0x8e>
    800a:	036787b3          	mul	a5,a5,s6
    800e:	4685                	li	a3,1
    8010:	842e                	mv	s0,a1
    8012:	97ba                	add	a5,a5,a4
    8014:	b741                	j	7f94 <_svfiprintf_r+0x19a>
    8016:	079d                	addi	a5,a5,7
    8018:	9be1                	andi	a5,a5,-8
    801a:	07a1                	addi	a5,a5,8
    801c:	b7d5                	j	8000 <_svfiprintf_r+0x206>
    801e:	0878                	addi	a4,sp,28
    8020:	00000697          	auipc	a3,0x0
    8024:	cf668693          	addi	a3,a3,-778 # 7d16 <__ssputs_r>
    8028:	864a                	mv	a2,s2
    802a:	100c                	addi	a1,sp,32
    802c:	854e                	mv	a0,s3
    802e:	00000097          	auipc	ra,0x0
    8032:	000000e7          	jalr	zero # 0 <_sinit>
    8036:	57fd                	li	a5,-1
    8038:	8a2a                	mv	s4,a0
    803a:	fcf514e3          	bne	a0,a5,8002 <_svfiprintf_r+0x208>
    803e:	00c95783          	lhu	a5,12(s2)
    8042:	557d                	li	a0,-1
    8044:	0407f793          	andi	a5,a5,64
    8048:	de079de3          	bnez	a5,7e42 <_svfiprintf_r+0x48>
    804c:	5552                	lw	a0,52(sp)
    804e:	bbd5                	j	7e42 <_svfiprintf_r+0x48>
    8050:	0878                	addi	a4,sp,28
    8052:	00000697          	auipc	a3,0x0
    8056:	cc468693          	addi	a3,a3,-828 # 7d16 <__ssputs_r>
    805a:	864a                	mv	a2,s2
    805c:	100c                	addi	a1,sp,32
    805e:	854e                	mv	a0,s3
    8060:	2111                	jal	8464 <_printf_i>
    8062:	bfd1                	j	8036 <_svfiprintf_r+0x23c>

00008064 <__sfputc_r>:
    8064:	461c                	lw	a5,8(a2)
    8066:	17fd                	addi	a5,a5,-1
    8068:	c61c                	sw	a5,8(a2)
    806a:	0007da63          	bgez	a5,807e <__sfputc_r+0x1a>
    806e:	4e18                	lw	a4,24(a2)
    8070:	00e7c563          	blt	a5,a4,807a <__sfputc_r+0x16>
    8074:	47a9                	li	a5,10
    8076:	00f59463          	bne	a1,a5,807e <__sfputc_r+0x1a>
    807a:	b8afe06f          	j	6404 <__swbuf_r>
    807e:	421c                	lw	a5,0(a2)
    8080:	852e                	mv	a0,a1
    8082:	00178713          	addi	a4,a5,1
    8086:	c218                	sw	a4,0(a2)
    8088:	a38c                	sb	a1,0(a5)
    808a:	8082                	ret

0000808c <__sfputs_r>:
    808c:	1101                	addi	sp,sp,-32
    808e:	cc22                	sw	s0,24(sp)
    8090:	ca26                	sw	s1,20(sp)
    8092:	c84a                	sw	s2,16(sp)
    8094:	c64e                	sw	s3,12(sp)
    8096:	c452                	sw	s4,8(sp)
    8098:	ce06                	sw	ra,28(sp)
    809a:	892a                	mv	s2,a0
    809c:	89ae                	mv	s3,a1
    809e:	8432                	mv	s0,a2
    80a0:	00d604b3          	add	s1,a2,a3
    80a4:	5a7d                	li	s4,-1
    80a6:	00941463          	bne	s0,s1,80ae <__sfputs_r+0x22>
    80aa:	4501                	li	a0,0
    80ac:	a809                	j	80be <__sfputs_r+0x32>
    80ae:	200c                	lbu	a1,0(s0)
    80b0:	864e                	mv	a2,s3
    80b2:	854a                	mv	a0,s2
    80b4:	fb1ff0ef          	jal	ra,8064 <__sfputc_r>
    80b8:	0405                	addi	s0,s0,1
    80ba:	ff4516e3          	bne	a0,s4,80a6 <__sfputs_r+0x1a>
    80be:	40f2                	lw	ra,28(sp)
    80c0:	4462                	lw	s0,24(sp)
    80c2:	44d2                	lw	s1,20(sp)
    80c4:	4942                	lw	s2,16(sp)
    80c6:	49b2                	lw	s3,12(sp)
    80c8:	4a22                	lw	s4,8(sp)
    80ca:	6105                	addi	sp,sp,32
    80cc:	8082                	ret

000080ce <_vfiprintf_r>:
    80ce:	7135                	addi	sp,sp,-160
    80d0:	cd22                	sw	s0,152(sp)
    80d2:	cb26                	sw	s1,148(sp)
    80d4:	c94a                	sw	s2,144(sp)
    80d6:	c74e                	sw	s3,140(sp)
    80d8:	cf06                	sw	ra,156(sp)
    80da:	c552                	sw	s4,136(sp)
    80dc:	c356                	sw	s5,132(sp)
    80de:	c15a                	sw	s6,128(sp)
    80e0:	dede                	sw	s7,124(sp)
    80e2:	dce2                	sw	s8,120(sp)
    80e4:	dae6                	sw	s9,116(sp)
    80e6:	89aa                	mv	s3,a0
    80e8:	84ae                	mv	s1,a1
    80ea:	8932                	mv	s2,a2
    80ec:	8436                	mv	s0,a3
    80ee:	c509                	beqz	a0,80f8 <_vfiprintf_r+0x2a>
    80f0:	4d1c                	lw	a5,24(a0)
    80f2:	e399                	bnez	a5,80f8 <_vfiprintf_r+0x2a>
    80f4:	f1cfe0ef          	jal	ra,6810 <__sinit>
    80f8:	00004797          	auipc	a5,0x4
    80fc:	4e878793          	addi	a5,a5,1256 # c5e0 <__sf_fake_stdin>
    8100:	0cf49963          	bne	s1,a5,81d2 <_vfiprintf_r+0x104>
    8104:	0049a483          	lw	s1,4(s3)
    8108:	24de                	lhu	a5,12(s1)
    810a:	8ba1                	andi	a5,a5,8
    810c:	c7ed                	beqz	a5,81f6 <_vfiprintf_r+0x128>
    810e:	489c                	lw	a5,16(s1)
    8110:	c3fd                	beqz	a5,81f6 <_vfiprintf_r+0x128>
    8112:	02000793          	li	a5,32
    8116:	02f104a3          	sb	a5,41(sp)
    811a:	03000793          	li	a5,48
    811e:	d202                	sw	zero,36(sp)
    8120:	02f10523          	sb	a5,42(sp)
    8124:	c622                	sw	s0,12(sp)
    8126:	02500b93          	li	s7,37
    812a:	00004a97          	auipc	s5,0x4
    812e:	602a8a93          	addi	s5,s5,1538 # c72c <p05.3319+0xc>
    8132:	4c05                	li	s8,1
    8134:	4b29                	li	s6,10
    8136:	844a                	mv	s0,s2
    8138:	201c                	lbu	a5,0(s0)
    813a:	c399                	beqz	a5,8140 <_vfiprintf_r+0x72>
    813c:	0f779063          	bne	a5,s7,821c <_vfiprintf_r+0x14e>
    8140:	41240cb3          	sub	s9,s0,s2
    8144:	000c8e63          	beqz	s9,8160 <_vfiprintf_r+0x92>
    8148:	86e6                	mv	a3,s9
    814a:	864a                	mv	a2,s2
    814c:	85a6                	mv	a1,s1
    814e:	854e                	mv	a0,s3
    8150:	f3dff0ef          	jal	ra,808c <__sfputs_r>
    8154:	57fd                	li	a5,-1
    8156:	1ef50063          	beq	a0,a5,8336 <_vfiprintf_r+0x268>
    815a:	5692                	lw	a3,36(sp)
    815c:	96e6                	add	a3,a3,s9
    815e:	d236                	sw	a3,36(sp)
    8160:	201c                	lbu	a5,0(s0)
    8162:	1c078a63          	beqz	a5,8336 <_vfiprintf_r+0x268>
    8166:	57fd                	li	a5,-1
    8168:	00140913          	addi	s2,s0,1
    816c:	c802                	sw	zero,16(sp)
    816e:	ce02                	sw	zero,28(sp)
    8170:	ca3e                	sw	a5,20(sp)
    8172:	cc02                	sw	zero,24(sp)
    8174:	040109a3          	sb	zero,83(sp)
    8178:	d482                	sw	zero,104(sp)
    817a:	00094583          	lbu	a1,0(s2)
    817e:	4615                	li	a2,5
    8180:	8556                	mv	a0,s5
    8182:	03b000ef          	jal	ra,89bc <memchr>
    8186:	00190413          	addi	s0,s2,1
    818a:	47c2                	lw	a5,16(sp)
    818c:	e951                	bnez	a0,8220 <_vfiprintf_r+0x152>
    818e:	0107f713          	andi	a4,a5,16
    8192:	c709                	beqz	a4,819c <_vfiprintf_r+0xce>
    8194:	02000713          	li	a4,32
    8198:	04e109a3          	sb	a4,83(sp)
    819c:	0087f713          	andi	a4,a5,8
    81a0:	c709                	beqz	a4,81aa <_vfiprintf_r+0xdc>
    81a2:	02b00713          	li	a4,43
    81a6:	04e109a3          	sb	a4,83(sp)
    81aa:	00094683          	lbu	a3,0(s2)
    81ae:	02a00713          	li	a4,42
    81b2:	06e68f63          	beq	a3,a4,8230 <_vfiprintf_r+0x162>
    81b6:	47f2                	lw	a5,28(sp)
    81b8:	844a                	mv	s0,s2
    81ba:	4681                	li	a3,0
    81bc:	4625                	li	a2,9
    81be:	2018                	lbu	a4,0(s0)
    81c0:	00140593          	addi	a1,s0,1
    81c4:	fd070713          	addi	a4,a4,-48
    81c8:	0ae67763          	bgeu	a2,a4,8276 <_vfiprintf_r+0x1a8>
    81cc:	cab5                	beqz	a3,8240 <_vfiprintf_r+0x172>
    81ce:	ce3e                	sw	a5,28(sp)
    81d0:	a885                	j	8240 <_vfiprintf_r+0x172>
    81d2:	00004797          	auipc	a5,0x4
    81d6:	42e78793          	addi	a5,a5,1070 # c600 <__sf_fake_stdout>
    81da:	00f49563          	bne	s1,a5,81e4 <_vfiprintf_r+0x116>
    81de:	0089a483          	lw	s1,8(s3)
    81e2:	b71d                	j	8108 <_vfiprintf_r+0x3a>
    81e4:	00004797          	auipc	a5,0x4
    81e8:	3dc78793          	addi	a5,a5,988 # c5c0 <__sf_fake_stderr>
    81ec:	f0f49ee3          	bne	s1,a5,8108 <_vfiprintf_r+0x3a>
    81f0:	00c9a483          	lw	s1,12(s3)
    81f4:	bf11                	j	8108 <_vfiprintf_r+0x3a>
    81f6:	85a6                	mv	a1,s1
    81f8:	854e                	mv	a0,s3
    81fa:	ac6fe0ef          	jal	ra,64c0 <__swsetup_r>
    81fe:	d911                	beqz	a0,8112 <_vfiprintf_r+0x44>
    8200:	557d                	li	a0,-1
    8202:	40fa                	lw	ra,156(sp)
    8204:	446a                	lw	s0,152(sp)
    8206:	44da                	lw	s1,148(sp)
    8208:	494a                	lw	s2,144(sp)
    820a:	49ba                	lw	s3,140(sp)
    820c:	4a2a                	lw	s4,136(sp)
    820e:	4a9a                	lw	s5,132(sp)
    8210:	4b0a                	lw	s6,128(sp)
    8212:	5bf6                	lw	s7,124(sp)
    8214:	5c66                	lw	s8,120(sp)
    8216:	5cd6                	lw	s9,116(sp)
    8218:	610d                	addi	sp,sp,160
    821a:	8082                	ret
    821c:	0405                	addi	s0,s0,1
    821e:	bf29                	j	8138 <_vfiprintf_r+0x6a>
    8220:	41550533          	sub	a0,a0,s5
    8224:	00ac1533          	sll	a0,s8,a0
    8228:	8fc9                	or	a5,a5,a0
    822a:	c83e                	sw	a5,16(sp)
    822c:	8922                	mv	s2,s0
    822e:	b7b1                	j	817a <_vfiprintf_r+0xac>
    8230:	4732                	lw	a4,12(sp)
    8232:	00470693          	addi	a3,a4,4
    8236:	4318                	lw	a4,0(a4)
    8238:	c636                	sw	a3,12(sp)
    823a:	02074763          	bltz	a4,8268 <_vfiprintf_r+0x19a>
    823e:	ce3a                	sw	a4,28(sp)
    8240:	2018                	lbu	a4,0(s0)
    8242:	02e00793          	li	a5,46
    8246:	04f71d63          	bne	a4,a5,82a0 <_vfiprintf_r+0x1d2>
    824a:	3018                	lbu	a4,1(s0)
    824c:	02a00793          	li	a5,42
    8250:	02f71b63          	bne	a4,a5,8286 <_vfiprintf_r+0x1b8>
    8254:	47b2                	lw	a5,12(sp)
    8256:	0409                	addi	s0,s0,2
    8258:	00478713          	addi	a4,a5,4
    825c:	439c                	lw	a5,0(a5)
    825e:	c63a                	sw	a4,12(sp)
    8260:	0207c163          	bltz	a5,8282 <_vfiprintf_r+0x1b4>
    8264:	ca3e                	sw	a5,20(sp)
    8266:	a82d                	j	82a0 <_vfiprintf_r+0x1d2>
    8268:	40e00733          	neg	a4,a4
    826c:	0027e793          	ori	a5,a5,2
    8270:	ce3a                	sw	a4,28(sp)
    8272:	c83e                	sw	a5,16(sp)
    8274:	b7f1                	j	8240 <_vfiprintf_r+0x172>
    8276:	036787b3          	mul	a5,a5,s6
    827a:	4685                	li	a3,1
    827c:	842e                	mv	s0,a1
    827e:	97ba                	add	a5,a5,a4
    8280:	bf3d                	j	81be <_vfiprintf_r+0xf0>
    8282:	57fd                	li	a5,-1
    8284:	b7c5                	j	8264 <_vfiprintf_r+0x196>
    8286:	0405                	addi	s0,s0,1
    8288:	ca02                	sw	zero,20(sp)
    828a:	4681                	li	a3,0
    828c:	4781                	li	a5,0
    828e:	4625                	li	a2,9
    8290:	2018                	lbu	a4,0(s0)
    8292:	00140593          	addi	a1,s0,1
    8296:	fd070713          	addi	a4,a4,-48
    829a:	06e67463          	bgeu	a2,a4,8302 <_vfiprintf_r+0x234>
    829e:	f2f9                	bnez	a3,8264 <_vfiprintf_r+0x196>
    82a0:	200c                	lbu	a1,0(s0)
    82a2:	460d                	li	a2,3
    82a4:	00004517          	auipc	a0,0x4
    82a8:	49050513          	addi	a0,a0,1168 # c734 <p05.3319+0x14>
    82ac:	2f01                	jal	89bc <memchr>
    82ae:	cd11                	beqz	a0,82ca <_vfiprintf_r+0x1fc>
    82b0:	00004797          	auipc	a5,0x4
    82b4:	48478793          	addi	a5,a5,1156 # c734 <p05.3319+0x14>
    82b8:	8d1d                	sub	a0,a0,a5
    82ba:	04000793          	li	a5,64
    82be:	00a797b3          	sll	a5,a5,a0
    82c2:	4542                	lw	a0,16(sp)
    82c4:	0405                	addi	s0,s0,1
    82c6:	8d5d                	or	a0,a0,a5
    82c8:	c82a                	sw	a0,16(sp)
    82ca:	200c                	lbu	a1,0(s0)
    82cc:	4619                	li	a2,6
    82ce:	00004517          	auipc	a0,0x4
    82d2:	46a50513          	addi	a0,a0,1130 # c738 <p05.3319+0x18>
    82d6:	00140913          	addi	s2,s0,1
    82da:	02b10423          	sb	a1,40(sp)
    82de:	2df9                	jal	89bc <memchr>
    82e0:	c135                	beqz	a0,8344 <_vfiprintf_r+0x276>
    82e2:	ffff8797          	auipc	a5,0xffff8
    82e6:	d1e78793          	addi	a5,a5,-738 # 0 <_sinit>
    82ea:	e795                	bnez	a5,8316 <_vfiprintf_r+0x248>
    82ec:	4742                	lw	a4,16(sp)
    82ee:	47b2                	lw	a5,12(sp)
    82f0:	10077713          	andi	a4,a4,256
    82f4:	cf09                	beqz	a4,830e <_vfiprintf_r+0x240>
    82f6:	0791                	addi	a5,a5,4
    82f8:	c63e                	sw	a5,12(sp)
    82fa:	5792                	lw	a5,36(sp)
    82fc:	97d2                	add	a5,a5,s4
    82fe:	d23e                	sw	a5,36(sp)
    8300:	bd1d                	j	8136 <_vfiprintf_r+0x68>
    8302:	036787b3          	mul	a5,a5,s6
    8306:	4685                	li	a3,1
    8308:	842e                	mv	s0,a1
    830a:	97ba                	add	a5,a5,a4
    830c:	b751                	j	8290 <_vfiprintf_r+0x1c2>
    830e:	079d                	addi	a5,a5,7
    8310:	9be1                	andi	a5,a5,-8
    8312:	07a1                	addi	a5,a5,8
    8314:	b7d5                	j	82f8 <_vfiprintf_r+0x22a>
    8316:	0078                	addi	a4,sp,12
    8318:	00000697          	auipc	a3,0x0
    831c:	d7468693          	addi	a3,a3,-652 # 808c <__sfputs_r>
    8320:	8626                	mv	a2,s1
    8322:	080c                	addi	a1,sp,16
    8324:	854e                	mv	a0,s3
    8326:	00000097          	auipc	ra,0x0
    832a:	000000e7          	jalr	zero # 0 <_sinit>
    832e:	57fd                	li	a5,-1
    8330:	8a2a                	mv	s4,a0
    8332:	fcf514e3          	bne	a0,a5,82fa <_vfiprintf_r+0x22c>
    8336:	24de                	lhu	a5,12(s1)
    8338:	0407f793          	andi	a5,a5,64
    833c:	ec0792e3          	bnez	a5,8200 <_vfiprintf_r+0x132>
    8340:	5512                	lw	a0,36(sp)
    8342:	b5c1                	j	8202 <_vfiprintf_r+0x134>
    8344:	0078                	addi	a4,sp,12
    8346:	00000697          	auipc	a3,0x0
    834a:	d4668693          	addi	a3,a3,-698 # 808c <__sfputs_r>
    834e:	8626                	mv	a2,s1
    8350:	080c                	addi	a1,sp,16
    8352:	854e                	mv	a0,s3
    8354:	2a01                	jal	8464 <_printf_i>
    8356:	bfe1                	j	832e <_vfiprintf_r+0x260>

00008358 <_printf_common>:
    8358:	7179                	addi	sp,sp,-48
    835a:	ca56                	sw	s5,20(sp)
    835c:	499c                	lw	a5,16(a1)
    835e:	8aba                	mv	s5,a4
    8360:	4598                	lw	a4,8(a1)
    8362:	d422                	sw	s0,40(sp)
    8364:	d226                	sw	s1,36(sp)
    8366:	ce4e                	sw	s3,28(sp)
    8368:	cc52                	sw	s4,24(sp)
    836a:	d606                	sw	ra,44(sp)
    836c:	d04a                	sw	s2,32(sp)
    836e:	c85a                	sw	s6,16(sp)
    8370:	c65e                	sw	s7,12(sp)
    8372:	89aa                	mv	s3,a0
    8374:	842e                	mv	s0,a1
    8376:	84b2                	mv	s1,a2
    8378:	8a36                	mv	s4,a3
    837a:	00e7d363          	bge	a5,a4,8380 <_printf_common+0x28>
    837e:	87ba                	mv	a5,a4
    8380:	c09c                	sw	a5,0(s1)
    8382:	04344703          	lbu	a4,67(s0)
    8386:	c319                	beqz	a4,838c <_printf_common+0x34>
    8388:	0785                	addi	a5,a5,1
    838a:	c09c                	sw	a5,0(s1)
    838c:	401c                	lw	a5,0(s0)
    838e:	0207f793          	andi	a5,a5,32
    8392:	c781                	beqz	a5,839a <_printf_common+0x42>
    8394:	409c                	lw	a5,0(s1)
    8396:	0789                	addi	a5,a5,2
    8398:	c09c                	sw	a5,0(s1)
    839a:	00042903          	lw	s2,0(s0)
    839e:	00697913          	andi	s2,s2,6
    83a2:	00091a63          	bnez	s2,83b6 <_printf_common+0x5e>
    83a6:	01940b13          	addi	s6,s0,25
    83aa:	5bfd                	li	s7,-1
    83ac:	445c                	lw	a5,12(s0)
    83ae:	4098                	lw	a4,0(s1)
    83b0:	8f99                	sub	a5,a5,a4
    83b2:	04f94c63          	blt	s2,a5,840a <_printf_common+0xb2>
    83b6:	401c                	lw	a5,0(s0)
    83b8:	04344683          	lbu	a3,67(s0)
    83bc:	0207f793          	andi	a5,a5,32
    83c0:	00d036b3          	snez	a3,a3
    83c4:	eba5                	bnez	a5,8434 <_printf_common+0xdc>
    83c6:	04340613          	addi	a2,s0,67
    83ca:	85d2                	mv	a1,s4
    83cc:	854e                	mv	a0,s3
    83ce:	9a82                	jalr	s5
    83d0:	57fd                	li	a5,-1
    83d2:	04f50363          	beq	a0,a5,8418 <_printf_common+0xc0>
    83d6:	401c                	lw	a5,0(s0)
    83d8:	4611                	li	a2,4
    83da:	4098                	lw	a4,0(s1)
    83dc:	8b99                	andi	a5,a5,6
    83de:	4454                	lw	a3,12(s0)
    83e0:	4481                	li	s1,0
    83e2:	00c79763          	bne	a5,a2,83f0 <_printf_common+0x98>
    83e6:	40e684b3          	sub	s1,a3,a4
    83ea:	0004d363          	bgez	s1,83f0 <_printf_common+0x98>
    83ee:	4481                	li	s1,0
    83f0:	441c                	lw	a5,8(s0)
    83f2:	4818                	lw	a4,16(s0)
    83f4:	00f75463          	bge	a4,a5,83fc <_printf_common+0xa4>
    83f8:	8f99                	sub	a5,a5,a4
    83fa:	94be                	add	s1,s1,a5
    83fc:	4901                	li	s2,0
    83fe:	0469                	addi	s0,s0,26
    8400:	5b7d                	li	s6,-1
    8402:	05249863          	bne	s1,s2,8452 <_printf_common+0xfa>
    8406:	4501                	li	a0,0
    8408:	a809                	j	841a <_printf_common+0xc2>
    840a:	4685                	li	a3,1
    840c:	865a                	mv	a2,s6
    840e:	85d2                	mv	a1,s4
    8410:	854e                	mv	a0,s3
    8412:	9a82                	jalr	s5
    8414:	01751e63          	bne	a0,s7,8430 <_printf_common+0xd8>
    8418:	557d                	li	a0,-1
    841a:	50b2                	lw	ra,44(sp)
    841c:	5422                	lw	s0,40(sp)
    841e:	5492                	lw	s1,36(sp)
    8420:	5902                	lw	s2,32(sp)
    8422:	49f2                	lw	s3,28(sp)
    8424:	4a62                	lw	s4,24(sp)
    8426:	4ad2                	lw	s5,20(sp)
    8428:	4b42                	lw	s6,16(sp)
    842a:	4bb2                	lw	s7,12(sp)
    842c:	6145                	addi	sp,sp,48
    842e:	8082                	ret
    8430:	0905                	addi	s2,s2,1
    8432:	bfad                	j	83ac <_printf_common+0x54>
    8434:	00d40733          	add	a4,s0,a3
    8438:	03000613          	li	a2,48
    843c:	04c701a3          	sb	a2,67(a4)
    8440:	04544703          	lbu	a4,69(s0)
    8444:	00168793          	addi	a5,a3,1
    8448:	97a2                	add	a5,a5,s0
    844a:	0689                	addi	a3,a3,2
    844c:	04e781a3          	sb	a4,67(a5)
    8450:	bf9d                	j	83c6 <_printf_common+0x6e>
    8452:	4685                	li	a3,1
    8454:	8622                	mv	a2,s0
    8456:	85d2                	mv	a1,s4
    8458:	854e                	mv	a0,s3
    845a:	9a82                	jalr	s5
    845c:	fb650ee3          	beq	a0,s6,8418 <_printf_common+0xc0>
    8460:	0905                	addi	s2,s2,1
    8462:	b745                	j	8402 <_printf_common+0xaa>

00008464 <_printf_i>:
    8464:	7179                	addi	sp,sp,-48
    8466:	d422                	sw	s0,40(sp)
    8468:	d226                	sw	s1,36(sp)
    846a:	d04a                	sw	s2,32(sp)
    846c:	ce4e                	sw	s3,28(sp)
    846e:	d606                	sw	ra,44(sp)
    8470:	cc52                	sw	s4,24(sp)
    8472:	ca56                	sw	s5,20(sp)
    8474:	c85a                	sw	s6,16(sp)
    8476:	89b6                	mv	s3,a3
    8478:	2d94                	lbu	a3,24(a1)
    847a:	06900793          	li	a5,105
    847e:	8932                	mv	s2,a2
    8480:	84aa                	mv	s1,a0
    8482:	842e                	mv	s0,a1
    8484:	04358613          	addi	a2,a1,67
    8488:	02f68d63          	beq	a3,a5,84c2 <_printf_i+0x5e>
    848c:	06d7e263          	bltu	a5,a3,84f0 <_printf_i+0x8c>
    8490:	05800793          	li	a5,88
    8494:	18f68663          	beq	a3,a5,8620 <_printf_i+0x1bc>
    8498:	00d7ed63          	bltu	a5,a3,84b2 <_printf_i+0x4e>
    849c:	20068e63          	beqz	a3,86b8 <_printf_i+0x254>
    84a0:	04300793          	li	a5,67
    84a4:	0af68e63          	beq	a3,a5,8560 <_printf_i+0xfc>
    84a8:	04240a93          	addi	s5,s0,66
    84ac:	04d40123          	sb	a3,66(s0)
    84b0:	a0c9                	j	8572 <_printf_i+0x10e>
    84b2:	06300793          	li	a5,99
    84b6:	0af68563          	beq	a3,a5,8560 <_printf_i+0xfc>
    84ba:	06400793          	li	a5,100
    84be:	fef695e3          	bne	a3,a5,84a8 <_printf_i+0x44>
    84c2:	401c                	lw	a5,0(s0)
    84c4:	4308                	lw	a0,0(a4)
    84c6:	0807f693          	andi	a3,a5,128
    84ca:	00450593          	addi	a1,a0,4
    84ce:	c6c5                	beqz	a3,8576 <_printf_i+0x112>
    84d0:	411c                	lw	a5,0(a0)
    84d2:	c30c                	sw	a1,0(a4)
    84d4:	0007d863          	bgez	a5,84e4 <_printf_i+0x80>
    84d8:	02d00713          	li	a4,45
    84dc:	40f007b3          	neg	a5,a5
    84e0:	04e401a3          	sb	a4,67(s0)
    84e4:	00004697          	auipc	a3,0x4
    84e8:	25c68693          	addi	a3,a3,604 # c740 <p05.3319+0x20>
    84ec:	4729                	li	a4,10
    84ee:	a865                	j	85a6 <_printf_i+0x142>
    84f0:	07000793          	li	a5,112
    84f4:	16f68263          	beq	a3,a5,8658 <_printf_i+0x1f4>
    84f8:	02d7e563          	bltu	a5,a3,8522 <_printf_i+0xbe>
    84fc:	06e00793          	li	a5,110
    8500:	18f68963          	beq	a3,a5,8692 <_printf_i+0x22e>
    8504:	06f00793          	li	a5,111
    8508:	faf690e3          	bne	a3,a5,84a8 <_printf_i+0x44>
    850c:	400c                	lw	a1,0(s0)
    850e:	431c                	lw	a5,0(a4)
    8510:	0805f813          	andi	a6,a1,128
    8514:	00478513          	addi	a0,a5,4
    8518:	06080763          	beqz	a6,8586 <_printf_i+0x122>
    851c:	c308                	sw	a0,0(a4)
    851e:	439c                	lw	a5,0(a5)
    8520:	a885                	j	8590 <_printf_i+0x12c>
    8522:	07500793          	li	a5,117
    8526:	fef683e3          	beq	a3,a5,850c <_printf_i+0xa8>
    852a:	07800793          	li	a5,120
    852e:	12f68963          	beq	a3,a5,8660 <_printf_i+0x1fc>
    8532:	07300793          	li	a5,115
    8536:	f6f699e3          	bne	a3,a5,84a8 <_printf_i+0x44>
    853a:	431c                	lw	a5,0(a4)
    853c:	41d0                	lw	a2,4(a1)
    853e:	4581                	li	a1,0
    8540:	00478693          	addi	a3,a5,4
    8544:	c314                	sw	a3,0(a4)
    8546:	0007aa83          	lw	s5,0(a5)
    854a:	8556                	mv	a0,s5
    854c:	2985                	jal	89bc <memchr>
    854e:	c501                	beqz	a0,8556 <_printf_i+0xf2>
    8550:	41550533          	sub	a0,a0,s5
    8554:	c048                	sw	a0,4(s0)
    8556:	405c                	lw	a5,4(s0)
    8558:	c81c                	sw	a5,16(s0)
    855a:	040401a3          	sb	zero,67(s0)
    855e:	a861                	j	85f6 <_printf_i+0x192>
    8560:	431c                	lw	a5,0(a4)
    8562:	04240a93          	addi	s5,s0,66
    8566:	00478693          	addi	a3,a5,4
    856a:	439c                	lw	a5,0(a5)
    856c:	c314                	sw	a3,0(a4)
    856e:	04f40123          	sb	a5,66(s0)
    8572:	4785                	li	a5,1
    8574:	b7d5                	j	8558 <_printf_i+0xf4>
    8576:	0407f693          	andi	a3,a5,64
    857a:	411c                	lw	a5,0(a0)
    857c:	c30c                	sw	a1,0(a4)
    857e:	dab9                	beqz	a3,84d4 <_printf_i+0x70>
    8580:	07c2                	slli	a5,a5,0x10
    8582:	87c1                	srai	a5,a5,0x10
    8584:	bf81                	j	84d4 <_printf_i+0x70>
    8586:	0405f593          	andi	a1,a1,64
    858a:	c308                	sw	a0,0(a4)
    858c:	d9c9                	beqz	a1,851e <_printf_i+0xba>
    858e:	239e                	lhu	a5,0(a5)
    8590:	06f00713          	li	a4,111
    8594:	0ee68763          	beq	a3,a4,8682 <_printf_i+0x21e>
    8598:	00004697          	auipc	a3,0x4
    859c:	1a868693          	addi	a3,a3,424 # c740 <p05.3319+0x20>
    85a0:	4729                	li	a4,10
    85a2:	040401a3          	sb	zero,67(s0)
    85a6:	404c                	lw	a1,4(s0)
    85a8:	c40c                	sw	a1,8(s0)
    85aa:	0005c563          	bltz	a1,85b4 <_printf_i+0x150>
    85ae:	4008                	lw	a0,0(s0)
    85b0:	996d                	andi	a0,a0,-5
    85b2:	c008                	sw	a0,0(s0)
    85b4:	e399                	bnez	a5,85ba <_printf_i+0x156>
    85b6:	8ab2                	mv	s5,a2
    85b8:	cd89                	beqz	a1,85d2 <_printf_i+0x16e>
    85ba:	8ab2                	mv	s5,a2
    85bc:	02e7f5b3          	remu	a1,a5,a4
    85c0:	1afd                	addi	s5,s5,-1
    85c2:	95b6                	add	a1,a1,a3
    85c4:	218c                	lbu	a1,0(a1)
    85c6:	00ba8023          	sb	a1,0(s5)
    85ca:	02e7d5b3          	divu	a1,a5,a4
    85ce:	0ce7f063          	bgeu	a5,a4,868e <_printf_i+0x22a>
    85d2:	47a1                	li	a5,8
    85d4:	00f71e63          	bne	a4,a5,85f0 <_printf_i+0x18c>
    85d8:	401c                	lw	a5,0(s0)
    85da:	8b85                	andi	a5,a5,1
    85dc:	cb91                	beqz	a5,85f0 <_printf_i+0x18c>
    85de:	4058                	lw	a4,4(s0)
    85e0:	481c                	lw	a5,16(s0)
    85e2:	00e7c763          	blt	a5,a4,85f0 <_printf_i+0x18c>
    85e6:	03000793          	li	a5,48
    85ea:	fefa8fa3          	sb	a5,-1(s5)
    85ee:	1afd                	addi	s5,s5,-1
    85f0:	41560633          	sub	a2,a2,s5
    85f4:	c810                	sw	a2,16(s0)
    85f6:	874e                	mv	a4,s3
    85f8:	86ca                	mv	a3,s2
    85fa:	0070                	addi	a2,sp,12
    85fc:	85a2                	mv	a1,s0
    85fe:	8526                	mv	a0,s1
    8600:	d59ff0ef          	jal	ra,8358 <_printf_common>
    8604:	5a7d                	li	s4,-1
    8606:	0b451d63          	bne	a0,s4,86c0 <_printf_i+0x25c>
    860a:	557d                	li	a0,-1
    860c:	50b2                	lw	ra,44(sp)
    860e:	5422                	lw	s0,40(sp)
    8610:	5492                	lw	s1,36(sp)
    8612:	5902                	lw	s2,32(sp)
    8614:	49f2                	lw	s3,28(sp)
    8616:	4a62                	lw	s4,24(sp)
    8618:	4ad2                	lw	s5,20(sp)
    861a:	4b42                	lw	s6,16(sp)
    861c:	6145                	addi	sp,sp,48
    861e:	8082                	ret
    8620:	04d582a3          	sb	a3,69(a1)
    8624:	00004697          	auipc	a3,0x4
    8628:	11c68693          	addi	a3,a3,284 # c740 <p05.3319+0x20>
    862c:	400c                	lw	a1,0(s0)
    862e:	4308                	lw	a0,0(a4)
    8630:	0805f813          	andi	a6,a1,128
    8634:	411c                	lw	a5,0(a0)
    8636:	0511                	addi	a0,a0,4
    8638:	02080d63          	beqz	a6,8672 <_printf_i+0x20e>
    863c:	c308                	sw	a0,0(a4)
    863e:	0015f713          	andi	a4,a1,1
    8642:	c701                	beqz	a4,864a <_printf_i+0x1e6>
    8644:	0205e593          	ori	a1,a1,32
    8648:	c00c                	sw	a1,0(s0)
    864a:	4741                	li	a4,16
    864c:	fbb9                	bnez	a5,85a2 <_printf_i+0x13e>
    864e:	400c                	lw	a1,0(s0)
    8650:	fdf5f593          	andi	a1,a1,-33
    8654:	c00c                	sw	a1,0(s0)
    8656:	b7b1                	j	85a2 <_printf_i+0x13e>
    8658:	419c                	lw	a5,0(a1)
    865a:	0207e793          	ori	a5,a5,32
    865e:	c19c                	sw	a5,0(a1)
    8660:	07800793          	li	a5,120
    8664:	04f402a3          	sb	a5,69(s0)
    8668:	00004697          	auipc	a3,0x4
    866c:	0ec68693          	addi	a3,a3,236 # c754 <p05.3319+0x34>
    8670:	bf75                	j	862c <_printf_i+0x1c8>
    8672:	0405f813          	andi	a6,a1,64
    8676:	c308                	sw	a0,0(a4)
    8678:	fc0803e3          	beqz	a6,863e <_printf_i+0x1da>
    867c:	07c2                	slli	a5,a5,0x10
    867e:	83c1                	srli	a5,a5,0x10
    8680:	bf7d                	j	863e <_printf_i+0x1da>
    8682:	00004697          	auipc	a3,0x4
    8686:	0be68693          	addi	a3,a3,190 # c740 <p05.3319+0x20>
    868a:	4721                	li	a4,8
    868c:	bf19                	j	85a2 <_printf_i+0x13e>
    868e:	87ae                	mv	a5,a1
    8690:	b735                	j	85bc <_printf_i+0x158>
    8692:	4194                	lw	a3,0(a1)
    8694:	431c                	lw	a5,0(a4)
    8696:	49cc                	lw	a1,20(a1)
    8698:	0806f813          	andi	a6,a3,128
    869c:	00478513          	addi	a0,a5,4
    86a0:	00080663          	beqz	a6,86ac <_printf_i+0x248>
    86a4:	c308                	sw	a0,0(a4)
    86a6:	439c                	lw	a5,0(a5)
    86a8:	c38c                	sw	a1,0(a5)
    86aa:	a039                	j	86b8 <_printf_i+0x254>
    86ac:	c308                	sw	a0,0(a4)
    86ae:	0406f693          	andi	a3,a3,64
    86b2:	439c                	lw	a5,0(a5)
    86b4:	daf5                	beqz	a3,86a8 <_printf_i+0x244>
    86b6:	a38e                	sh	a1,0(a5)
    86b8:	00042823          	sw	zero,16(s0)
    86bc:	8ab2                	mv	s5,a2
    86be:	bf25                	j	85f6 <_printf_i+0x192>
    86c0:	4814                	lw	a3,16(s0)
    86c2:	8656                	mv	a2,s5
    86c4:	85ca                	mv	a1,s2
    86c6:	8526                	mv	a0,s1
    86c8:	9982                	jalr	s3
    86ca:	f54500e3          	beq	a0,s4,860a <_printf_i+0x1a6>
    86ce:	401c                	lw	a5,0(s0)
    86d0:	8b89                	andi	a5,a5,2
    86d2:	e78d                	bnez	a5,86fc <_printf_i+0x298>
    86d4:	47b2                	lw	a5,12(sp)
    86d6:	4448                	lw	a0,12(s0)
    86d8:	f2f55ae3          	bge	a0,a5,860c <_printf_i+0x1a8>
    86dc:	853e                	mv	a0,a5
    86de:	b73d                	j	860c <_printf_i+0x1a8>
    86e0:	4685                	li	a3,1
    86e2:	8656                	mv	a2,s5
    86e4:	85ca                	mv	a1,s2
    86e6:	8526                	mv	a0,s1
    86e8:	9982                	jalr	s3
    86ea:	f36500e3          	beq	a0,s6,860a <_printf_i+0x1a6>
    86ee:	0a05                	addi	s4,s4,1
    86f0:	445c                	lw	a5,12(s0)
    86f2:	4732                	lw	a4,12(sp)
    86f4:	8f99                	sub	a5,a5,a4
    86f6:	fefa45e3          	blt	s4,a5,86e0 <_printf_i+0x27c>
    86fa:	bfe9                	j	86d4 <_printf_i+0x270>
    86fc:	4a01                	li	s4,0
    86fe:	01940a93          	addi	s5,s0,25
    8702:	5b7d                	li	s6,-1
    8704:	b7f5                	j	86f0 <_printf_i+0x28c>

00008706 <_putc_r>:
    8706:	1101                	addi	sp,sp,-32
    8708:	cc22                	sw	s0,24(sp)
    870a:	ce06                	sw	ra,28(sp)
    870c:	842a                	mv	s0,a0
    870e:	c909                	beqz	a0,8720 <_putc_r+0x1a>
    8710:	4d1c                	lw	a5,24(a0)
    8712:	e799                	bnez	a5,8720 <_putc_r+0x1a>
    8714:	c632                	sw	a2,12(sp)
    8716:	c42e                	sw	a1,8(sp)
    8718:	8f8fe0ef          	jal	ra,6810 <__sinit>
    871c:	4632                	lw	a2,12(sp)
    871e:	45a2                	lw	a1,8(sp)
    8720:	00004797          	auipc	a5,0x4
    8724:	ec078793          	addi	a5,a5,-320 # c5e0 <__sf_fake_stdin>
    8728:	02f61663          	bne	a2,a5,8754 <_putc_r+0x4e>
    872c:	4050                	lw	a2,4(s0)
    872e:	461c                	lw	a5,8(a2)
    8730:	17fd                	addi	a5,a5,-1
    8732:	c61c                	sw	a5,8(a2)
    8734:	0407d063          	bgez	a5,8774 <_putc_r+0x6e>
    8738:	4e18                	lw	a4,24(a2)
    873a:	00e7c763          	blt	a5,a4,8748 <_putc_r+0x42>
    873e:	0ff5f793          	andi	a5,a1,255
    8742:	4729                	li	a4,10
    8744:	02e79863          	bne	a5,a4,8774 <_putc_r+0x6e>
    8748:	8522                	mv	a0,s0
    874a:	4462                	lw	s0,24(sp)
    874c:	40f2                	lw	ra,28(sp)
    874e:	6105                	addi	sp,sp,32
    8750:	cb5fd06f          	j	6404 <__swbuf_r>
    8754:	00004797          	auipc	a5,0x4
    8758:	eac78793          	addi	a5,a5,-340 # c600 <__sf_fake_stdout>
    875c:	00f61463          	bne	a2,a5,8764 <_putc_r+0x5e>
    8760:	4410                	lw	a2,8(s0)
    8762:	b7f1                	j	872e <_putc_r+0x28>
    8764:	00004797          	auipc	a5,0x4
    8768:	e5c78793          	addi	a5,a5,-420 # c5c0 <__sf_fake_stderr>
    876c:	fcf611e3          	bne	a2,a5,872e <_putc_r+0x28>
    8770:	4450                	lw	a2,12(s0)
    8772:	bf75                	j	872e <_putc_r+0x28>
    8774:	421c                	lw	a5,0(a2)
    8776:	0ff5f513          	andi	a0,a1,255
    877a:	00178713          	addi	a4,a5,1
    877e:	c218                	sw	a4,0(a2)
    8780:	a38c                	sb	a1,0(a5)
    8782:	40f2                	lw	ra,28(sp)
    8784:	4462                	lw	s0,24(sp)
    8786:	6105                	addi	sp,sp,32
    8788:	8082                	ret

0000878a <_sbrk_r>:
    878a:	1141                	addi	sp,sp,-16
    878c:	c422                	sw	s0,8(sp)
    878e:	842a                	mv	s0,a0
    8790:	852e                	mv	a0,a1
    8792:	1fff9797          	auipc	a5,0x1fff9
    8796:	fe07a923          	sw	zero,-14(a5) # 20001784 <errno>
    879a:	c606                	sw	ra,12(sp)
    879c:	ad9fb0ef          	jal	ra,4274 <_sbrk>
    87a0:	57fd                	li	a5,-1
    87a2:	00f51963          	bne	a0,a5,87b4 <_sbrk_r+0x2a>
    87a6:	1fff9797          	auipc	a5,0x1fff9
    87aa:	fde78793          	addi	a5,a5,-34 # 20001784 <errno>
    87ae:	439c                	lw	a5,0(a5)
    87b0:	c391                	beqz	a5,87b4 <_sbrk_r+0x2a>
    87b2:	c01c                	sw	a5,0(s0)
    87b4:	40b2                	lw	ra,12(sp)
    87b6:	4422                	lw	s0,8(sp)
    87b8:	0141                	addi	sp,sp,16
    87ba:	8082                	ret

000087bc <__sread>:
    87bc:	1141                	addi	sp,sp,-16
    87be:	c422                	sw	s0,8(sp)
    87c0:	842e                	mv	s0,a1
    87c2:	00e59583          	lh	a1,14(a1)
    87c6:	c606                	sw	ra,12(sp)
    87c8:	247d                	jal	8a76 <_read_r>
    87ca:	00054963          	bltz	a0,87dc <__sread+0x20>
    87ce:	487c                	lw	a5,84(s0)
    87d0:	97aa                	add	a5,a5,a0
    87d2:	c87c                	sw	a5,84(s0)
    87d4:	40b2                	lw	ra,12(sp)
    87d6:	4422                	lw	s0,8(sp)
    87d8:	0141                	addi	sp,sp,16
    87da:	8082                	ret
    87dc:	245e                	lhu	a5,12(s0)
    87de:	777d                	lui	a4,0xfffff
    87e0:	177d                	addi	a4,a4,-1
    87e2:	8ff9                	and	a5,a5,a4
    87e4:	a45e                	sh	a5,12(s0)
    87e6:	b7fd                	j	87d4 <__sread+0x18>

000087e8 <__swrite>:
    87e8:	25de                	lhu	a5,12(a1)
    87ea:	1101                	addi	sp,sp,-32
    87ec:	cc22                	sw	s0,24(sp)
    87ee:	ca26                	sw	s1,20(sp)
    87f0:	c84a                	sw	s2,16(sp)
    87f2:	c64e                	sw	s3,12(sp)
    87f4:	ce06                	sw	ra,28(sp)
    87f6:	1007f793          	andi	a5,a5,256
    87fa:	84aa                	mv	s1,a0
    87fc:	842e                	mv	s0,a1
    87fe:	8932                	mv	s2,a2
    8800:	89b6                	mv	s3,a3
    8802:	c791                	beqz	a5,880e <__swrite+0x26>
    8804:	00e59583          	lh	a1,14(a1)
    8808:	4689                	li	a3,2
    880a:	4601                	li	a2,0
    880c:	22bd                	jal	897a <_lseek_r>
    880e:	245e                	lhu	a5,12(s0)
    8810:	777d                	lui	a4,0xfffff
    8812:	177d                	addi	a4,a4,-1
    8814:	8ff9                	and	a5,a5,a4
    8816:	a45e                	sh	a5,12(s0)
    8818:	00e41583          	lh	a1,14(s0)
    881c:	4462                	lw	s0,24(sp)
    881e:	40f2                	lw	ra,28(sp)
    8820:	86ce                	mv	a3,s3
    8822:	864a                	mv	a2,s2
    8824:	49b2                	lw	s3,12(sp)
    8826:	4942                	lw	s2,16(sp)
    8828:	8526                	mv	a0,s1
    882a:	44d2                	lw	s1,20(sp)
    882c:	6105                	addi	sp,sp,32
    882e:	a8bd                	j	88ac <_write_r>

00008830 <__sseek>:
    8830:	1141                	addi	sp,sp,-16
    8832:	c422                	sw	s0,8(sp)
    8834:	842e                	mv	s0,a1
    8836:	00e59583          	lh	a1,14(a1)
    883a:	c606                	sw	ra,12(sp)
    883c:	2a3d                	jal	897a <_lseek_r>
    883e:	57fd                	li	a5,-1
    8840:	245a                	lhu	a4,12(s0)
    8842:	00f51a63          	bne	a0,a5,8856 <__sseek+0x26>
    8846:	77fd                	lui	a5,0xfffff
    8848:	17fd                	addi	a5,a5,-1
    884a:	8ff9                	and	a5,a5,a4
    884c:	a45e                	sh	a5,12(s0)
    884e:	40b2                	lw	ra,12(sp)
    8850:	4422                	lw	s0,8(sp)
    8852:	0141                	addi	sp,sp,16
    8854:	8082                	ret
    8856:	6785                	lui	a5,0x1
    8858:	8fd9                	or	a5,a5,a4
    885a:	a45e                	sh	a5,12(s0)
    885c:	c868                	sw	a0,84(s0)
    885e:	bfc5                	j	884e <__sseek+0x1e>

00008860 <__sclose>:
    8860:	00e59583          	lh	a1,14(a1)
    8864:	a8bd                	j	88e2 <_close_r>

00008866 <strncmp>:
    8866:	c215                	beqz	a2,888a <strncmp+0x24>
    8868:	167d                	addi	a2,a2,-1
    886a:	4701                	li	a4,0
    886c:	00e507b3          	add	a5,a0,a4
    8870:	00e586b3          	add	a3,a1,a4
    8874:	239c                	lbu	a5,0(a5)
    8876:	2294                	lbu	a3,0(a3)
    8878:	00d79663          	bne	a5,a3,8884 <strncmp+0x1e>
    887c:	00c70463          	beq	a4,a2,8884 <strncmp+0x1e>
    8880:	0705                	addi	a4,a4,1
    8882:	f7ed                	bnez	a5,886c <strncmp+0x6>
    8884:	40d78533          	sub	a0,a5,a3
    8888:	8082                	ret
    888a:	4501                	li	a0,0
    888c:	8082                	ret

0000888e <__ascii_wctomb>:
    888e:	cd89                	beqz	a1,88a8 <__ascii_wctomb+0x1a>
    8890:	0ff00793          	li	a5,255
    8894:	00c7f763          	bgeu	a5,a2,88a2 <__ascii_wctomb+0x14>
    8898:	08a00793          	li	a5,138
    889c:	c11c                	sw	a5,0(a0)
    889e:	557d                	li	a0,-1
    88a0:	8082                	ret
    88a2:	a190                	sb	a2,0(a1)
    88a4:	4505                	li	a0,1
    88a6:	8082                	ret
    88a8:	4501                	li	a0,0
    88aa:	8082                	ret

000088ac <_write_r>:
    88ac:	1141                	addi	sp,sp,-16
    88ae:	c422                	sw	s0,8(sp)
    88b0:	842a                	mv	s0,a0
    88b2:	852e                	mv	a0,a1
    88b4:	85b2                	mv	a1,a2
    88b6:	8636                	mv	a2,a3
    88b8:	1fff9797          	auipc	a5,0x1fff9
    88bc:	ec07a623          	sw	zero,-308(a5) # 20001784 <errno>
    88c0:	c606                	sw	ra,12(sp)
    88c2:	975fb0ef          	jal	ra,4236 <_write>
    88c6:	57fd                	li	a5,-1
    88c8:	00f51963          	bne	a0,a5,88da <_write_r+0x2e>
    88cc:	1fff9797          	auipc	a5,0x1fff9
    88d0:	eb878793          	addi	a5,a5,-328 # 20001784 <errno>
    88d4:	439c                	lw	a5,0(a5)
    88d6:	c391                	beqz	a5,88da <_write_r+0x2e>
    88d8:	c01c                	sw	a5,0(s0)
    88da:	40b2                	lw	ra,12(sp)
    88dc:	4422                	lw	s0,8(sp)
    88de:	0141                	addi	sp,sp,16
    88e0:	8082                	ret

000088e2 <_close_r>:
    88e2:	1141                	addi	sp,sp,-16
    88e4:	c422                	sw	s0,8(sp)
    88e6:	842a                	mv	s0,a0
    88e8:	852e                	mv	a0,a1
    88ea:	1fff9797          	auipc	a5,0x1fff9
    88ee:	e807ad23          	sw	zero,-358(a5) # 20001784 <errno>
    88f2:	c606                	sw	ra,12(sp)
    88f4:	613010ef          	jal	ra,a706 <_close>
    88f8:	57fd                	li	a5,-1
    88fa:	00f51963          	bne	a0,a5,890c <_close_r+0x2a>
    88fe:	1fff9797          	auipc	a5,0x1fff9
    8902:	e8678793          	addi	a5,a5,-378 # 20001784 <errno>
    8906:	439c                	lw	a5,0(a5)
    8908:	c391                	beqz	a5,890c <_close_r+0x2a>
    890a:	c01c                	sw	a5,0(s0)
    890c:	40b2                	lw	ra,12(sp)
    890e:	4422                	lw	s0,8(sp)
    8910:	0141                	addi	sp,sp,16
    8912:	8082                	ret

00008914 <_fstat_r>:
    8914:	1141                	addi	sp,sp,-16
    8916:	c422                	sw	s0,8(sp)
    8918:	842a                	mv	s0,a0
    891a:	852e                	mv	a0,a1
    891c:	85b2                	mv	a1,a2
    891e:	1fff9797          	auipc	a5,0x1fff9
    8922:	e607a323          	sw	zero,-410(a5) # 20001784 <errno>
    8926:	c606                	sw	ra,12(sp)
    8928:	5ef010ef          	jal	ra,a716 <_fstat>
    892c:	57fd                	li	a5,-1
    892e:	00f51963          	bne	a0,a5,8940 <_fstat_r+0x2c>
    8932:	1fff9797          	auipc	a5,0x1fff9
    8936:	e5278793          	addi	a5,a5,-430 # 20001784 <errno>
    893a:	439c                	lw	a5,0(a5)
    893c:	c391                	beqz	a5,8940 <_fstat_r+0x2c>
    893e:	c01c                	sw	a5,0(s0)
    8940:	40b2                	lw	ra,12(sp)
    8942:	4422                	lw	s0,8(sp)
    8944:	0141                	addi	sp,sp,16
    8946:	8082                	ret

00008948 <_isatty_r>:
    8948:	1141                	addi	sp,sp,-16
    894a:	c422                	sw	s0,8(sp)
    894c:	842a                	mv	s0,a0
    894e:	852e                	mv	a0,a1
    8950:	1fff9797          	auipc	a5,0x1fff9
    8954:	e207aa23          	sw	zero,-460(a5) # 20001784 <errno>
    8958:	c606                	sw	ra,12(sp)
    895a:	5cd010ef          	jal	ra,a726 <_isatty>
    895e:	57fd                	li	a5,-1
    8960:	00f51963          	bne	a0,a5,8972 <_isatty_r+0x2a>
    8964:	1fff9797          	auipc	a5,0x1fff9
    8968:	e2078793          	addi	a5,a5,-480 # 20001784 <errno>
    896c:	439c                	lw	a5,0(a5)
    896e:	c391                	beqz	a5,8972 <_isatty_r+0x2a>
    8970:	c01c                	sw	a5,0(s0)
    8972:	40b2                	lw	ra,12(sp)
    8974:	4422                	lw	s0,8(sp)
    8976:	0141                	addi	sp,sp,16
    8978:	8082                	ret

0000897a <_lseek_r>:
    897a:	1141                	addi	sp,sp,-16
    897c:	c422                	sw	s0,8(sp)
    897e:	842a                	mv	s0,a0
    8980:	852e                	mv	a0,a1
    8982:	85b2                	mv	a1,a2
    8984:	8636                	mv	a2,a3
    8986:	1fff9797          	auipc	a5,0x1fff9
    898a:	de07af23          	sw	zero,-514(a5) # 20001784 <errno>
    898e:	c606                	sw	ra,12(sp)
    8990:	5a7010ef          	jal	ra,a736 <_lseek>
    8994:	57fd                	li	a5,-1
    8996:	00f51963          	bne	a0,a5,89a8 <_lseek_r+0x2e>
    899a:	1fff9797          	auipc	a5,0x1fff9
    899e:	dea78793          	addi	a5,a5,-534 # 20001784 <errno>
    89a2:	439c                	lw	a5,0(a5)
    89a4:	c391                	beqz	a5,89a8 <_lseek_r+0x2e>
    89a6:	c01c                	sw	a5,0(s0)
    89a8:	40b2                	lw	ra,12(sp)
    89aa:	4422                	lw	s0,8(sp)
    89ac:	0141                	addi	sp,sp,16
    89ae:	8082                	ret

000089b0 <malloc>:
    89b0:	81818793          	addi	a5,gp,-2024 # 200004f0 <_impure_ptr>
    89b4:	85aa                	mv	a1,a0
    89b6:	4388                	lw	a0,0(a5)
    89b8:	a84ff06f          	j	7c3c <_malloc_r>

000089bc <memchr>:
    89bc:	0ff5f593          	andi	a1,a1,255
    89c0:	962a                	add	a2,a2,a0
    89c2:	00c51463          	bne	a0,a2,89ca <memchr+0xe>
    89c6:	4501                	li	a0,0
    89c8:	8082                	ret
    89ca:	211c                	lbu	a5,0(a0)
    89cc:	feb78ee3          	beq	a5,a1,89c8 <memchr+0xc>
    89d0:	0505                	addi	a0,a0,1
    89d2:	bfc5                	j	89c2 <memchr+0x6>

000089d4 <memmove>:
    89d4:	04a5f163          	bgeu	a1,a0,8a16 <memmove+0x42>
    89d8:	00c586b3          	add	a3,a1,a2
    89dc:	02d57d63          	bgeu	a0,a3,8a16 <memmove+0x42>
    89e0:	fff64593          	not	a1,a2
    89e4:	4781                	li	a5,0
    89e6:	17fd                	addi	a5,a5,-1
    89e8:	00f59363          	bne	a1,a5,89ee <memmove+0x1a>
    89ec:	8082                	ret
    89ee:	00f68733          	add	a4,a3,a5
    89f2:	00074803          	lbu	a6,0(a4) # fffff000 <_eusrstack+0xdfff7000>
    89f6:	00c78733          	add	a4,a5,a2
    89fa:	972a                	add	a4,a4,a0
    89fc:	01070023          	sb	a6,0(a4)
    8a00:	b7dd                	j	89e6 <memmove+0x12>
    8a02:	00f58733          	add	a4,a1,a5
    8a06:	2314                	lbu	a3,0(a4)
    8a08:	00f50733          	add	a4,a0,a5
    8a0c:	0785                	addi	a5,a5,1
    8a0e:	a314                	sb	a3,0(a4)
    8a10:	fef619e3          	bne	a2,a5,8a02 <memmove+0x2e>
    8a14:	8082                	ret
    8a16:	4781                	li	a5,0
    8a18:	bfe5                	j	8a10 <memmove+0x3c>

00008a1a <__malloc_lock>:
    8a1a:	8082                	ret

00008a1c <__malloc_unlock>:
    8a1c:	8082                	ret

00008a1e <_realloc_r>:
    8a1e:	e581                	bnez	a1,8a26 <_realloc_r+0x8>
    8a20:	85b2                	mv	a1,a2
    8a22:	a1aff06f          	j	7c3c <_malloc_r>
    8a26:	1101                	addi	sp,sp,-32
    8a28:	cc22                	sw	s0,24(sp)
    8a2a:	ce06                	sw	ra,28(sp)
    8a2c:	ca26                	sw	s1,20(sp)
    8a2e:	c84a                	sw	s2,16(sp)
    8a30:	c64e                	sw	s3,12(sp)
    8a32:	8432                	mv	s0,a2
    8a34:	ee01                	bnez	a2,8a4c <_realloc_r+0x2e>
    8a36:	95eff0ef          	jal	ra,7b94 <_free_r>
    8a3a:	4901                	li	s2,0
    8a3c:	40f2                	lw	ra,28(sp)
    8a3e:	4462                	lw	s0,24(sp)
    8a40:	854a                	mv	a0,s2
    8a42:	44d2                	lw	s1,20(sp)
    8a44:	4942                	lw	s2,16(sp)
    8a46:	49b2                	lw	s3,12(sp)
    8a48:	6105                	addi	sp,sp,32
    8a4a:	8082                	ret
    8a4c:	84ae                	mv	s1,a1
    8a4e:	89aa                	mv	s3,a0
    8a50:	28b1                	jal	8aac <_malloc_usable_size_r>
    8a52:	8926                	mv	s2,s1
    8a54:	fe8574e3          	bgeu	a0,s0,8a3c <_realloc_r+0x1e>
    8a58:	85a2                	mv	a1,s0
    8a5a:	854e                	mv	a0,s3
    8a5c:	9e0ff0ef          	jal	ra,7c3c <_malloc_r>
    8a60:	892a                	mv	s2,a0
    8a62:	dd69                	beqz	a0,8a3c <_realloc_r+0x1e>
    8a64:	85a6                	mv	a1,s1
    8a66:	8622                	mv	a2,s0
    8a68:	a09fc0ef          	jal	ra,5470 <memcpy>
    8a6c:	85a6                	mv	a1,s1
    8a6e:	854e                	mv	a0,s3
    8a70:	924ff0ef          	jal	ra,7b94 <_free_r>
    8a74:	b7e1                	j	8a3c <_realloc_r+0x1e>

00008a76 <_read_r>:
    8a76:	1141                	addi	sp,sp,-16
    8a78:	c422                	sw	s0,8(sp)
    8a7a:	842a                	mv	s0,a0
    8a7c:	852e                	mv	a0,a1
    8a7e:	85b2                	mv	a1,a2
    8a80:	8636                	mv	a2,a3
    8a82:	1fff9797          	auipc	a5,0x1fff9
    8a86:	d007a123          	sw	zero,-766(a5) # 20001784 <errno>
    8a8a:	c606                	sw	ra,12(sp)
    8a8c:	4bb010ef          	jal	ra,a746 <_read>
    8a90:	57fd                	li	a5,-1
    8a92:	00f51963          	bne	a0,a5,8aa4 <_read_r+0x2e>
    8a96:	1fff9797          	auipc	a5,0x1fff9
    8a9a:	cee78793          	addi	a5,a5,-786 # 20001784 <errno>
    8a9e:	439c                	lw	a5,0(a5)
    8aa0:	c391                	beqz	a5,8aa4 <_read_r+0x2e>
    8aa2:	c01c                	sw	a5,0(s0)
    8aa4:	40b2                	lw	ra,12(sp)
    8aa6:	4422                	lw	s0,8(sp)
    8aa8:	0141                	addi	sp,sp,16
    8aaa:	8082                	ret

00008aac <_malloc_usable_size_r>:
    8aac:	ffc5a783          	lw	a5,-4(a1)
    8ab0:	ffc78513          	addi	a0,a5,-4
    8ab4:	0007d563          	bgez	a5,8abe <_malloc_usable_size_r+0x12>
    8ab8:	95aa                	add	a1,a1,a0
    8aba:	419c                	lw	a5,0(a1)
    8abc:	953e                	add	a0,a0,a5
    8abe:	8082                	ret

00008ac0 <__adddf3>:
    8ac0:	00100837          	lui	a6,0x100
    8ac4:	1101                	addi	sp,sp,-32
    8ac6:	187d                	addi	a6,a6,-1
    8ac8:	00b87733          	and	a4,a6,a1
    8acc:	ca26                	sw	s1,20(sp)
    8ace:	00d87833          	and	a6,a6,a3
    8ad2:	0145d493          	srli	s1,a1,0x14
    8ad6:	0146d313          	srli	t1,a3,0x14
    8ada:	00371e13          	slli	t3,a4,0x3
    8ade:	c64e                	sw	s3,12(sp)
    8ae0:	01d55713          	srli	a4,a0,0x1d
    8ae4:	080e                	slli	a6,a6,0x3
    8ae6:	01d65793          	srli	a5,a2,0x1d
    8aea:	7ff4f493          	andi	s1,s1,2047
    8aee:	7ff37313          	andi	t1,t1,2047
    8af2:	ce06                	sw	ra,28(sp)
    8af4:	cc22                	sw	s0,24(sp)
    8af6:	c84a                	sw	s2,16(sp)
    8af8:	01f5d993          	srli	s3,a1,0x1f
    8afc:	01f6de93          	srli	t4,a3,0x1f
    8b00:	01c76733          	or	a4,a4,t3
    8b04:	00351f13          	slli	t5,a0,0x3
    8b08:	0107e833          	or	a6,a5,a6
    8b0c:	00361f93          	slli	t6,a2,0x3
    8b10:	40648e33          	sub	t3,s1,t1
    8b14:	19d98063          	beq	s3,t4,8c94 <__adddf3+0x1d4>
    8b18:	13c05663          	blez	t3,8c44 <__adddf3+0x184>
    8b1c:	1c030463          	beqz	t1,8ce4 <__adddf3+0x224>
    8b20:	008006b7          	lui	a3,0x800
    8b24:	7ff00793          	li	a5,2047
    8b28:	00d86833          	or	a6,a6,a3
    8b2c:	36f48f63          	beq	s1,a5,8eaa <__adddf3+0x3ea>
    8b30:	03800793          	li	a5,56
    8b34:	35c7c063          	blt	a5,t3,8e74 <__adddf3+0x3b4>
    8b38:	47fd                	li	a5,31
    8b3a:	47c7cd63          	blt	a5,t3,8fb4 <__adddf3+0x4f4>
    8b3e:	02000513          	li	a0,32
    8b42:	41c50533          	sub	a0,a0,t3
    8b46:	01cfd7b3          	srl	a5,t6,t3
    8b4a:	00a816b3          	sll	a3,a6,a0
    8b4e:	00af9933          	sll	s2,t6,a0
    8b52:	8edd                	or	a3,a3,a5
    8b54:	01203933          	snez	s2,s2
    8b58:	01c857b3          	srl	a5,a6,t3
    8b5c:	0126e933          	or	s2,a3,s2
    8b60:	8f1d                	sub	a4,a4,a5
    8b62:	412f0933          	sub	s2,t5,s2
    8b66:	012f37b3          	sltu	a5,t5,s2
    8b6a:	40f70633          	sub	a2,a4,a5
    8b6e:	00861793          	slli	a5,a2,0x8
    8b72:	2407d463          	bgez	a5,8dba <__adddf3+0x2fa>
    8b76:	00800737          	lui	a4,0x800
    8b7a:	177d                	addi	a4,a4,-1
    8b7c:	00e67433          	and	s0,a2,a4
    8b80:	2c040c63          	beqz	s0,8e58 <__adddf3+0x398>
    8b84:	8522                	mv	a0,s0
    8b86:	853fc0ef          	jal	ra,53d8 <__clzsi2>
    8b8a:	ff850713          	addi	a4,a0,-8
    8b8e:	02000793          	li	a5,32
    8b92:	8f99                	sub	a5,a5,a4
    8b94:	00f957b3          	srl	a5,s2,a5
    8b98:	00e41633          	sll	a2,s0,a4
    8b9c:	8fd1                	or	a5,a5,a2
    8b9e:	00e91933          	sll	s2,s2,a4
    8ba2:	2a974163          	blt	a4,s1,8e44 <__adddf3+0x384>
    8ba6:	40970533          	sub	a0,a4,s1
    8baa:	00150613          	addi	a2,a0,1
    8bae:	477d                	li	a4,31
    8bb0:	38c74d63          	blt	a4,a2,8f4a <__adddf3+0x48a>
    8bb4:	02000713          	li	a4,32
    8bb8:	8f11                	sub	a4,a4,a2
    8bba:	00c956b3          	srl	a3,s2,a2
    8bbe:	00e91933          	sll	s2,s2,a4
    8bc2:	00e79733          	sll	a4,a5,a4
    8bc6:	8f55                	or	a4,a4,a3
    8bc8:	01203933          	snez	s2,s2
    8bcc:	01276933          	or	s2,a4,s2
    8bd0:	00c7d633          	srl	a2,a5,a2
    8bd4:	4481                	li	s1,0
    8bd6:	00797793          	andi	a5,s2,7
    8bda:	cf81                	beqz	a5,8bf2 <__adddf3+0x132>
    8bdc:	00f97713          	andi	a4,s2,15
    8be0:	4791                	li	a5,4
    8be2:	00f70863          	beq	a4,a5,8bf2 <__adddf3+0x132>
    8be6:	00490713          	addi	a4,s2,4
    8bea:	01273933          	sltu	s2,a4,s2
    8bee:	964a                	add	a2,a2,s2
    8bf0:	893a                	mv	s2,a4
    8bf2:	00861793          	slli	a5,a2,0x8
    8bf6:	1c07d663          	bgez	a5,8dc2 <__adddf3+0x302>
    8bfa:	00148513          	addi	a0,s1,1
    8bfe:	7ff00793          	li	a5,2047
    8c02:	85ce                	mv	a1,s3
    8c04:	20f50463          	beq	a0,a5,8e0c <__adddf3+0x34c>
    8c08:	ff8007b7          	lui	a5,0xff800
    8c0c:	17fd                	addi	a5,a5,-1
    8c0e:	8ff1                	and	a5,a5,a2
    8c10:	01d79893          	slli	a7,a5,0x1d
    8c14:	00395913          	srli	s2,s2,0x3
    8c18:	07a6                	slli	a5,a5,0x9
    8c1a:	0128e8b3          	or	a7,a7,s2
    8c1e:	83b1                	srli	a5,a5,0xc
    8c20:	7ff57513          	andi	a0,a0,2047
    8c24:	00c79693          	slli	a3,a5,0xc
    8c28:	0552                	slli	a0,a0,0x14
    8c2a:	40f2                	lw	ra,28(sp)
    8c2c:	4462                	lw	s0,24(sp)
    8c2e:	82b1                	srli	a3,a3,0xc
    8c30:	05fe                	slli	a1,a1,0x1f
    8c32:	8ec9                	or	a3,a3,a0
    8c34:	8ecd                	or	a3,a3,a1
    8c36:	44d2                	lw	s1,20(sp)
    8c38:	4942                	lw	s2,16(sp)
    8c3a:	49b2                	lw	s3,12(sp)
    8c3c:	8546                	mv	a0,a7
    8c3e:	85b6                	mv	a1,a3
    8c40:	6105                	addi	sp,sp,32
    8c42:	8082                	ret
    8c44:	0a0e1e63          	bnez	t3,8d00 <__adddf3+0x240>
    8c48:	00148313          	addi	t1,s1,1
    8c4c:	7fe37313          	andi	t1,t1,2046
    8c50:	22031763          	bnez	t1,8e7e <__adddf3+0x3be>
    8c54:	01e767b3          	or	a5,a4,t5
    8c58:	01f868b3          	or	a7,a6,t6
    8c5c:	1a049d63          	bnez	s1,8e16 <__adddf3+0x356>
    8c60:	40078763          	beqz	a5,906e <__adddf3+0x5ae>
    8c64:	44088663          	beqz	a7,90b0 <__adddf3+0x5f0>
    8c68:	41ff0933          	sub	s2,t5,t6
    8c6c:	410707b3          	sub	a5,a4,a6
    8c70:	012f3633          	sltu	a2,t5,s2
    8c74:	40c78633          	sub	a2,a5,a2
    8c78:	00861793          	slli	a5,a2,0x8
    8c7c:	4c07d663          	bgez	a5,9148 <__adddf3+0x688>
    8c80:	41ef8933          	sub	s2,t6,t5
    8c84:	40e807b3          	sub	a5,a6,a4
    8c88:	012fb633          	sltu	a2,t6,s2
    8c8c:	40c78633          	sub	a2,a5,a2
    8c90:	89f6                	mv	s3,t4
    8c92:	b791                	j	8bd6 <__adddf3+0x116>
    8c94:	0fc05063          	blez	t3,8d74 <__adddf3+0x2b4>
    8c98:	0c030063          	beqz	t1,8d58 <__adddf3+0x298>
    8c9c:	008006b7          	lui	a3,0x800
    8ca0:	7ff00793          	li	a5,2047
    8ca4:	00d86833          	or	a6,a6,a3
    8ca8:	3af48a63          	beq	s1,a5,905c <__adddf3+0x59c>
    8cac:	03800793          	li	a5,56
    8cb0:	13c7cb63          	blt	a5,t3,8de6 <__adddf3+0x326>
    8cb4:	47fd                	li	a5,31
    8cb6:	35c7df63          	bge	a5,t3,9014 <__adddf3+0x554>
    8cba:	fe0e0913          	addi	s2,t3,-32
    8cbe:	02000793          	li	a5,32
    8cc2:	012856b3          	srl	a3,a6,s2
    8cc6:	00fe0a63          	beq	t3,a5,8cda <__adddf3+0x21a>
    8cca:	04000913          	li	s2,64
    8cce:	41c90933          	sub	s2,s2,t3
    8cd2:	01281933          	sll	s2,a6,s2
    8cd6:	012fefb3          	or	t6,t6,s2
    8cda:	01f03933          	snez	s2,t6
    8cde:	00d96933          	or	s2,s2,a3
    8ce2:	a231                	j	8dee <__adddf3+0x32e>
    8ce4:	01f867b3          	or	a5,a6,t6
    8ce8:	1c078a63          	beqz	a5,8ebc <__adddf3+0x3fc>
    8cec:	fffe0793          	addi	a5,t3,-1
    8cf0:	38078c63          	beqz	a5,9088 <__adddf3+0x5c8>
    8cf4:	7ff00693          	li	a3,2047
    8cf8:	1ade0963          	beq	t3,a3,8eaa <__adddf3+0x3ea>
    8cfc:	8e3e                	mv	t3,a5
    8cfe:	bd0d                	j	8b30 <__adddf3+0x70>
    8d00:	409305b3          	sub	a1,t1,s1
    8d04:	22049163          	bnez	s1,8f26 <__adddf3+0x466>
    8d08:	01e767b3          	or	a5,a4,t5
    8d0c:	32078763          	beqz	a5,903a <__adddf3+0x57a>
    8d10:	fff58793          	addi	a5,a1,-1
    8d14:	44078163          	beqz	a5,9156 <__adddf3+0x696>
    8d18:	7ff00693          	li	a3,2047
    8d1c:	20d58c63          	beq	a1,a3,8f34 <__adddf3+0x474>
    8d20:	85be                	mv	a1,a5
    8d22:	03800793          	li	a5,56
    8d26:	2ab7cc63          	blt	a5,a1,8fde <__adddf3+0x51e>
    8d2a:	47fd                	li	a5,31
    8d2c:	3cb7cf63          	blt	a5,a1,910a <__adddf3+0x64a>
    8d30:	02000793          	li	a5,32
    8d34:	8f8d                	sub	a5,a5,a1
    8d36:	00f71933          	sll	s2,a4,a5
    8d3a:	00bf56b3          	srl	a3,t5,a1
    8d3e:	00ff17b3          	sll	a5,t5,a5
    8d42:	00d96933          	or	s2,s2,a3
    8d46:	00f037b3          	snez	a5,a5
    8d4a:	00b75733          	srl	a4,a4,a1
    8d4e:	00f96933          	or	s2,s2,a5
    8d52:	40e80833          	sub	a6,a6,a4
    8d56:	ac41                	j	8fe6 <__adddf3+0x526>
    8d58:	01f867b3          	or	a5,a6,t6
    8d5c:	34078063          	beqz	a5,909c <__adddf3+0x5dc>
    8d60:	fffe0793          	addi	a5,t3,-1
    8d64:	20078a63          	beqz	a5,8f78 <__adddf3+0x4b8>
    8d68:	7ff00693          	li	a3,2047
    8d6c:	2ede0863          	beq	t3,a3,905c <__adddf3+0x59c>
    8d70:	8e3e                	mv	t3,a5
    8d72:	bf2d                	j	8cac <__adddf3+0x1ec>
    8d74:	140e1e63          	bnez	t3,8ed0 <__adddf3+0x410>
    8d78:	00148693          	addi	a3,s1,1
    8d7c:	7fe6f793          	andi	a5,a3,2046
    8d80:	34079163          	bnez	a5,90c2 <__adddf3+0x602>
    8d84:	01e767b3          	or	a5,a4,t5
    8d88:	2c049563          	bnez	s1,9052 <__adddf3+0x592>
    8d8c:	3e078063          	beqz	a5,916c <__adddf3+0x6ac>
    8d90:	01f867b3          	or	a5,a6,t6
    8d94:	30078e63          	beqz	a5,90b0 <__adddf3+0x5f0>
    8d98:	01ff0933          	add	s2,t5,t6
    8d9c:	010707b3          	add	a5,a4,a6
    8da0:	01e93f33          	sltu	t5,s2,t5
    8da4:	01e78633          	add	a2,a5,t5
    8da8:	00861793          	slli	a5,a2,0x8
    8dac:	0007d763          	bgez	a5,8dba <__adddf3+0x2fa>
    8db0:	ff8007b7          	lui	a5,0xff800
    8db4:	17fd                	addi	a5,a5,-1
    8db6:	8e7d                	and	a2,a2,a5
    8db8:	4485                	li	s1,1
    8dba:	00797793          	andi	a5,s2,7
    8dbe:	e0079fe3          	bnez	a5,8bdc <__adddf3+0x11c>
    8dc2:	01d61793          	slli	a5,a2,0x1d
    8dc6:	00395893          	srli	a7,s2,0x3
    8dca:	00f8e8b3          	or	a7,a7,a5
    8dce:	00365793          	srli	a5,a2,0x3
    8dd2:	7ff00713          	li	a4,2047
    8dd6:	04e48d63          	beq	s1,a4,8e30 <__adddf3+0x370>
    8dda:	07b2                	slli	a5,a5,0xc
    8ddc:	83b1                	srli	a5,a5,0xc
    8dde:	7ff4f513          	andi	a0,s1,2047
    8de2:	85ce                	mv	a1,s3
    8de4:	b581                	j	8c24 <__adddf3+0x164>
    8de6:	01f86933          	or	s2,a6,t6
    8dea:	01203933          	snez	s2,s2
    8dee:	997a                	add	s2,s2,t5
    8df0:	01e937b3          	sltu	a5,s2,t5
    8df4:	00e78633          	add	a2,a5,a4
    8df8:	00861793          	slli	a5,a2,0x8
    8dfc:	fa07dfe3          	bgez	a5,8dba <__adddf3+0x2fa>
    8e00:	0485                	addi	s1,s1,1
    8e02:	7ff00793          	li	a5,2047
    8e06:	18f49663          	bne	s1,a5,8f92 <__adddf3+0x4d2>
    8e0a:	85ce                	mv	a1,s3
    8e0c:	7ff00513          	li	a0,2047
    8e10:	4781                	li	a5,0
    8e12:	4881                	li	a7,0
    8e14:	bd01                	j	8c24 <__adddf3+0x164>
    8e16:	ebc1                	bnez	a5,8ea6 <__adddf3+0x3e6>
    8e18:	3a088463          	beqz	a7,91c0 <__adddf3+0x700>
    8e1c:	00361693          	slli	a3,a2,0x3
    8e20:	01d81793          	slli	a5,a6,0x1d
    8e24:	828d                	srli	a3,a3,0x3
    8e26:	00d7e8b3          	or	a7,a5,a3
    8e2a:	89f6                	mv	s3,t4
    8e2c:	00385793          	srli	a5,a6,0x3
    8e30:	00f8e7b3          	or	a5,a7,a5
    8e34:	dbf9                	beqz	a5,8e0a <__adddf3+0x34a>
    8e36:	4581                	li	a1,0
    8e38:	7ff00513          	li	a0,2047
    8e3c:	000807b7          	lui	a5,0x80
    8e40:	4881                	li	a7,0
    8e42:	b3cd                	j	8c24 <__adddf3+0x164>
    8e44:	ff800637          	lui	a2,0xff800
    8e48:	167d                	addi	a2,a2,-1
    8e4a:	8e7d                	and	a2,a2,a5
    8e4c:	00797793          	andi	a5,s2,7
    8e50:	8c99                	sub	s1,s1,a4
    8e52:	d80795e3          	bnez	a5,8bdc <__adddf3+0x11c>
    8e56:	b7b5                	j	8dc2 <__adddf3+0x302>
    8e58:	854a                	mv	a0,s2
    8e5a:	d7efc0ef          	jal	ra,53d8 <__clzsi2>
    8e5e:	01850713          	addi	a4,a0,24
    8e62:	47fd                	li	a5,31
    8e64:	d2e7d5e3          	bge	a5,a4,8b8e <__adddf3+0xce>
    8e68:	ff850613          	addi	a2,a0,-8
    8e6c:	00c917b3          	sll	a5,s2,a2
    8e70:	4901                	li	s2,0
    8e72:	bb05                	j	8ba2 <__adddf3+0xe2>
    8e74:	01f86933          	or	s2,a6,t6
    8e78:	01203933          	snez	s2,s2
    8e7c:	b1dd                	j	8b62 <__adddf3+0xa2>
    8e7e:	41ff0933          	sub	s2,t5,t6
    8e82:	41070633          	sub	a2,a4,a6
    8e86:	012f3433          	sltu	s0,t5,s2
    8e8a:	40860433          	sub	s0,a2,s0
    8e8e:	00841793          	slli	a5,s0,0x8
    8e92:	2407cd63          	bltz	a5,90ec <__adddf3+0x62c>
    8e96:	008968b3          	or	a7,s2,s0
    8e9a:	ce0893e3          	bnez	a7,8b80 <__adddf3+0xc0>
    8e9e:	4781                	li	a5,0
    8ea0:	4981                	li	s3,0
    8ea2:	4481                	li	s1,0
    8ea4:	bf1d                	j	8dda <__adddf3+0x31a>
    8ea6:	f80898e3          	bnez	a7,8e36 <__adddf3+0x376>
    8eaa:	050e                	slli	a0,a0,0x3
    8eac:	01d71793          	slli	a5,a4,0x1d
    8eb0:	810d                	srli	a0,a0,0x3
    8eb2:	00a7e8b3          	or	a7,a5,a0
    8eb6:	00375793          	srli	a5,a4,0x3
    8eba:	bf9d                	j	8e30 <__adddf3+0x370>
    8ebc:	050e                	slli	a0,a0,0x3
    8ebe:	01d71793          	slli	a5,a4,0x1d
    8ec2:	810d                	srli	a0,a0,0x3
    8ec4:	00a7e8b3          	or	a7,a5,a0
    8ec8:	84f2                	mv	s1,t3
    8eca:	00375793          	srli	a5,a4,0x3
    8ece:	b711                	j	8dd2 <__adddf3+0x312>
    8ed0:	40930533          	sub	a0,t1,s1
    8ed4:	12048263          	beqz	s1,8ff8 <__adddf3+0x538>
    8ed8:	008006b7          	lui	a3,0x800
    8edc:	7ff00793          	li	a5,2047
    8ee0:	8f55                	or	a4,a4,a3
    8ee2:	2ef30d63          	beq	t1,a5,91dc <__adddf3+0x71c>
    8ee6:	03800793          	li	a5,56
    8eea:	20a7cb63          	blt	a5,a0,9100 <__adddf3+0x640>
    8eee:	47fd                	li	a5,31
    8ef0:	2aa7c363          	blt	a5,a0,9196 <__adddf3+0x6d6>
    8ef4:	02000793          	li	a5,32
    8ef8:	8f89                	sub	a5,a5,a0
    8efa:	00f71933          	sll	s2,a4,a5
    8efe:	00af56b3          	srl	a3,t5,a0
    8f02:	00ff17b3          	sll	a5,t5,a5
    8f06:	00d96933          	or	s2,s2,a3
    8f0a:	00f037b3          	snez	a5,a5
    8f0e:	00a75733          	srl	a4,a4,a0
    8f12:	00f96933          	or	s2,s2,a5
    8f16:	983a                	add	a6,a6,a4
    8f18:	997e                	add	s2,s2,t6
    8f1a:	01f937b3          	sltu	a5,s2,t6
    8f1e:	01078633          	add	a2,a5,a6
    8f22:	849a                	mv	s1,t1
    8f24:	bdd1                	j	8df8 <__adddf3+0x338>
    8f26:	008006b7          	lui	a3,0x800
    8f2a:	7ff00793          	li	a5,2047
    8f2e:	8f55                	or	a4,a4,a3
    8f30:	def319e3          	bne	t1,a5,8d22 <__adddf3+0x262>
    8f34:	00361793          	slli	a5,a2,0x3
    8f38:	838d                	srli	a5,a5,0x3
    8f3a:	01d81893          	slli	a7,a6,0x1d
    8f3e:	0117e8b3          	or	a7,a5,a7
    8f42:	89f6                	mv	s3,t4
    8f44:	00385793          	srli	a5,a6,0x3
    8f48:	b5e5                	j	8e30 <__adddf3+0x370>
    8f4a:	fe150713          	addi	a4,a0,-31
    8f4e:	02000693          	li	a3,32
    8f52:	00e7d733          	srl	a4,a5,a4
    8f56:	00d60a63          	beq	a2,a3,8f6a <__adddf3+0x4aa>
    8f5a:	04000693          	li	a3,64
    8f5e:	40c68633          	sub	a2,a3,a2
    8f62:	00c79633          	sll	a2,a5,a2
    8f66:	00c96933          	or	s2,s2,a2
    8f6a:	01203933          	snez	s2,s2
    8f6e:	00e96933          	or	s2,s2,a4
    8f72:	4601                	li	a2,0
    8f74:	4481                	li	s1,0
    8f76:	b591                	j	8dba <__adddf3+0x2fa>
    8f78:	01ff0933          	add	s2,t5,t6
    8f7c:	010707b3          	add	a5,a4,a6
    8f80:	01e93633          	sltu	a2,s2,t5
    8f84:	963e                	add	a2,a2,a5
    8f86:	00861793          	slli	a5,a2,0x8
    8f8a:	4485                	li	s1,1
    8f8c:	e207d7e3          	bgez	a5,8dba <__adddf3+0x2fa>
    8f90:	4489                	li	s1,2
    8f92:	ff8007b7          	lui	a5,0xff800
    8f96:	17fd                	addi	a5,a5,-1
    8f98:	8ff1                	and	a5,a5,a2
    8f9a:	00195713          	srli	a4,s2,0x1
    8f9e:	00197913          	andi	s2,s2,1
    8fa2:	01276933          	or	s2,a4,s2
    8fa6:	01f79893          	slli	a7,a5,0x1f
    8faa:	0128e933          	or	s2,a7,s2
    8fae:	0017d613          	srli	a2,a5,0x1
    8fb2:	b115                	j	8bd6 <__adddf3+0x116>
    8fb4:	fe0e0913          	addi	s2,t3,-32
    8fb8:	02000793          	li	a5,32
    8fbc:	012856b3          	srl	a3,a6,s2
    8fc0:	00fe0a63          	beq	t3,a5,8fd4 <__adddf3+0x514>
    8fc4:	04000913          	li	s2,64
    8fc8:	41c90933          	sub	s2,s2,t3
    8fcc:	01281933          	sll	s2,a6,s2
    8fd0:	012fefb3          	or	t6,t6,s2
    8fd4:	01f03933          	snez	s2,t6
    8fd8:	00d96933          	or	s2,s2,a3
    8fdc:	b659                	j	8b62 <__adddf3+0xa2>
    8fde:	01e76933          	or	s2,a4,t5
    8fe2:	01203933          	snez	s2,s2
    8fe6:	412f8933          	sub	s2,t6,s2
    8fea:	012fb7b3          	sltu	a5,t6,s2
    8fee:	40f80633          	sub	a2,a6,a5
    8ff2:	849a                	mv	s1,t1
    8ff4:	89f6                	mv	s3,t4
    8ff6:	bea5                	j	8b6e <__adddf3+0xae>
    8ff8:	01e767b3          	or	a5,a4,t5
    8ffc:	18078263          	beqz	a5,9180 <__adddf3+0x6c0>
    9000:	fff50793          	addi	a5,a0,-1
    9004:	1c078463          	beqz	a5,91cc <__adddf3+0x70c>
    9008:	7ff00693          	li	a3,2047
    900c:	12d50463          	beq	a0,a3,9134 <__adddf3+0x674>
    9010:	853e                	mv	a0,a5
    9012:	bdd1                	j	8ee6 <__adddf3+0x426>
    9014:	02000793          	li	a5,32
    9018:	41c787b3          	sub	a5,a5,t3
    901c:	00f816b3          	sll	a3,a6,a5
    9020:	00ff9933          	sll	s2,t6,a5
    9024:	01cfd633          	srl	a2,t6,t3
    9028:	8ed1                	or	a3,a3,a2
    902a:	01203933          	snez	s2,s2
    902e:	01c857b3          	srl	a5,a6,t3
    9032:	0126e933          	or	s2,a3,s2
    9036:	973e                	add	a4,a4,a5
    9038:	bb5d                	j	8dee <__adddf3+0x32e>
    903a:	00361793          	slli	a5,a2,0x3
    903e:	838d                	srli	a5,a5,0x3
    9040:	01d81893          	slli	a7,a6,0x1d
    9044:	0117e8b3          	or	a7,a5,a7
    9048:	84ae                	mv	s1,a1
    904a:	00385793          	srli	a5,a6,0x3
    904e:	89f6                	mv	s3,t4
    9050:	b349                	j	8dd2 <__adddf3+0x312>
    9052:	c3ed                	beqz	a5,9134 <__adddf3+0x674>
    9054:	01f86933          	or	s2,a6,t6
    9058:	dc091fe3          	bnez	s2,8e36 <__adddf3+0x376>
    905c:	050e                	slli	a0,a0,0x3
    905e:	01d71793          	slli	a5,a4,0x1d
    9062:	810d                	srli	a0,a0,0x3
    9064:	00f568b3          	or	a7,a0,a5
    9068:	00375793          	srli	a5,a4,0x3
    906c:	b3d1                	j	8e30 <__adddf3+0x370>
    906e:	0e088163          	beqz	a7,9150 <__adddf3+0x690>
    9072:	00361693          	slli	a3,a2,0x3
    9076:	01d81793          	slli	a5,a6,0x1d
    907a:	828d                	srli	a3,a3,0x3
    907c:	00d7e8b3          	or	a7,a5,a3
    9080:	89f6                	mv	s3,t4
    9082:	00385793          	srli	a5,a6,0x3
    9086:	bb91                	j	8dda <__adddf3+0x31a>
    9088:	41ff0933          	sub	s2,t5,t6
    908c:	410707b3          	sub	a5,a4,a6
    9090:	012f3f33          	sltu	t5,t5,s2
    9094:	41e78633          	sub	a2,a5,t5
    9098:	4485                	li	s1,1
    909a:	bcd1                	j	8b6e <__adddf3+0xae>
    909c:	050e                	slli	a0,a0,0x3
    909e:	01d71793          	slli	a5,a4,0x1d
    90a2:	810d                	srli	a0,a0,0x3
    90a4:	00f568b3          	or	a7,a0,a5
    90a8:	84f2                	mv	s1,t3
    90aa:	00375793          	srli	a5,a4,0x3
    90ae:	b315                	j	8dd2 <__adddf3+0x312>
    90b0:	050e                	slli	a0,a0,0x3
    90b2:	01d71793          	slli	a5,a4,0x1d
    90b6:	810d                	srli	a0,a0,0x3
    90b8:	00a7e8b3          	or	a7,a5,a0
    90bc:	00375793          	srli	a5,a4,0x3
    90c0:	bb29                	j	8dda <__adddf3+0x31a>
    90c2:	7ff00793          	li	a5,2047
    90c6:	d4f682e3          	beq	a3,a5,8e0a <__adddf3+0x34a>
    90ca:	01ff0933          	add	s2,t5,t6
    90ce:	01e93633          	sltu	a2,s2,t5
    90d2:	010707b3          	add	a5,a4,a6
    90d6:	97b2                	add	a5,a5,a2
    90d8:	01f79893          	slli	a7,a5,0x1f
    90dc:	00195913          	srli	s2,s2,0x1
    90e0:	0128e933          	or	s2,a7,s2
    90e4:	0017d613          	srli	a2,a5,0x1
    90e8:	84b6                	mv	s1,a3
    90ea:	b9c1                	j	8dba <__adddf3+0x2fa>
    90ec:	41ef8933          	sub	s2,t6,t5
    90f0:	40e80733          	sub	a4,a6,a4
    90f4:	012fb633          	sltu	a2,t6,s2
    90f8:	40c70433          	sub	s0,a4,a2
    90fc:	89f6                	mv	s3,t4
    90fe:	b449                	j	8b80 <__adddf3+0xc0>
    9100:	01e76933          	or	s2,a4,t5
    9104:	01203933          	snez	s2,s2
    9108:	bd01                	j	8f18 <__adddf3+0x458>
    910a:	fe058793          	addi	a5,a1,-32
    910e:	02000693          	li	a3,32
    9112:	00f757b3          	srl	a5,a4,a5
    9116:	00d58a63          	beq	a1,a3,912a <__adddf3+0x66a>
    911a:	04000693          	li	a3,64
    911e:	40b685b3          	sub	a1,a3,a1
    9122:	00b71733          	sll	a4,a4,a1
    9126:	00ef6f33          	or	t5,t5,a4
    912a:	01e03933          	snez	s2,t5
    912e:	00f96933          	or	s2,s2,a5
    9132:	bd55                	j	8fe6 <__adddf3+0x526>
    9134:	00361793          	slli	a5,a2,0x3
    9138:	838d                	srli	a5,a5,0x3
    913a:	01d81893          	slli	a7,a6,0x1d
    913e:	0117e8b3          	or	a7,a5,a7
    9142:	00385793          	srli	a5,a6,0x3
    9146:	b1ed                	j	8e30 <__adddf3+0x370>
    9148:	00c968b3          	or	a7,s2,a2
    914c:	c60897e3          	bnez	a7,8dba <__adddf3+0x2fa>
    9150:	4781                	li	a5,0
    9152:	4981                	li	s3,0
    9154:	b159                	j	8dda <__adddf3+0x31a>
    9156:	41ef8933          	sub	s2,t6,t5
    915a:	40e807b3          	sub	a5,a6,a4
    915e:	012fb633          	sltu	a2,t6,s2
    9162:	40c78633          	sub	a2,a5,a2
    9166:	89f6                	mv	s3,t4
    9168:	4485                	li	s1,1
    916a:	b411                	j	8b6e <__adddf3+0xae>
    916c:	00361693          	slli	a3,a2,0x3
    9170:	01d81793          	slli	a5,a6,0x1d
    9174:	828d                	srli	a3,a3,0x3
    9176:	00d7e8b3          	or	a7,a5,a3
    917a:	00385793          	srli	a5,a6,0x3
    917e:	b9b1                	j	8dda <__adddf3+0x31a>
    9180:	00361693          	slli	a3,a2,0x3
    9184:	01d81793          	slli	a5,a6,0x1d
    9188:	828d                	srli	a3,a3,0x3
    918a:	00d7e8b3          	or	a7,a5,a3
    918e:	84aa                	mv	s1,a0
    9190:	00385793          	srli	a5,a6,0x3
    9194:	b93d                	j	8dd2 <__adddf3+0x312>
    9196:	fe050793          	addi	a5,a0,-32
    919a:	02000693          	li	a3,32
    919e:	00f757b3          	srl	a5,a4,a5
    91a2:	00d50a63          	beq	a0,a3,91b6 <__adddf3+0x6f6>
    91a6:	04000693          	li	a3,64
    91aa:	40a68533          	sub	a0,a3,a0
    91ae:	00a71733          	sll	a4,a4,a0
    91b2:	00ef6f33          	or	t5,t5,a4
    91b6:	01e03933          	snez	s2,t5
    91ba:	00f96933          	or	s2,s2,a5
    91be:	bba9                	j	8f18 <__adddf3+0x458>
    91c0:	4581                	li	a1,0
    91c2:	7ff00513          	li	a0,2047
    91c6:	000807b7          	lui	a5,0x80
    91ca:	bca9                	j	8c24 <__adddf3+0x164>
    91cc:	01ff0933          	add	s2,t5,t6
    91d0:	010707b3          	add	a5,a4,a6
    91d4:	01f93633          	sltu	a2,s2,t6
    91d8:	963e                	add	a2,a2,a5
    91da:	b375                	j	8f86 <__adddf3+0x4c6>
    91dc:	00361693          	slli	a3,a2,0x3
    91e0:	01d81793          	slli	a5,a6,0x1d
    91e4:	828d                	srli	a3,a3,0x3
    91e6:	00d7e8b3          	or	a7,a5,a3
    91ea:	00385793          	srli	a5,a6,0x3
    91ee:	b189                	j	8e30 <__adddf3+0x370>

000091f0 <__divdf3>:
    91f0:	7139                	addi	sp,sp,-64
    91f2:	0145d793          	srli	a5,a1,0x14
    91f6:	dc22                	sw	s0,56(sp)
    91f8:	d84a                	sw	s2,48(sp)
    91fa:	d256                	sw	s5,36(sp)
    91fc:	892a                	mv	s2,a0
    91fe:	00c59413          	slli	s0,a1,0xc
    9202:	de06                	sw	ra,60(sp)
    9204:	da26                	sw	s1,52(sp)
    9206:	d64e                	sw	s3,44(sp)
    9208:	d452                	sw	s4,40(sp)
    920a:	d05a                	sw	s6,32(sp)
    920c:	ce5e                	sw	s7,28(sp)
    920e:	7ff7f513          	andi	a0,a5,2047
    9212:	8031                	srli	s0,s0,0xc
    9214:	01f5da93          	srli	s5,a1,0x1f
    9218:	10050b63          	beqz	a0,932e <__divdf3+0x13e>
    921c:	7ff00793          	li	a5,2047
    9220:	14f50b63          	beq	a0,a5,9376 <__divdf3+0x186>
    9224:	01d95a13          	srli	s4,s2,0x1d
    9228:	040e                	slli	s0,s0,0x3
    922a:	008a6433          	or	s0,s4,s0
    922e:	00800a37          	lui	s4,0x800
    9232:	01446a33          	or	s4,s0,s4
    9236:	00391b13          	slli	s6,s2,0x3
    923a:	c0150493          	addi	s1,a0,-1023
    923e:	4401                	li	s0,0
    9240:	4b81                	li	s7,0
    9242:	0146d813          	srli	a6,a3,0x14
    9246:	00c69913          	slli	s2,a3,0xc
    924a:	7ff87813          	andi	a6,a6,2047
    924e:	88b2                	mv	a7,a2
    9250:	00c95913          	srli	s2,s2,0xc
    9254:	01f6d993          	srli	s3,a3,0x1f
    9258:	08080e63          	beqz	a6,92f4 <__divdf3+0x104>
    925c:	7ff00793          	li	a5,2047
    9260:	04f80063          	beq	a6,a5,92a0 <__divdf3+0xb0>
    9264:	01d65713          	srli	a4,a2,0x1d
    9268:	090e                	slli	s2,s2,0x3
    926a:	01276933          	or	s2,a4,s2
    926e:	c0180813          	addi	a6,a6,-1023 # ffc01 <_data_lma+0xf3315>
    9272:	008007b7          	lui	a5,0x800
    9276:	00f96733          	or	a4,s2,a5
    927a:	00361893          	slli	a7,a2,0x3
    927e:	410484b3          	sub	s1,s1,a6
    9282:	4581                	li	a1,0
    9284:	47bd                	li	a5,15
    9286:	013ac833          	xor	a6,s5,s3
    928a:	1a87e463          	bltu	a5,s0,9432 <__divdf3+0x242>
    928e:	00003797          	auipc	a5,0x3
    9292:	5de78793          	addi	a5,a5,1502 # c86c <_ctype_+0x104>
    9296:	040a                	slli	s0,s0,0x2
    9298:	943e                	add	s0,s0,a5
    929a:	4010                	lw	a2,0(s0)
    929c:	963e                	add	a2,a2,a5
    929e:	8602                	jr	a2
    92a0:	00c96733          	or	a4,s2,a2
    92a4:	80148493          	addi	s1,s1,-2047
    92a8:	10071263          	bnez	a4,93ac <__divdf3+0x1bc>
    92ac:	00246413          	ori	s0,s0,2
    92b0:	4881                	li	a7,0
    92b2:	4589                	li	a1,2
    92b4:	bfc1                	j	9284 <__divdf3+0x94>
    92b6:	7ff00613          	li	a2,2047
    92ba:	4781                	li	a5,0
    92bc:	4701                	li	a4,0
    92be:	07b2                	slli	a5,a5,0xc
    92c0:	50f2                	lw	ra,60(sp)
    92c2:	5462                	lw	s0,56(sp)
    92c4:	0652                	slli	a2,a2,0x14
    92c6:	83b1                	srli	a5,a5,0xc
    92c8:	087e                	slli	a6,a6,0x1f
    92ca:	8fd1                	or	a5,a5,a2
    92cc:	0107e7b3          	or	a5,a5,a6
    92d0:	54d2                	lw	s1,52(sp)
    92d2:	5942                	lw	s2,48(sp)
    92d4:	59b2                	lw	s3,44(sp)
    92d6:	5a22                	lw	s4,40(sp)
    92d8:	5a92                	lw	s5,36(sp)
    92da:	5b02                	lw	s6,32(sp)
    92dc:	4bf2                	lw	s7,28(sp)
    92de:	853a                	mv	a0,a4
    92e0:	85be                	mv	a1,a5
    92e2:	6121                	addi	sp,sp,64
    92e4:	8082                	ret
    92e6:	4801                	li	a6,0
    92e8:	7ff00613          	li	a2,2047
    92ec:	000807b7          	lui	a5,0x80
    92f0:	4701                	li	a4,0
    92f2:	b7f1                	j	92be <__divdf3+0xce>
    92f4:	00c96733          	or	a4,s2,a2
    92f8:	c74d                	beqz	a4,93a2 <__divdf3+0x1b2>
    92fa:	30090863          	beqz	s2,960a <__divdf3+0x41a>
    92fe:	854a                	mv	a0,s2
    9300:	c432                	sw	a2,8(sp)
    9302:	8d6fc0ef          	jal	ra,53d8 <__clzsi2>
    9306:	4622                	lw	a2,8(sp)
    9308:	ff550713          	addi	a4,a0,-11
    930c:	47f5                	li	a5,29
    930e:	ff850693          	addi	a3,a0,-8
    9312:	8f99                	sub	a5,a5,a4
    9314:	00d91933          	sll	s2,s2,a3
    9318:	00f657b3          	srl	a5,a2,a5
    931c:	0127e733          	or	a4,a5,s2
    9320:	00d618b3          	sll	a7,a2,a3
    9324:	9526                	add	a0,a0,s1
    9326:	3f350493          	addi	s1,a0,1011
    932a:	4581                	li	a1,0
    932c:	bfa1                	j	9284 <__divdf3+0x94>
    932e:	01246a33          	or	s4,s0,s2
    9332:	060a0363          	beqz	s4,9398 <__divdf3+0x1a8>
    9336:	c636                	sw	a3,12(sp)
    9338:	c432                	sw	a2,8(sp)
    933a:	2a040663          	beqz	s0,95e6 <__divdf3+0x3f6>
    933e:	8522                	mv	a0,s0
    9340:	898fc0ef          	jal	ra,53d8 <__clzsi2>
    9344:	4622                	lw	a2,8(sp)
    9346:	46b2                	lw	a3,12(sp)
    9348:	84aa                	mv	s1,a0
    934a:	ff550713          	addi	a4,a0,-11
    934e:	4a75                	li	s4,29
    9350:	ff848b13          	addi	s6,s1,-8
    9354:	40ea0a33          	sub	s4,s4,a4
    9358:	01641433          	sll	s0,s0,s6
    935c:	01495a33          	srl	s4,s2,s4
    9360:	008a6a33          	or	s4,s4,s0
    9364:	01691b33          	sll	s6,s2,s6
    9368:	c0d00513          	li	a0,-1011
    936c:	409504b3          	sub	s1,a0,s1
    9370:	4401                	li	s0,0
    9372:	4b81                	li	s7,0
    9374:	b5f9                	j	9242 <__divdf3+0x52>
    9376:	01246a33          	or	s4,s0,s2
    937a:	000a1863          	bnez	s4,938a <__divdf3+0x19a>
    937e:	4421                	li	s0,8
    9380:	4b01                	li	s6,0
    9382:	7ff00493          	li	s1,2047
    9386:	4b89                	li	s7,2
    9388:	bd6d                	j	9242 <__divdf3+0x52>
    938a:	8a22                	mv	s4,s0
    938c:	8b4a                	mv	s6,s2
    938e:	4431                	li	s0,12
    9390:	7ff00493          	li	s1,2047
    9394:	4b8d                	li	s7,3
    9396:	b575                	j	9242 <__divdf3+0x52>
    9398:	4411                	li	s0,4
    939a:	4b01                	li	s6,0
    939c:	4481                	li	s1,0
    939e:	4b85                	li	s7,1
    93a0:	b54d                	j	9242 <__divdf3+0x52>
    93a2:	00146413          	ori	s0,s0,1
    93a6:	4881                	li	a7,0
    93a8:	4585                	li	a1,1
    93aa:	bde9                	j	9284 <__divdf3+0x94>
    93ac:	00346413          	ori	s0,s0,3
    93b0:	874a                	mv	a4,s2
    93b2:	458d                	li	a1,3
    93b4:	bdc1                	j	9284 <__divdf3+0x94>
    93b6:	2e050a63          	beqz	a0,96aa <__divdf3+0x4ba>
    93ba:	4785                	li	a5,1
    93bc:	8f89                	sub	a5,a5,a0
    93be:	03800693          	li	a3,56
    93c2:	32f6dd63          	bge	a3,a5,96fc <__divdf3+0x50c>
    93c6:	4601                	li	a2,0
    93c8:	4781                	li	a5,0
    93ca:	4701                	li	a4,0
    93cc:	bdcd                	j	92be <__divdf3+0xce>
    93ce:	86ce                	mv	a3,s3
    93d0:	4789                	li	a5,2
    93d2:	3af58d63          	beq	a1,a5,978c <__divdf3+0x59c>
    93d6:	478d                	li	a5,3
    93d8:	f0f587e3          	beq	a1,a5,92e6 <__divdf3+0xf6>
    93dc:	4785                	li	a5,1
    93de:	8836                	mv	a6,a3
    93e0:	fef583e3          	beq	a1,a5,93c6 <__divdf3+0x1d6>
    93e4:	3ff48513          	addi	a0,s1,1023
    93e8:	fca057e3          	blez	a0,93b6 <__divdf3+0x1c6>
    93ec:	0078f793          	andi	a5,a7,7
    93f0:	28079663          	bnez	a5,967c <__divdf3+0x48c>
    93f4:	0038d693          	srli	a3,a7,0x3
    93f8:	00771793          	slli	a5,a4,0x7
    93fc:	0007d863          	bgez	a5,940c <__divdf3+0x21c>
    9400:	ff0007b7          	lui	a5,0xff000
    9404:	17fd                	addi	a5,a5,-1
    9406:	8f7d                	and	a4,a4,a5
    9408:	40048513          	addi	a0,s1,1024
    940c:	7fe00793          	li	a5,2046
    9410:	eaa7c3e3          	blt	a5,a0,92b6 <__divdf3+0xc6>
    9414:	01d71613          	slli	a2,a4,0x1d
    9418:	00971793          	slli	a5,a4,0x9
    941c:	83b1                	srli	a5,a5,0xc
    941e:	00d66733          	or	a4,a2,a3
    9422:	7ff57613          	andi	a2,a0,2047
    9426:	bd61                	j	92be <__divdf3+0xce>
    9428:	86d6                	mv	a3,s5
    942a:	8752                	mv	a4,s4
    942c:	88da                	mv	a7,s6
    942e:	85de                	mv	a1,s7
    9430:	b745                	j	93d0 <__divdf3+0x1e0>
    9432:	23476163          	bltu	a4,s4,9654 <__divdf3+0x464>
    9436:	20ea0d63          	beq	s4,a4,9650 <__divdf3+0x460>
    943a:	86da                	mv	a3,s6
    943c:	14fd                	addi	s1,s1,-1
    943e:	8452                	mv	s0,s4
    9440:	4b01                	li	s6,0
    9442:	00871793          	slli	a5,a4,0x8
    9446:	0188d313          	srli	t1,a7,0x18
    944a:	00f36333          	or	t1,t1,a5
    944e:	01035e93          	srli	t4,t1,0x10
    9452:	03d457b3          	divu	a5,s0,t4
    9456:	01031f13          	slli	t5,t1,0x10
    945a:	010f5f13          	srli	t5,t5,0x10
    945e:	0106d593          	srli	a1,a3,0x10
    9462:	00889e13          	slli	t3,a7,0x8
    9466:	03d47433          	remu	s0,s0,t4
    946a:	02ff0733          	mul	a4,t5,a5
    946e:	0442                	slli	s0,s0,0x10
    9470:	8dc1                	or	a1,a1,s0
    9472:	00e5fb63          	bgeu	a1,a4,9488 <__divdf3+0x298>
    9476:	959a                	add	a1,a1,t1
    9478:	fff78613          	addi	a2,a5,-1 # feffffff <_eusrstack+0xdeff7fff>
    947c:	2665ee63          	bltu	a1,t1,96f8 <__divdf3+0x508>
    9480:	26e5fc63          	bgeu	a1,a4,96f8 <__divdf3+0x508>
    9484:	17f9                	addi	a5,a5,-2
    9486:	959a                	add	a1,a1,t1
    9488:	8d99                	sub	a1,a1,a4
    948a:	03d5d733          	divu	a4,a1,t4
    948e:	06c2                	slli	a3,a3,0x10
    9490:	82c1                	srli	a3,a3,0x10
    9492:	03d5f5b3          	remu	a1,a1,t4
    9496:	02ef0633          	mul	a2,t5,a4
    949a:	05c2                	slli	a1,a1,0x10
    949c:	8dd5                	or	a1,a1,a3
    949e:	00c5fb63          	bgeu	a1,a2,94b4 <__divdf3+0x2c4>
    94a2:	959a                	add	a1,a1,t1
    94a4:	fff70693          	addi	a3,a4,-1 # 7fffff <_data_lma+0x7f3713>
    94a8:	2465e663          	bltu	a1,t1,96f4 <__divdf3+0x504>
    94ac:	24c5f463          	bgeu	a1,a2,96f4 <__divdf3+0x504>
    94b0:	1779                	addi	a4,a4,-2
    94b2:	959a                	add	a1,a1,t1
    94b4:	07c2                	slli	a5,a5,0x10
    94b6:	6441                	lui	s0,0x10
    94b8:	8f5d                	or	a4,a4,a5
    94ba:	fff40793          	addi	a5,s0,-1 # ffff <_data_lma+0x3713>
    94be:	00f77533          	and	a0,a4,a5
    94c2:	01075893          	srli	a7,a4,0x10
    94c6:	010e5f93          	srli	t6,t3,0x10
    94ca:	00fe77b3          	and	a5,t3,a5
    94ce:	02f502b3          	mul	t0,a0,a5
    94d2:	40c586b3          	sub	a3,a1,a2
    94d6:	02f883b3          	mul	t2,a7,a5
    94da:	0102d593          	srli	a1,t0,0x10
    94de:	02af8633          	mul	a2,t6,a0
    94e2:	961e                	add	a2,a2,t2
    94e4:	962e                	add	a2,a2,a1
    94e6:	03f88533          	mul	a0,a7,t6
    94ea:	00767363          	bgeu	a2,t2,94f0 <__divdf3+0x300>
    94ee:	9522                	add	a0,a0,s0
    94f0:	68c1                	lui	a7,0x10
    94f2:	18fd                	addi	a7,a7,-1
    94f4:	01065593          	srli	a1,a2,0x10
    94f8:	01167633          	and	a2,a2,a7
    94fc:	0642                	slli	a2,a2,0x10
    94fe:	0112f8b3          	and	a7,t0,a7
    9502:	95aa                	add	a1,a1,a0
    9504:	9646                	add	a2,a2,a7
    9506:	12b6e663          	bltu	a3,a1,9632 <__divdf3+0x442>
    950a:	12b68263          	beq	a3,a1,962e <__divdf3+0x43e>
    950e:	40cb0633          	sub	a2,s6,a2
    9512:	8e8d                	sub	a3,a3,a1
    9514:	00cb3b33          	sltu	s6,s6,a2
    9518:	41668b33          	sub	s6,a3,s6
    951c:	3ff48513          	addi	a0,s1,1023
    9520:	17630c63          	beq	t1,s6,9698 <__divdf3+0x4a8>
    9524:	03db58b3          	divu	a7,s6,t4
    9528:	01065593          	srli	a1,a2,0x10
    952c:	03db7b33          	remu	s6,s6,t4
    9530:	031f06b3          	mul	a3,t5,a7
    9534:	0b42                	slli	s6,s6,0x10
    9536:	0165eb33          	or	s6,a1,s6
    953a:	00db7b63          	bgeu	s6,a3,9550 <__divdf3+0x360>
    953e:	9b1a                	add	s6,s6,t1
    9540:	fff88593          	addi	a1,a7,-1 # ffff <_data_lma+0x3713>
    9544:	206b6d63          	bltu	s6,t1,975e <__divdf3+0x56e>
    9548:	20db7b63          	bgeu	s6,a3,975e <__divdf3+0x56e>
    954c:	18f9                	addi	a7,a7,-2
    954e:	9b1a                	add	s6,s6,t1
    9550:	40db0b33          	sub	s6,s6,a3
    9554:	03db56b3          	divu	a3,s6,t4
    9558:	0642                	slli	a2,a2,0x10
    955a:	8241                	srli	a2,a2,0x10
    955c:	03db7b33          	remu	s6,s6,t4
    9560:	02df0f33          	mul	t5,t5,a3
    9564:	0b42                	slli	s6,s6,0x10
    9566:	01666633          	or	a2,a2,s6
    956a:	01e67b63          	bgeu	a2,t5,9580 <__divdf3+0x390>
    956e:	961a                	add	a2,a2,t1
    9570:	fff68593          	addi	a1,a3,-1 # 7fffff <_data_lma+0x7f3713>
    9574:	1e666763          	bltu	a2,t1,9762 <__divdf3+0x572>
    9578:	1fe67563          	bgeu	a2,t5,9762 <__divdf3+0x572>
    957c:	16f9                	addi	a3,a3,-2
    957e:	961a                	add	a2,a2,t1
    9580:	08c2                	slli	a7,a7,0x10
    9582:	00d8e8b3          	or	a7,a7,a3
    9586:	01089593          	slli	a1,a7,0x10
    958a:	0108d293          	srli	t0,a7,0x10
    958e:	81c1                	srli	a1,a1,0x10
    9590:	02f58eb3          	mul	t4,a1,a5
    9594:	41e60633          	sub	a2,a2,t5
    9598:	02bf85b3          	mul	a1,t6,a1
    959c:	010ed693          	srli	a3,t4,0x10
    95a0:	02f287b3          	mul	a5,t0,a5
    95a4:	95be                	add	a1,a1,a5
    95a6:	96ae                	add	a3,a3,a1
    95a8:	025f8fb3          	mul	t6,t6,t0
    95ac:	00f6f463          	bgeu	a3,a5,95b4 <__divdf3+0x3c4>
    95b0:	67c1                	lui	a5,0x10
    95b2:	9fbe                	add	t6,t6,a5
    95b4:	65c1                	lui	a1,0x10
    95b6:	15fd                	addi	a1,a1,-1
    95b8:	0106d793          	srli	a5,a3,0x10
    95bc:	8eed                	and	a3,a3,a1
    95be:	06c2                	slli	a3,a3,0x10
    95c0:	00befeb3          	and	t4,t4,a1
    95c4:	9fbe                	add	t6,t6,a5
    95c6:	96f6                	add	a3,a3,t4
    95c8:	09f67f63          	bgeu	a2,t6,9666 <__divdf3+0x476>
    95cc:	961a                	add	a2,a2,t1
    95ce:	fff88793          	addi	a5,a7,-1
    95d2:	1a666963          	bltu	a2,t1,9784 <__divdf3+0x594>
    95d6:	19f66863          	bltu	a2,t6,9766 <__divdf3+0x576>
    95da:	1bf60f63          	beq	a2,t6,9798 <__divdf3+0x5a8>
    95de:	88be                	mv	a7,a5
    95e0:	0018e893          	ori	a7,a7,1
    95e4:	b511                	j	93e8 <__divdf3+0x1f8>
    95e6:	854a                	mv	a0,s2
    95e8:	df1fb0ef          	jal	ra,53d8 <__clzsi2>
    95ec:	01550713          	addi	a4,a0,21
    95f0:	45f1                	li	a1,28
    95f2:	02050493          	addi	s1,a0,32
    95f6:	4622                	lw	a2,8(sp)
    95f8:	46b2                	lw	a3,12(sp)
    95fa:	d4e5dae3          	bge	a1,a4,934e <__divdf3+0x15e>
    95fe:	ff850413          	addi	s0,a0,-8
    9602:	00891a33          	sll	s4,s2,s0
    9606:	4b01                	li	s6,0
    9608:	b385                	j	9368 <__divdf3+0x178>
    960a:	8532                	mv	a0,a2
    960c:	c432                	sw	a2,8(sp)
    960e:	dcbfb0ef          	jal	ra,53d8 <__clzsi2>
    9612:	01550713          	addi	a4,a0,21
    9616:	46f1                	li	a3,28
    9618:	87aa                	mv	a5,a0
    961a:	4622                	lw	a2,8(sp)
    961c:	02050513          	addi	a0,a0,32
    9620:	cee6d6e3          	bge	a3,a4,930c <__divdf3+0x11c>
    9624:	17e1                	addi	a5,a5,-8
    9626:	00f61733          	sll	a4,a2,a5
    962a:	4881                	li	a7,0
    962c:	b9e5                	j	9324 <__divdf3+0x134>
    962e:	eecb70e3          	bgeu	s6,a2,950e <__divdf3+0x31e>
    9632:	9b72                	add	s6,s6,t3
    9634:	01cb3533          	sltu	a0,s6,t3
    9638:	951a                	add	a0,a0,t1
    963a:	96aa                	add	a3,a3,a0
    963c:	fff70513          	addi	a0,a4,-1
    9640:	02d37863          	bgeu	t1,a3,9670 <__divdf3+0x480>
    9644:	10b6e663          	bltu	a3,a1,9750 <__divdf3+0x560>
    9648:	10d58263          	beq	a1,a3,974c <__divdf3+0x55c>
    964c:	872a                	mv	a4,a0
    964e:	b5c1                	j	950e <__divdf3+0x31e>
    9650:	df1b65e3          	bltu	s6,a7,943a <__divdf3+0x24a>
    9654:	001b5593          	srli	a1,s6,0x1
    9658:	01fa1693          	slli	a3,s4,0x1f
    965c:	001a5413          	srli	s0,s4,0x1
    9660:	8ecd                	or	a3,a3,a1
    9662:	0b7e                	slli	s6,s6,0x1f
    9664:	bbf9                	j	9442 <__divdf3+0x252>
    9666:	f7f61de3          	bne	a2,t6,95e0 <__divdf3+0x3f0>
    966a:	d6068fe3          	beqz	a3,93e8 <__divdf3+0x1f8>
    966e:	bfb9                	j	95cc <__divdf3+0x3dc>
    9670:	fcd31ee3          	bne	t1,a3,964c <__divdf3+0x45c>
    9674:	fdcb78e3          	bgeu	s6,t3,9644 <__divdf3+0x454>
    9678:	872a                	mv	a4,a0
    967a:	bd51                	j	950e <__divdf3+0x31e>
    967c:	00f8f793          	andi	a5,a7,15
    9680:	4691                	li	a3,4
    9682:	d6d789e3          	beq	a5,a3,93f4 <__divdf3+0x204>
    9686:	ffc8b793          	sltiu	a5,a7,-4
    968a:	00488693          	addi	a3,a7,4
    968e:	0017c793          	xori	a5,a5,1
    9692:	828d                	srli	a3,a3,0x3
    9694:	973e                	add	a4,a4,a5
    9696:	b38d                	j	93f8 <__divdf3+0x208>
    9698:	4681                	li	a3,0
    969a:	4785                	li	a5,1
    969c:	fea04ce3          	bgtz	a0,9694 <__divdf3+0x4a4>
    96a0:	58fd                	li	a7,-1
    96a2:	d0051ce3          	bnez	a0,93ba <__divdf3+0x1ca>
    96a6:	c0100493          	li	s1,-1023
    96aa:	4785                	li	a5,1
    96ac:	41e48513          	addi	a0,s1,1054
    96b0:	00a716b3          	sll	a3,a4,a0
    96b4:	00f8d633          	srl	a2,a7,a5
    96b8:	00a89533          	sll	a0,a7,a0
    96bc:	8ed1                	or	a3,a3,a2
    96be:	00a03533          	snez	a0,a0
    96c2:	8ec9                	or	a3,a3,a0
    96c4:	0076f613          	andi	a2,a3,7
    96c8:	00f75733          	srl	a4,a4,a5
    96cc:	ce01                	beqz	a2,96e4 <__divdf3+0x4f4>
    96ce:	00f6f793          	andi	a5,a3,15
    96d2:	4611                	li	a2,4
    96d4:	00c78863          	beq	a5,a2,96e4 <__divdf3+0x4f4>
    96d8:	00468793          	addi	a5,a3,4
    96dc:	00d7b6b3          	sltu	a3,a5,a3
    96e0:	9736                	add	a4,a4,a3
    96e2:	86be                	mv	a3,a5
    96e4:	00871793          	slli	a5,a4,0x8
    96e8:	0407d863          	bgez	a5,9738 <__divdf3+0x548>
    96ec:	4605                	li	a2,1
    96ee:	4781                	li	a5,0
    96f0:	4701                	li	a4,0
    96f2:	b6f1                	j	92be <__divdf3+0xce>
    96f4:	8736                	mv	a4,a3
    96f6:	bb7d                	j	94b4 <__divdf3+0x2c4>
    96f8:	87b2                	mv	a5,a2
    96fa:	b379                	j	9488 <__divdf3+0x298>
    96fc:	46fd                	li	a3,31
    96fe:	faf6d7e3          	bge	a3,a5,96ac <__divdf3+0x4bc>
    9702:	5605                	li	a2,-31
    9704:	8e09                	sub	a2,a2,a0
    9706:	02000693          	li	a3,32
    970a:	00c75633          	srl	a2,a4,a2
    970e:	00d78863          	beq	a5,a3,971e <__divdf3+0x52e>
    9712:	43e48793          	addi	a5,s1,1086
    9716:	00f717b3          	sll	a5,a4,a5
    971a:	00f8e8b3          	or	a7,a7,a5
    971e:	011036b3          	snez	a3,a7
    9722:	8ed1                	or	a3,a3,a2
    9724:	0076f613          	andi	a2,a3,7
    9728:	4781                	li	a5,0
    972a:	ce01                	beqz	a2,9742 <__divdf3+0x552>
    972c:	00f6f793          	andi	a5,a3,15
    9730:	4611                	li	a2,4
    9732:	4701                	li	a4,0
    9734:	fac792e3          	bne	a5,a2,96d8 <__divdf3+0x4e8>
    9738:	00971793          	slli	a5,a4,0x9
    973c:	01d71613          	slli	a2,a4,0x1d
    9740:	83b1                	srli	a5,a5,0xc
    9742:	0036d713          	srli	a4,a3,0x3
    9746:	8f51                	or	a4,a4,a2
    9748:	4601                	li	a2,0
    974a:	be95                	j	92be <__divdf3+0xce>
    974c:	f0cb70e3          	bgeu	s6,a2,964c <__divdf3+0x45c>
    9750:	9b72                	add	s6,s6,t3
    9752:	01cb3533          	sltu	a0,s6,t3
    9756:	951a                	add	a0,a0,t1
    9758:	1779                	addi	a4,a4,-2
    975a:	96aa                	add	a3,a3,a0
    975c:	bb4d                	j	950e <__divdf3+0x31e>
    975e:	88ae                	mv	a7,a1
    9760:	bbc5                	j	9550 <__divdf3+0x360>
    9762:	86ae                	mv	a3,a1
    9764:	bd31                	j	9580 <__divdf3+0x390>
    9766:	001e1793          	slli	a5,t3,0x1
    976a:	01c7be33          	sltu	t3,a5,t3
    976e:	9372                	add	t1,t1,t3
    9770:	961a                	add	a2,a2,t1
    9772:	18f9                	addi	a7,a7,-2
    9774:	8e3e                	mv	t3,a5
    9776:	e7f615e3          	bne	a2,t6,95e0 <__divdf3+0x3f0>
    977a:	c6de07e3          	beq	t3,a3,93e8 <__divdf3+0x1f8>
    977e:	0018e893          	ori	a7,a7,1
    9782:	b19d                	j	93e8 <__divdf3+0x1f8>
    9784:	88be                	mv	a7,a5
    9786:	fff60ae3          	beq	a2,t6,977a <__divdf3+0x58a>
    978a:	bd99                	j	95e0 <__divdf3+0x3f0>
    978c:	8836                	mv	a6,a3
    978e:	7ff00613          	li	a2,2047
    9792:	4781                	li	a5,0
    9794:	4701                	li	a4,0
    9796:	b625                	j	92be <__divdf3+0xce>
    9798:	fcde67e3          	bltu	t3,a3,9766 <__divdf3+0x576>
    979c:	88be                	mv	a7,a5
    979e:	fede10e3          	bne	t3,a3,977e <__divdf3+0x58e>
    97a2:	b199                	j	93e8 <__divdf3+0x1f8>

000097a4 <__eqdf2>:
    97a4:	0145d713          	srli	a4,a1,0x14
    97a8:	001007b7          	lui	a5,0x100
    97ac:	17fd                	addi	a5,a5,-1
    97ae:	0146d813          	srli	a6,a3,0x14
    97b2:	7ff77713          	andi	a4,a4,2047
    97b6:	7ff00893          	li	a7,2047
    97ba:	00b7fe33          	and	t3,a5,a1
    97be:	8eaa                	mv	t4,a0
    97c0:	8ff5                	and	a5,a5,a3
    97c2:	81fd                	srli	a1,a1,0x1f
    97c4:	8f32                	mv	t5,a2
    97c6:	7ff87813          	andi	a6,a6,2047
    97ca:	82fd                	srli	a3,a3,0x1f
    97cc:	01170b63          	beq	a4,a7,97e2 <__eqdf2+0x3e>
    97d0:	4305                	li	t1,1
    97d2:	01180663          	beq	a6,a7,97de <__eqdf2+0x3a>
    97d6:	01071463          	bne	a4,a6,97de <__eqdf2+0x3a>
    97da:	00fe0d63          	beq	t3,a5,97f4 <__eqdf2+0x50>
    97de:	851a                	mv	a0,t1
    97e0:	8082                	ret
    97e2:	00ae68b3          	or	a7,t3,a0
    97e6:	4305                	li	t1,1
    97e8:	fe089be3          	bnez	a7,97de <__eqdf2+0x3a>
    97ec:	fee819e3          	bne	a6,a4,97de <__eqdf2+0x3a>
    97f0:	8fd1                	or	a5,a5,a2
    97f2:	f7f5                	bnez	a5,97de <__eqdf2+0x3a>
    97f4:	4305                	li	t1,1
    97f6:	ffee94e3          	bne	t4,t5,97de <__eqdf2+0x3a>
    97fa:	4301                	li	t1,0
    97fc:	fed581e3          	beq	a1,a3,97de <__eqdf2+0x3a>
    9800:	4305                	li	t1,1
    9802:	ff71                	bnez	a4,97de <__eqdf2+0x3a>
    9804:	00ae6533          	or	a0,t3,a0
    9808:	00a03333          	snez	t1,a0
    980c:	bfc9                	j	97de <__eqdf2+0x3a>

0000980e <__gedf2>:
    980e:	0145d713          	srli	a4,a1,0x14
    9812:	001007b7          	lui	a5,0x100
    9816:	17fd                	addi	a5,a5,-1
    9818:	0146d813          	srli	a6,a3,0x14
    981c:	7ff77713          	andi	a4,a4,2047
    9820:	7ff00893          	li	a7,2047
    9824:	00b7f333          	and	t1,a5,a1
    9828:	8e2a                	mv	t3,a0
    982a:	8ff5                	and	a5,a5,a3
    982c:	81fd                	srli	a1,a1,0x1f
    982e:	8eb2                	mv	t4,a2
    9830:	7ff87813          	andi	a6,a6,2047
    9834:	82fd                	srli	a3,a3,0x1f
    9836:	03170863          	beq	a4,a7,9866 <__gedf2+0x58>
    983a:	03180063          	beq	a6,a7,985a <__gedf2+0x4c>
    983e:	eb0d                	bnez	a4,9870 <__gedf2+0x62>
    9840:	00a368b3          	or	a7,t1,a0
    9844:	00081463          	bnez	a6,984c <__gedf2+0x3e>
    9848:	8e5d                	or	a2,a2,a5
    984a:	ca29                	beqz	a2,989c <__gedf2+0x8e>
    984c:	04088563          	beqz	a7,9896 <__gedf2+0x88>
    9850:	02d58863          	beq	a1,a3,9880 <__gedf2+0x72>
    9854:	4505                	li	a0,1
    9856:	ed95                	bnez	a1,9892 <__gedf2+0x84>
    9858:	8082                	ret
    985a:	00c7e8b3          	or	a7,a5,a2
    985e:	fe0880e3          	beqz	a7,983e <__gedf2+0x30>
    9862:	5579                	li	a0,-2
    9864:	8082                	ret
    9866:	00a36533          	or	a0,t1,a0
    986a:	fd65                	bnez	a0,9862 <__gedf2+0x54>
    986c:	02e80c63          	beq	a6,a4,98a4 <__gedf2+0x96>
    9870:	00081463          	bnez	a6,9878 <__gedf2+0x6a>
    9874:	8e5d                	or	a2,a2,a5
    9876:	de79                	beqz	a2,9854 <__gedf2+0x46>
    9878:	fcd59ee3          	bne	a1,a3,9854 <__gedf2+0x46>
    987c:	fce84ce3          	blt	a6,a4,9854 <__gedf2+0x46>
    9880:	01074863          	blt	a4,a6,9890 <__gedf2+0x82>
    9884:	fc67e8e3          	bltu	a5,t1,9854 <__gedf2+0x46>
    9888:	02f30363          	beq	t1,a5,98ae <__gedf2+0xa0>
    988c:	00f37f63          	bgeu	t1,a5,98aa <__gedf2+0x9c>
    9890:	e581                	bnez	a1,9898 <__gedf2+0x8a>
    9892:	557d                	li	a0,-1
    9894:	8082                	ret
    9896:	def5                	beqz	a3,9892 <__gedf2+0x84>
    9898:	4505                	li	a0,1
    989a:	8082                	ret
    989c:	4501                	li	a0,0
    989e:	fa089be3          	bnez	a7,9854 <__gedf2+0x46>
    98a2:	8082                	ret
    98a4:	8e5d                	or	a2,a2,a5
    98a6:	da69                	beqz	a2,9878 <__gedf2+0x6a>
    98a8:	bf6d                	j	9862 <__gedf2+0x54>
    98aa:	4501                	li	a0,0
    98ac:	8082                	ret
    98ae:	fbcee3e3          	bltu	t4,t3,9854 <__gedf2+0x46>
    98b2:	4501                	li	a0,0
    98b4:	fbde72e3          	bgeu	t3,t4,9858 <__gedf2+0x4a>
    98b8:	f1e5                	bnez	a1,9898 <__gedf2+0x8a>
    98ba:	bfe1                	j	9892 <__gedf2+0x84>

000098bc <__ledf2>:
    98bc:	0145d713          	srli	a4,a1,0x14
    98c0:	001007b7          	lui	a5,0x100
    98c4:	17fd                	addi	a5,a5,-1
    98c6:	0146d813          	srli	a6,a3,0x14
    98ca:	7ff77713          	andi	a4,a4,2047
    98ce:	7ff00893          	li	a7,2047
    98d2:	00b7fe33          	and	t3,a5,a1
    98d6:	8eaa                	mv	t4,a0
    98d8:	8ff5                	and	a5,a5,a3
    98da:	81fd                	srli	a1,a1,0x1f
    98dc:	8f32                	mv	t5,a2
    98de:	7ff87813          	andi	a6,a6,2047
    98e2:	82fd                	srli	a3,a3,0x1f
    98e4:	03170e63          	beq	a4,a7,9920 <__ledf2+0x64>
    98e8:	01180d63          	beq	a6,a7,9902 <__ledf2+0x46>
    98ec:	e329                	bnez	a4,992e <__ledf2+0x72>
    98ee:	00ae68b3          	or	a7,t3,a0
    98f2:	00081f63          	bnez	a6,9910 <__ledf2+0x54>
    98f6:	8e5d                	or	a2,a2,a5
    98f8:	ee01                	bnez	a2,9910 <__ledf2+0x54>
    98fa:	4301                	li	t1,0
    98fc:	04088c63          	beqz	a7,9954 <__ledf2+0x98>
    9900:	a821                	j	9918 <__ledf2+0x5c>
    9902:	00c7e8b3          	or	a7,a5,a2
    9906:	4309                	li	t1,2
    9908:	04089663          	bnez	a7,9954 <__ledf2+0x98>
    990c:	d36d                	beqz	a4,98ee <__ledf2+0x32>
    990e:	a005                	j	992e <__ledf2+0x72>
    9910:	04088463          	beqz	a7,9958 <__ledf2+0x9c>
    9914:	02d58563          	beq	a1,a3,993e <__ledf2+0x82>
    9918:	4305                	li	t1,1
    991a:	cd8d                	beqz	a1,9954 <__ledf2+0x98>
    991c:	537d                	li	t1,-1
    991e:	a81d                	j	9954 <__ledf2+0x98>
    9920:	00ae68b3          	or	a7,t3,a0
    9924:	4309                	li	t1,2
    9926:	02089763          	bnez	a7,9954 <__ledf2+0x98>
    992a:	02e80a63          	beq	a6,a4,995e <__ledf2+0xa2>
    992e:	00081463          	bnez	a6,9936 <__ledf2+0x7a>
    9932:	8e5d                	or	a2,a2,a5
    9934:	d275                	beqz	a2,9918 <__ledf2+0x5c>
    9936:	fed591e3          	bne	a1,a3,9918 <__ledf2+0x5c>
    993a:	fce84fe3          	blt	a6,a4,9918 <__ledf2+0x5c>
    993e:	01074963          	blt	a4,a6,9950 <__ledf2+0x94>
    9942:	fdc7ebe3          	bltu	a5,t3,9918 <__ledf2+0x5c>
    9946:	00fe0f63          	beq	t3,a5,9964 <__ledf2+0xa8>
    994a:	4301                	li	t1,0
    994c:	00fe7463          	bgeu	t3,a5,9954 <__ledf2+0x98>
    9950:	d5f1                	beqz	a1,991c <__ledf2+0x60>
    9952:	4305                	li	t1,1
    9954:	851a                	mv	a0,t1
    9956:	8082                	ret
    9958:	feed                	bnez	a3,9952 <__ledf2+0x96>
    995a:	537d                	li	t1,-1
    995c:	bfe5                	j	9954 <__ledf2+0x98>
    995e:	8e5d                	or	a2,a2,a5
    9960:	da79                	beqz	a2,9936 <__ledf2+0x7a>
    9962:	bfcd                	j	9954 <__ledf2+0x98>
    9964:	fbdf6ae3          	bltu	t5,t4,9918 <__ledf2+0x5c>
    9968:	4301                	li	t1,0
    996a:	ffeef5e3          	bgeu	t4,t5,9954 <__ledf2+0x98>
    996e:	f1f5                	bnez	a1,9952 <__ledf2+0x96>
    9970:	b775                	j	991c <__ledf2+0x60>

00009972 <__muldf3>:
    9972:	7139                	addi	sp,sp,-64
    9974:	d84a                	sw	s2,48(sp)
    9976:	0145d913          	srli	s2,a1,0x14
    997a:	d64e                	sw	s3,44(sp)
    997c:	d452                	sw	s4,40(sp)
    997e:	d256                	sw	s5,36(sp)
    9980:	00c59993          	slli	s3,a1,0xc
    9984:	de06                	sw	ra,60(sp)
    9986:	dc22                	sw	s0,56(sp)
    9988:	da26                	sw	s1,52(sp)
    998a:	d05a                	sw	s6,32(sp)
    998c:	ce5e                	sw	s7,28(sp)
    998e:	7ff97913          	andi	s2,s2,2047
    9992:	8a2a                	mv	s4,a0
    9994:	00c9d993          	srli	s3,s3,0xc
    9998:	01f5da93          	srli	s5,a1,0x1f
    999c:	0e090d63          	beqz	s2,9a96 <__muldf3+0x124>
    99a0:	7ff00793          	li	a5,2047
    99a4:	18f90663          	beq	s2,a5,9b30 <__muldf3+0x1be>
    99a8:	01d55413          	srli	s0,a0,0x1d
    99ac:	098e                	slli	s3,s3,0x3
    99ae:	013469b3          	or	s3,s0,s3
    99b2:	00800437          	lui	s0,0x800
    99b6:	0089e433          	or	s0,s3,s0
    99ba:	00351493          	slli	s1,a0,0x3
    99be:	c0190913          	addi	s2,s2,-1023
    99c2:	4981                	li	s3,0
    99c4:	4b81                	li	s7,0
    99c6:	0146d713          	srli	a4,a3,0x14
    99ca:	00c69a13          	slli	s4,a3,0xc
    99ce:	7ff77713          	andi	a4,a4,2047
    99d2:	85b2                	mv	a1,a2
    99d4:	00ca5a13          	srli	s4,s4,0xc
    99d8:	01f6db13          	srli	s6,a3,0x1f
    99dc:	10070b63          	beqz	a4,9af2 <__muldf3+0x180>
    99e0:	7ff00793          	li	a5,2047
    99e4:	04f70363          	beq	a4,a5,9a2a <__muldf3+0xb8>
    99e8:	01d65793          	srli	a5,a2,0x1d
    99ec:	0a0e                	slli	s4,s4,0x3
    99ee:	0147ea33          	or	s4,a5,s4
    99f2:	c0170713          	addi	a4,a4,-1023
    99f6:	008007b7          	lui	a5,0x800
    99fa:	00fa67b3          	or	a5,s4,a5
    99fe:	00361593          	slli	a1,a2,0x3
    9a02:	993a                	add	s2,s2,a4
    9a04:	4881                	li	a7,0
    9a06:	016ac733          	xor	a4,s5,s6
    9a0a:	46bd                	li	a3,15
    9a0c:	853a                	mv	a0,a4
    9a0e:	00190813          	addi	a6,s2,1
    9a12:	1736e863          	bltu	a3,s3,9b82 <__muldf3+0x210>
    9a16:	00003617          	auipc	a2,0x3
    9a1a:	e9660613          	addi	a2,a2,-362 # c8ac <_ctype_+0x144>
    9a1e:	098a                	slli	s3,s3,0x2
    9a20:	99b2                	add	s3,s3,a2
    9a22:	0009a683          	lw	a3,0(s3)
    9a26:	96b2                	add	a3,a3,a2
    9a28:	8682                	jr	a3
    9a2a:	00ca67b3          	or	a5,s4,a2
    9a2e:	7ff90913          	addi	s2,s2,2047
    9a32:	12079963          	bnez	a5,9b64 <__muldf3+0x1f2>
    9a36:	0029e993          	ori	s3,s3,2
    9a3a:	4581                	li	a1,0
    9a3c:	4889                	li	a7,2
    9a3e:	b7e1                	j	9a06 <__muldf3+0x94>
    9a40:	4701                	li	a4,0
    9a42:	7ff00793          	li	a5,2047
    9a46:	00080437          	lui	s0,0x80
    9a4a:	4481                	li	s1,0
    9a4c:	0432                	slli	s0,s0,0xc
    9a4e:	07d2                	slli	a5,a5,0x14
    9a50:	8031                	srli	s0,s0,0xc
    9a52:	077e                	slli	a4,a4,0x1f
    9a54:	8c5d                	or	s0,s0,a5
    9a56:	8c59                	or	s0,s0,a4
    9a58:	85a2                	mv	a1,s0
    9a5a:	50f2                	lw	ra,60(sp)
    9a5c:	5462                	lw	s0,56(sp)
    9a5e:	8526                	mv	a0,s1
    9a60:	5942                	lw	s2,48(sp)
    9a62:	54d2                	lw	s1,52(sp)
    9a64:	59b2                	lw	s3,44(sp)
    9a66:	5a22                	lw	s4,40(sp)
    9a68:	5a92                	lw	s5,36(sp)
    9a6a:	5b02                	lw	s6,32(sp)
    9a6c:	4bf2                	lw	s7,28(sp)
    9a6e:	6121                	addi	sp,sp,64
    9a70:	8082                	ret
    9a72:	855a                	mv	a0,s6
    9a74:	843e                	mv	s0,a5
    9a76:	84ae                	mv	s1,a1
    9a78:	8bc6                	mv	s7,a7
    9a7a:	4789                	li	a5,2
    9a7c:	0efb8d63          	beq	s7,a5,9b76 <__muldf3+0x204>
    9a80:	478d                	li	a5,3
    9a82:	fafb8fe3          	beq	s7,a5,9a40 <__muldf3+0xce>
    9a86:	4785                	li	a5,1
    9a88:	872a                	mv	a4,a0
    9a8a:	38fb9e63          	bne	s7,a5,9e26 <__muldf3+0x4b4>
    9a8e:	4781                	li	a5,0
    9a90:	4401                	li	s0,0
    9a92:	4481                	li	s1,0
    9a94:	bf65                	j	9a4c <__muldf3+0xda>
    9a96:	00a9e433          	or	s0,s3,a0
    9a9a:	c061                	beqz	s0,9b5a <__muldf3+0x1e8>
    9a9c:	c636                	sw	a3,12(sp)
    9a9e:	c432                	sw	a2,8(sp)
    9aa0:	2a098c63          	beqz	s3,9d58 <__muldf3+0x3e6>
    9aa4:	854e                	mv	a0,s3
    9aa6:	933fb0ef          	jal	ra,53d8 <__clzsi2>
    9aaa:	4622                	lw	a2,8(sp)
    9aac:	46b2                	lw	a3,12(sp)
    9aae:	87aa                	mv	a5,a0
    9ab0:	ff550713          	addi	a4,a0,-11
    9ab4:	4475                	li	s0,29
    9ab6:	ff878493          	addi	s1,a5,-8 # 7ffff8 <_data_lma+0x7f370c>
    9aba:	8c19                	sub	s0,s0,a4
    9abc:	009999b3          	sll	s3,s3,s1
    9ac0:	008a5433          	srl	s0,s4,s0
    9ac4:	01346433          	or	s0,s0,s3
    9ac8:	009a14b3          	sll	s1,s4,s1
    9acc:	0146d713          	srli	a4,a3,0x14
    9ad0:	c0d00913          	li	s2,-1011
    9ad4:	00c69a13          	slli	s4,a3,0xc
    9ad8:	7ff77713          	andi	a4,a4,2047
    9adc:	40f90933          	sub	s2,s2,a5
    9ae0:	4981                	li	s3,0
    9ae2:	4b81                	li	s7,0
    9ae4:	85b2                	mv	a1,a2
    9ae6:	00ca5a13          	srli	s4,s4,0xc
    9aea:	01f6db13          	srli	s6,a3,0x1f
    9aee:	ee0719e3          	bnez	a4,99e0 <__muldf3+0x6e>
    9af2:	00ca67b3          	or	a5,s4,a2
    9af6:	c7b1                	beqz	a5,9b42 <__muldf3+0x1d0>
    9af8:	220a0f63          	beqz	s4,9d36 <__muldf3+0x3c4>
    9afc:	8552                	mv	a0,s4
    9afe:	c432                	sw	a2,8(sp)
    9b00:	8d9fb0ef          	jal	ra,53d8 <__clzsi2>
    9b04:	4622                	lw	a2,8(sp)
    9b06:	872a                	mv	a4,a0
    9b08:	ff550693          	addi	a3,a0,-11
    9b0c:	47f5                	li	a5,29
    9b0e:	ff870593          	addi	a1,a4,-8
    9b12:	8f95                	sub	a5,a5,a3
    9b14:	00ba1a33          	sll	s4,s4,a1
    9b18:	00f657b3          	srl	a5,a2,a5
    9b1c:	0147e7b3          	or	a5,a5,s4
    9b20:	00b615b3          	sll	a1,a2,a1
    9b24:	40e90933          	sub	s2,s2,a4
    9b28:	c0d90913          	addi	s2,s2,-1011
    9b2c:	4881                	li	a7,0
    9b2e:	bde1                	j	9a06 <__muldf3+0x94>
    9b30:	00a9e433          	or	s0,s3,a0
    9b34:	ec01                	bnez	s0,9b4c <__muldf3+0x1da>
    9b36:	49a1                	li	s3,8
    9b38:	4481                	li	s1,0
    9b3a:	7ff00913          	li	s2,2047
    9b3e:	4b89                	li	s7,2
    9b40:	b559                	j	99c6 <__muldf3+0x54>
    9b42:	0019e993          	ori	s3,s3,1
    9b46:	4581                	li	a1,0
    9b48:	4885                	li	a7,1
    9b4a:	bd75                	j	9a06 <__muldf3+0x94>
    9b4c:	844e                	mv	s0,s3
    9b4e:	84aa                	mv	s1,a0
    9b50:	49b1                	li	s3,12
    9b52:	7ff00913          	li	s2,2047
    9b56:	4b8d                	li	s7,3
    9b58:	b5bd                	j	99c6 <__muldf3+0x54>
    9b5a:	4991                	li	s3,4
    9b5c:	4481                	li	s1,0
    9b5e:	4901                	li	s2,0
    9b60:	4b85                	li	s7,1
    9b62:	b595                	j	99c6 <__muldf3+0x54>
    9b64:	0039e993          	ori	s3,s3,3
    9b68:	87d2                	mv	a5,s4
    9b6a:	488d                	li	a7,3
    9b6c:	bd69                	j	9a06 <__muldf3+0x94>
    9b6e:	4789                	li	a5,2
    9b70:	8556                	mv	a0,s5
    9b72:	f0fb97e3          	bne	s7,a5,9a80 <__muldf3+0x10e>
    9b76:	872a                	mv	a4,a0
    9b78:	7ff00793          	li	a5,2047
    9b7c:	4401                	li	s0,0
    9b7e:	4481                	li	s1,0
    9b80:	b5f1                	j	9a4c <__muldf3+0xda>
    9b82:	6ec1                	lui	t4,0x10
    9b84:	fffe8613          	addi	a2,t4,-1 # ffff <_data_lma+0x3713>
    9b88:	0104d693          	srli	a3,s1,0x10
    9b8c:	0105de13          	srli	t3,a1,0x10
    9b90:	8cf1                	and	s1,s1,a2
    9b92:	8df1                	and	a1,a1,a2
    9b94:	02958633          	mul	a2,a1,s1
    9b98:	02b68333          	mul	t1,a3,a1
    9b9c:	01065893          	srli	a7,a2,0x10
    9ba0:	029e0533          	mul	a0,t3,s1
    9ba4:	951a                	add	a0,a0,t1
    9ba6:	98aa                	add	a7,a7,a0
    9ba8:	03c682b3          	mul	t0,a3,t3
    9bac:	0068f363          	bgeu	a7,t1,9bb2 <__muldf3+0x240>
    9bb0:	92f6                	add	t0,t0,t4
    9bb2:	6fc1                	lui	t6,0x10
    9bb4:	ffff8313          	addi	t1,t6,-1 # ffff <_data_lma+0x3713>
    9bb8:	0067f533          	and	a0,a5,t1
    9bbc:	0107d393          	srli	t2,a5,0x10
    9bc0:	0068f7b3          	and	a5,a7,t1
    9bc4:	07c2                	slli	a5,a5,0x10
    9bc6:	00667333          	and	t1,a2,t1
    9bca:	933e                	add	t1,t1,a5
    9bcc:	02950633          	mul	a2,a0,s1
    9bd0:	0108d893          	srli	a7,a7,0x10
    9bd4:	02a687b3          	mul	a5,a3,a0
    9bd8:	01065f13          	srli	t5,a2,0x10
    9bdc:	029384b3          	mul	s1,t2,s1
    9be0:	94be                	add	s1,s1,a5
    9be2:	94fa                	add	s1,s1,t5
    9be4:	02768eb3          	mul	t4,a3,t2
    9be8:	00f4f363          	bgeu	s1,a5,9bee <__muldf3+0x27c>
    9bec:	9efe                	add	t4,t4,t6
    9bee:	6a41                	lui	s4,0x10
    9bf0:	fffa0793          	addi	a5,s4,-1 # ffff <_data_lma+0x3713>
    9bf4:	01045f93          	srli	t6,s0,0x10
    9bf8:	00f476b3          	and	a3,s0,a5
    9bfc:	00f4f9b3          	and	s3,s1,a5
    9c00:	8e7d                	and	a2,a2,a5
    9c02:	80c1                	srli	s1,s1,0x10
    9c04:	02d58433          	mul	s0,a1,a3
    9c08:	09c2                	slli	s3,s3,0x10
    9c0a:	01d48f33          	add	t5,s1,t4
    9c0e:	99b2                	add	s3,s3,a2
    9c10:	98ce                	add	a7,a7,s3
    9c12:	02de07b3          	mul	a5,t3,a3
    9c16:	01045e93          	srli	t4,s0,0x10
    9c1a:	02bf85b3          	mul	a1,t6,a1
    9c1e:	97ae                	add	a5,a5,a1
    9c20:	9ebe                	add	t4,t4,a5
    9c22:	03fe0e33          	mul	t3,t3,t6
    9c26:	00bef363          	bgeu	t4,a1,9c2c <__muldf3+0x2ba>
    9c2a:	9e52                	add	t3,t3,s4
    9c2c:	67c1                	lui	a5,0x10
    9c2e:	fff78593          	addi	a1,a5,-1 # ffff <_data_lma+0x3713>
    9c32:	00bef633          	and	a2,t4,a1
    9c36:	8c6d                	and	s0,s0,a1
    9c38:	0642                	slli	a2,a2,0x10
    9c3a:	9622                	add	a2,a2,s0
    9c3c:	010ede93          	srli	t4,t4,0x10
    9c40:	02d505b3          	mul	a1,a0,a3
    9c44:	9e76                	add	t3,t3,t4
    9c46:	02af8533          	mul	a0,t6,a0
    9c4a:	0105d413          	srli	s0,a1,0x10
    9c4e:	02d386b3          	mul	a3,t2,a3
    9c52:	96aa                	add	a3,a3,a0
    9c54:	96a2                	add	a3,a3,s0
    9c56:	03f38fb3          	mul	t6,t2,t6
    9c5a:	00a6f363          	bgeu	a3,a0,9c60 <__muldf3+0x2ee>
    9c5e:	9fbe                	add	t6,t6,a5
    9c60:	6541                	lui	a0,0x10
    9c62:	157d                	addi	a0,a0,-1
    9c64:	00a6f7b3          	and	a5,a3,a0
    9c68:	07c2                	slli	a5,a5,0x10
    9c6a:	8d6d                	and	a0,a0,a1
    9c6c:	97aa                	add	a5,a5,a0
    9c6e:	005885b3          	add	a1,a7,t0
    9c72:	0135b9b3          	sltu	s3,a1,s3
    9c76:	97fa                	add	a5,a5,t5
    9c78:	95b2                	add	a1,a1,a2
    9c7a:	01378433          	add	s0,a5,s3
    9c7e:	00c5b633          	sltu	a2,a1,a2
    9c82:	01c40eb3          	add	t4,s0,t3
    9c86:	00ce8533          	add	a0,t4,a2
    9c8a:	01343433          	sltu	s0,s0,s3
    9c8e:	01e7b7b3          	sltu	a5,a5,t5
    9c92:	8fc1                	or	a5,a5,s0
    9c94:	01cebe33          	sltu	t3,t4,t3
    9c98:	0106d413          	srli	s0,a3,0x10
    9c9c:	00c53633          	sltu	a2,a0,a2
    9ca0:	943e                	add	s0,s0,a5
    9ca2:	00ce6633          	or	a2,t3,a2
    9ca6:	00959493          	slli	s1,a1,0x9
    9caa:	9432                	add	s0,s0,a2
    9cac:	947e                	add	s0,s0,t6
    9cae:	0064e4b3          	or	s1,s1,t1
    9cb2:	0426                	slli	s0,s0,0x9
    9cb4:	01755693          	srli	a3,a0,0x17
    9cb8:	009034b3          	snez	s1,s1
    9cbc:	81dd                	srli	a1,a1,0x17
    9cbe:	00951793          	slli	a5,a0,0x9
    9cc2:	8ccd                	or	s1,s1,a1
    9cc4:	8c55                	or	s0,s0,a3
    9cc6:	8cdd                	or	s1,s1,a5
    9cc8:	00741793          	slli	a5,s0,0x7
    9ccc:	0007db63          	bgez	a5,9ce2 <__muldf3+0x370>
    9cd0:	0014d793          	srli	a5,s1,0x1
    9cd4:	8885                	andi	s1,s1,1
    9cd6:	01f41693          	slli	a3,s0,0x1f
    9cda:	8cdd                	or	s1,s1,a5
    9cdc:	8cd5                	or	s1,s1,a3
    9cde:	8005                	srli	s0,s0,0x1
    9ce0:	8942                	mv	s2,a6
    9ce2:	3ff90793          	addi	a5,s2,1023
    9ce6:	08f05963          	blez	a5,9d78 <__muldf3+0x406>
    9cea:	0074f693          	andi	a3,s1,7
    9cee:	ce81                	beqz	a3,9d06 <__muldf3+0x394>
    9cf0:	00f4f693          	andi	a3,s1,15
    9cf4:	4611                	li	a2,4
    9cf6:	00c68863          	beq	a3,a2,9d06 <__muldf3+0x394>
    9cfa:	00448693          	addi	a3,s1,4
    9cfe:	0096b4b3          	sltu	s1,a3,s1
    9d02:	9426                	add	s0,s0,s1
    9d04:	84b6                	mv	s1,a3
    9d06:	00741693          	slli	a3,s0,0x7
    9d0a:	0006d863          	bgez	a3,9d1a <__muldf3+0x3a8>
    9d0e:	ff0007b7          	lui	a5,0xff000
    9d12:	17fd                	addi	a5,a5,-1
    9d14:	8c7d                	and	s0,s0,a5
    9d16:	40090793          	addi	a5,s2,1024
    9d1a:	7fe00693          	li	a3,2046
    9d1e:	0ef6cf63          	blt	a3,a5,9e1c <__muldf3+0x4aa>
    9d22:	0034d693          	srli	a3,s1,0x3
    9d26:	01d41493          	slli	s1,s0,0x1d
    9d2a:	0426                	slli	s0,s0,0x9
    9d2c:	8cd5                	or	s1,s1,a3
    9d2e:	8031                	srli	s0,s0,0xc
    9d30:	7ff7f793          	andi	a5,a5,2047
    9d34:	bb21                	j	9a4c <__muldf3+0xda>
    9d36:	8532                	mv	a0,a2
    9d38:	c432                	sw	a2,8(sp)
    9d3a:	e9efb0ef          	jal	ra,53d8 <__clzsi2>
    9d3e:	01550693          	addi	a3,a0,21 # 10015 <_data_lma+0x3729>
    9d42:	47f1                	li	a5,28
    9d44:	02050713          	addi	a4,a0,32
    9d48:	4622                	lw	a2,8(sp)
    9d4a:	dcd7d1e3          	bge	a5,a3,9b0c <__muldf3+0x19a>
    9d4e:	1561                	addi	a0,a0,-8
    9d50:	00a617b3          	sll	a5,a2,a0
    9d54:	4581                	li	a1,0
    9d56:	b3f9                	j	9b24 <__muldf3+0x1b2>
    9d58:	e80fb0ef          	jal	ra,53d8 <__clzsi2>
    9d5c:	01550713          	addi	a4,a0,21
    9d60:	45f1                	li	a1,28
    9d62:	02050793          	addi	a5,a0,32
    9d66:	4622                	lw	a2,8(sp)
    9d68:	46b2                	lw	a3,12(sp)
    9d6a:	d4e5d5e3          	bge	a1,a4,9ab4 <__muldf3+0x142>
    9d6e:	1561                	addi	a0,a0,-8
    9d70:	00aa1433          	sll	s0,s4,a0
    9d74:	4481                	li	s1,0
    9d76:	bb99                	j	9acc <__muldf3+0x15a>
    9d78:	4685                	li	a3,1
    9d7a:	8e9d                	sub	a3,a3,a5
    9d7c:	e7b1                	bnez	a5,9dc8 <__muldf3+0x456>
    9d7e:	41e90913          	addi	s2,s2,1054
    9d82:	012497b3          	sll	a5,s1,s2
    9d86:	00d4d4b3          	srl	s1,s1,a3
    9d8a:	01241933          	sll	s2,s0,s2
    9d8e:	00f037b3          	snez	a5,a5
    9d92:	009964b3          	or	s1,s2,s1
    9d96:	8cdd                	or	s1,s1,a5
    9d98:	0074f793          	andi	a5,s1,7
    9d9c:	00d456b3          	srl	a3,s0,a3
    9da0:	cf81                	beqz	a5,9db8 <__muldf3+0x446>
    9da2:	00f4f793          	andi	a5,s1,15
    9da6:	4611                	li	a2,4
    9da8:	00c78863          	beq	a5,a2,9db8 <__muldf3+0x446>
    9dac:	00448793          	addi	a5,s1,4
    9db0:	0097b4b3          	sltu	s1,a5,s1
    9db4:	96a6                	add	a3,a3,s1
    9db6:	84be                	mv	s1,a5
    9db8:	00869793          	slli	a5,a3,0x8
    9dbc:	0407d863          	bgez	a5,9e0c <__muldf3+0x49a>
    9dc0:	4785                	li	a5,1
    9dc2:	4401                	li	s0,0
    9dc4:	4481                	li	s1,0
    9dc6:	b159                	j	9a4c <__muldf3+0xda>
    9dc8:	03800613          	li	a2,56
    9dcc:	ccd641e3          	blt	a2,a3,9a8e <__muldf3+0x11c>
    9dd0:	467d                	li	a2,31
    9dd2:	fad656e3          	bge	a2,a3,9d7e <__muldf3+0x40c>
    9dd6:	5605                	li	a2,-31
    9dd8:	40f607b3          	sub	a5,a2,a5
    9ddc:	02000593          	li	a1,32
    9de0:	00f45633          	srl	a2,s0,a5
    9de4:	00b68763          	beq	a3,a1,9df2 <__muldf3+0x480>
    9de8:	43e90913          	addi	s2,s2,1086
    9dec:	012417b3          	sll	a5,s0,s2
    9df0:	8cdd                	or	s1,s1,a5
    9df2:	009034b3          	snez	s1,s1
    9df6:	8cd1                	or	s1,s1,a2
    9df8:	0074f693          	andi	a3,s1,7
    9dfc:	4401                	li	s0,0
    9dfe:	ca99                	beqz	a3,9e14 <__muldf3+0x4a2>
    9e00:	00f4f793          	andi	a5,s1,15
    9e04:	4611                	li	a2,4
    9e06:	4681                	li	a3,0
    9e08:	fac792e3          	bne	a5,a2,9dac <__muldf3+0x43a>
    9e0c:	00969413          	slli	s0,a3,0x9
    9e10:	8031                	srli	s0,s0,0xc
    9e12:	06f6                	slli	a3,a3,0x1d
    9e14:	808d                	srli	s1,s1,0x3
    9e16:	8cd5                	or	s1,s1,a3
    9e18:	4781                	li	a5,0
    9e1a:	b90d                	j	9a4c <__muldf3+0xda>
    9e1c:	7ff00793          	li	a5,2047
    9e20:	4401                	li	s0,0
    9e22:	4481                	li	s1,0
    9e24:	b125                	j	9a4c <__muldf3+0xda>
    9e26:	8942                	mv	s2,a6
    9e28:	bd6d                	j	9ce2 <__muldf3+0x370>

00009e2a <__subdf3>:
    9e2a:	00100737          	lui	a4,0x100
    9e2e:	177d                	addi	a4,a4,-1
    9e30:	1101                	addi	sp,sp,-32
    9e32:	00b77333          	and	t1,a4,a1
    9e36:	0146d893          	srli	a7,a3,0x14
    9e3a:	8f75                	and	a4,a4,a3
    9e3c:	01d65e93          	srli	t4,a2,0x1d
    9e40:	cc22                	sw	s0,24(sp)
    9e42:	ca26                	sw	s1,20(sp)
    9e44:	030e                	slli	t1,t1,0x3
    9e46:	0145d493          	srli	s1,a1,0x14
    9e4a:	01d55793          	srli	a5,a0,0x1d
    9e4e:	070e                	slli	a4,a4,0x3
    9e50:	ce06                	sw	ra,28(sp)
    9e52:	c84a                	sw	s2,16(sp)
    9e54:	c64e                	sw	s3,12(sp)
    9e56:	7ff8f893          	andi	a7,a7,2047
    9e5a:	7ff00e13          	li	t3,2047
    9e5e:	00eee733          	or	a4,t4,a4
    9e62:	7ff4f493          	andi	s1,s1,2047
    9e66:	01f5d413          	srli	s0,a1,0x1f
    9e6a:	0067e333          	or	t1,a5,t1
    9e6e:	00351f13          	slli	t5,a0,0x3
    9e72:	82fd                	srli	a3,a3,0x1f
    9e74:	00361e93          	slli	t4,a2,0x3
    9e78:	19c88063          	beq	a7,t3,9ff8 <__subdf3+0x1ce>
    9e7c:	0016c693          	xori	a3,a3,1
    9e80:	411485b3          	sub	a1,s1,a7
    9e84:	12d40563          	beq	s0,a3,9fae <__subdf3+0x184>
    9e88:	18b05163          	blez	a1,a00a <__subdf3+0x1e0>
    9e8c:	1a088b63          	beqz	a7,a042 <__subdf3+0x218>
    9e90:	008007b7          	lui	a5,0x800
    9e94:	8f5d                	or	a4,a4,a5
    9e96:	59c48163          	beq	s1,t3,a418 <__subdf3+0x5ee>
    9e9a:	03800793          	li	a5,56
    9e9e:	34b7c463          	blt	a5,a1,a1e6 <__subdf3+0x3bc>
    9ea2:	47fd                	li	a5,31
    9ea4:	48b7c563          	blt	a5,a1,a32e <__subdf3+0x504>
    9ea8:	02000793          	li	a5,32
    9eac:	8f8d                	sub	a5,a5,a1
    9eae:	00bed9b3          	srl	s3,t4,a1
    9eb2:	00f71833          	sll	a6,a4,a5
    9eb6:	00fe9eb3          	sll	t4,t4,a5
    9eba:	01386833          	or	a6,a6,s3
    9ebe:	00b75733          	srl	a4,a4,a1
    9ec2:	01d039b3          	snez	s3,t4
    9ec6:	01386833          	or	a6,a6,s3
    9eca:	40e30333          	sub	t1,t1,a4
    9ece:	410f09b3          	sub	s3,t5,a6
    9ed2:	013f37b3          	sltu	a5,t5,s3
    9ed6:	40f30633          	sub	a2,t1,a5
    9eda:	00861793          	slli	a5,a2,0x8
    9ede:	2407d363          	bgez	a5,a124 <__subdf3+0x2fa>
    9ee2:	00800937          	lui	s2,0x800
    9ee6:	197d                	addi	s2,s2,-1
    9ee8:	01267933          	and	s2,a2,s2
    9eec:	2c090f63          	beqz	s2,a1ca <__subdf3+0x3a0>
    9ef0:	854a                	mv	a0,s2
    9ef2:	ce6fb0ef          	jal	ra,53d8 <__clzsi2>
    9ef6:	ff850713          	addi	a4,a0,-8
    9efa:	02000793          	li	a5,32
    9efe:	8f99                	sub	a5,a5,a4
    9f00:	00f9d7b3          	srl	a5,s3,a5
    9f04:	00e91633          	sll	a2,s2,a4
    9f08:	8fd1                	or	a5,a5,a2
    9f0a:	00e999b3          	sll	s3,s3,a4
    9f0e:	2a974463          	blt	a4,s1,a1b6 <__subdf3+0x38c>
    9f12:	8f05                	sub	a4,a4,s1
    9f14:	00170613          	addi	a2,a4,1 # 100001 <_data_lma+0xf3715>
    9f18:	46fd                	li	a3,31
    9f1a:	3ac6c563          	blt	a3,a2,a2c4 <__subdf3+0x49a>
    9f1e:	02000713          	li	a4,32
    9f22:	8f11                	sub	a4,a4,a2
    9f24:	00c9d6b3          	srl	a3,s3,a2
    9f28:	00e99833          	sll	a6,s3,a4
    9f2c:	00e79733          	sll	a4,a5,a4
    9f30:	8f55                	or	a4,a4,a3
    9f32:	01003833          	snez	a6,a6
    9f36:	010769b3          	or	s3,a4,a6
    9f3a:	00c7d633          	srl	a2,a5,a2
    9f3e:	4481                	li	s1,0
    9f40:	0079f793          	andi	a5,s3,7
    9f44:	cf81                	beqz	a5,9f5c <__subdf3+0x132>
    9f46:	00f9f693          	andi	a3,s3,15
    9f4a:	4791                	li	a5,4
    9f4c:	00f68863          	beq	a3,a5,9f5c <__subdf3+0x132>
    9f50:	00498693          	addi	a3,s3,4
    9f54:	0136b833          	sltu	a6,a3,s3
    9f58:	9642                	add	a2,a2,a6
    9f5a:	89b6                	mv	s3,a3
    9f5c:	00861793          	slli	a5,a2,0x8
    9f60:	1c07d663          	bgez	a5,a12c <__subdf3+0x302>
    9f64:	00148713          	addi	a4,s1,1
    9f68:	7ff00793          	li	a5,2047
    9f6c:	8805                	andi	s0,s0,1
    9f6e:	20f70663          	beq	a4,a5,a17a <__subdf3+0x350>
    9f72:	ff8007b7          	lui	a5,0xff800
    9f76:	17fd                	addi	a5,a5,-1
    9f78:	8ff1                	and	a5,a5,a2
    9f7a:	01d79813          	slli	a6,a5,0x1d
    9f7e:	0039d993          	srli	s3,s3,0x3
    9f82:	07a6                	slli	a5,a5,0x9
    9f84:	01386833          	or	a6,a6,s3
    9f88:	83b1                	srli	a5,a5,0xc
    9f8a:	7ff77713          	andi	a4,a4,2047
    9f8e:	00c79693          	slli	a3,a5,0xc
    9f92:	0752                	slli	a4,a4,0x14
    9f94:	82b1                	srli	a3,a3,0xc
    9f96:	047e                	slli	s0,s0,0x1f
    9f98:	8ed9                	or	a3,a3,a4
    9f9a:	8ec1                	or	a3,a3,s0
    9f9c:	40f2                	lw	ra,28(sp)
    9f9e:	4462                	lw	s0,24(sp)
    9fa0:	44d2                	lw	s1,20(sp)
    9fa2:	4942                	lw	s2,16(sp)
    9fa4:	49b2                	lw	s3,12(sp)
    9fa6:	8542                	mv	a0,a6
    9fa8:	85b6                	mv	a1,a3
    9faa:	6105                	addi	sp,sp,32
    9fac:	8082                	ret
    9fae:	0ab05663          	blez	a1,a05a <__subdf3+0x230>
    9fb2:	12088a63          	beqz	a7,a0e6 <__subdf3+0x2bc>
    9fb6:	008007b7          	lui	a5,0x800
    9fba:	8f5d                	or	a4,a4,a5
    9fbc:	2dc48763          	beq	s1,t3,a28a <__subdf3+0x460>
    9fc0:	03800793          	li	a5,56
    9fc4:	18b7c763          	blt	a5,a1,a152 <__subdf3+0x328>
    9fc8:	47fd                	li	a5,31
    9fca:	3cb7d263          	bge	a5,a1,a38e <__subdf3+0x564>
    9fce:	fe058813          	addi	a6,a1,-32 # ffe0 <_data_lma+0x36f4>
    9fd2:	02000793          	li	a5,32
    9fd6:	010759b3          	srl	s3,a4,a6
    9fda:	00f58a63          	beq	a1,a5,9fee <__subdf3+0x1c4>
    9fde:	04000793          	li	a5,64
    9fe2:	40b785b3          	sub	a1,a5,a1
    9fe6:	00b71733          	sll	a4,a4,a1
    9fea:	00eeeeb3          	or	t4,t4,a4
    9fee:	01d03833          	snez	a6,t4
    9ff2:	01386833          	or	a6,a6,s3
    9ff6:	a295                	j	a15a <__subdf3+0x330>
    9ff8:	01d767b3          	or	a5,a4,t4
    9ffc:	80148593          	addi	a1,s1,-2047
    a000:	e399                	bnez	a5,a006 <__subdf3+0x1dc>
    a002:	0016c693          	xori	a3,a3,1
    a006:	04d40a63          	beq	s0,a3,a05a <__subdf3+0x230>
    a00a:	e1d1                	bnez	a1,a08e <__subdf3+0x264>
    a00c:	00148793          	addi	a5,s1,1
    a010:	7fe7f793          	andi	a5,a5,2046
    a014:	1e079963          	bnez	a5,a206 <__subdf3+0x3dc>
    a018:	01e367b3          	or	a5,t1,t5
    a01c:	01d76833          	or	a6,a4,t4
    a020:	16049263          	bnez	s1,a184 <__subdf3+0x35a>
    a024:	3c078263          	beqz	a5,a3e8 <__subdf3+0x5be>
    a028:	42081663          	bnez	a6,a454 <__subdf3+0x62a>
    a02c:	00351813          	slli	a6,a0,0x3
    a030:	01d31693          	slli	a3,t1,0x1d
    a034:	00385813          	srli	a6,a6,0x3
    a038:	0106e833          	or	a6,a3,a6
    a03c:	00335793          	srli	a5,t1,0x3
    a040:	a219                	j	a146 <__subdf3+0x31c>
    a042:	01d767b3          	or	a5,a4,t4
    a046:	1a078563          	beqz	a5,a1f0 <__subdf3+0x3c6>
    a04a:	fff58793          	addi	a5,a1,-1
    a04e:	3a078b63          	beqz	a5,a404 <__subdf3+0x5da>
    a052:	23c58c63          	beq	a1,t3,a28a <__subdf3+0x460>
    a056:	85be                	mv	a1,a5
    a058:	b589                	j	9e9a <__subdf3+0x70>
    a05a:	1c059963          	bnez	a1,a22c <__subdf3+0x402>
    a05e:	00148693          	addi	a3,s1,1
    a062:	7fe6f793          	andi	a5,a3,2046
    a066:	efc1                	bnez	a5,a0fe <__subdf3+0x2d4>
    a068:	01e367b3          	or	a5,t1,t5
    a06c:	36049063          	bnez	s1,a3cc <__subdf3+0x5a2>
    a070:	44078d63          	beqz	a5,a4ca <__subdf3+0x6a0>
    a074:	01d767b3          	or	a5,a4,t4
    a078:	46079463          	bnez	a5,a4e0 <__subdf3+0x6b6>
    a07c:	050e                	slli	a0,a0,0x3
    a07e:	01d31813          	slli	a6,t1,0x1d
    a082:	810d                	srli	a0,a0,0x3
    a084:	00a86833          	or	a6,a6,a0
    a088:	00335793          	srli	a5,t1,0x3
    a08c:	a86d                	j	a146 <__subdf3+0x31c>
    a08e:	409885b3          	sub	a1,a7,s1
    a092:	20049763          	bnez	s1,a2a0 <__subdf3+0x476>
    a096:	01e367b3          	or	a5,t1,t5
    a09a:	30078d63          	beqz	a5,a3b4 <__subdf3+0x58a>
    a09e:	fff58793          	addi	a5,a1,-1
    a0a2:	40078963          	beqz	a5,a4b4 <__subdf3+0x68a>
    a0a6:	7ff00513          	li	a0,2047
    a0aa:	20a58363          	beq	a1,a0,a2b0 <__subdf3+0x486>
    a0ae:	85be                	mv	a1,a5
    a0b0:	03800793          	li	a5,56
    a0b4:	2ab7c263          	blt	a5,a1,a358 <__subdf3+0x52e>
    a0b8:	47fd                	li	a5,31
    a0ba:	3cb7c863          	blt	a5,a1,a48a <__subdf3+0x660>
    a0be:	02000793          	li	a5,32
    a0c2:	8f8d                	sub	a5,a5,a1
    a0c4:	00f31833          	sll	a6,t1,a5
    a0c8:	00bf5633          	srl	a2,t5,a1
    a0cc:	00ff17b3          	sll	a5,t5,a5
    a0d0:	00c86833          	or	a6,a6,a2
    a0d4:	00f039b3          	snez	s3,a5
    a0d8:	00b35333          	srl	t1,t1,a1
    a0dc:	01386833          	or	a6,a6,s3
    a0e0:	40670733          	sub	a4,a4,t1
    a0e4:	acb5                	j	a360 <__subdf3+0x536>
    a0e6:	01d767b3          	or	a5,a4,t4
    a0ea:	10078363          	beqz	a5,a1f0 <__subdf3+0x3c6>
    a0ee:	fff58793          	addi	a5,a1,-1
    a0f2:	1e078f63          	beqz	a5,a2f0 <__subdf3+0x4c6>
    a0f6:	2fc58063          	beq	a1,t3,a3d6 <__subdf3+0x5ac>
    a0fa:	85be                	mv	a1,a5
    a0fc:	b5d1                	j	9fc0 <__subdf3+0x196>
    a0fe:	7ff00793          	li	a5,2047
    a102:	06f68b63          	beq	a3,a5,a178 <__subdf3+0x34e>
    a106:	9efa                	add	t4,t4,t5
    a108:	01eeb633          	sltu	a2,t4,t5
    a10c:	00e307b3          	add	a5,t1,a4
    a110:	97b2                	add	a5,a5,a2
    a112:	01f79813          	slli	a6,a5,0x1f
    a116:	001ede93          	srli	t4,t4,0x1
    a11a:	01d869b3          	or	s3,a6,t4
    a11e:	0017d613          	srli	a2,a5,0x1
    a122:	84b6                	mv	s1,a3
    a124:	0079f793          	andi	a5,s3,7
    a128:	e0079fe3          	bnez	a5,9f46 <__subdf3+0x11c>
    a12c:	01d61793          	slli	a5,a2,0x1d
    a130:	0039d813          	srli	a6,s3,0x3
    a134:	00f86833          	or	a6,a6,a5
    a138:	85a6                	mv	a1,s1
    a13a:	00365793          	srli	a5,a2,0x3
    a13e:	7ff00713          	li	a4,2047
    a142:	06e58063          	beq	a1,a4,a1a2 <__subdf3+0x378>
    a146:	07b2                	slli	a5,a5,0xc
    a148:	83b1                	srli	a5,a5,0xc
    a14a:	7ff5f713          	andi	a4,a1,2047
    a14e:	8805                	andi	s0,s0,1
    a150:	bd3d                	j	9f8e <__subdf3+0x164>
    a152:	01d76733          	or	a4,a4,t4
    a156:	00e03833          	snez	a6,a4
    a15a:	01e809b3          	add	s3,a6,t5
    a15e:	01e9b7b3          	sltu	a5,s3,t5
    a162:	00678633          	add	a2,a5,t1
    a166:	00861793          	slli	a5,a2,0x8
    a16a:	fa07dde3          	bgez	a5,a124 <__subdf3+0x2fa>
    a16e:	0485                	addi	s1,s1,1
    a170:	7ff00793          	li	a5,2047
    a174:	18f49c63          	bne	s1,a5,a30c <__subdf3+0x4e2>
    a178:	8805                	andi	s0,s0,1
    a17a:	7ff00713          	li	a4,2047
    a17e:	4781                	li	a5,0
    a180:	4801                	li	a6,0
    a182:	b531                	j	9f8e <__subdf3+0x164>
    a184:	10079163          	bnez	a5,a286 <__subdf3+0x45c>
    a188:	3c080163          	beqz	a6,a54a <__subdf3+0x720>
    a18c:	00361813          	slli	a6,a2,0x3
    a190:	01d71793          	slli	a5,a4,0x1d
    a194:	00385813          	srli	a6,a6,0x3
    a198:	00f86833          	or	a6,a6,a5
    a19c:	8436                	mv	s0,a3
    a19e:	00375793          	srli	a5,a4,0x3
    a1a2:	00f867b3          	or	a5,a6,a5
    a1a6:	dbe9                	beqz	a5,a178 <__subdf3+0x34e>
    a1a8:	4401                	li	s0,0
    a1aa:	7ff00713          	li	a4,2047
    a1ae:	000807b7          	lui	a5,0x80
    a1b2:	4801                	li	a6,0
    a1b4:	bbe9                	j	9f8e <__subdf3+0x164>
    a1b6:	ff800637          	lui	a2,0xff800
    a1ba:	167d                	addi	a2,a2,-1
    a1bc:	8e7d                	and	a2,a2,a5
    a1be:	0079f793          	andi	a5,s3,7
    a1c2:	8c99                	sub	s1,s1,a4
    a1c4:	d80791e3          	bnez	a5,9f46 <__subdf3+0x11c>
    a1c8:	b795                	j	a12c <__subdf3+0x302>
    a1ca:	854e                	mv	a0,s3
    a1cc:	a0cfb0ef          	jal	ra,53d8 <__clzsi2>
    a1d0:	01850713          	addi	a4,a0,24
    a1d4:	47fd                	li	a5,31
    a1d6:	d2e7d2e3          	bge	a5,a4,9efa <__subdf3+0xd0>
    a1da:	ff850613          	addi	a2,a0,-8
    a1de:	00c997b3          	sll	a5,s3,a2
    a1e2:	4981                	li	s3,0
    a1e4:	b32d                	j	9f0e <__subdf3+0xe4>
    a1e6:	01d76833          	or	a6,a4,t4
    a1ea:	01003833          	snez	a6,a6
    a1ee:	b1c5                	j	9ece <__subdf3+0xa4>
    a1f0:	00351813          	slli	a6,a0,0x3
    a1f4:	01d31793          	slli	a5,t1,0x1d
    a1f8:	00385813          	srli	a6,a6,0x3
    a1fc:	00f86833          	or	a6,a6,a5
    a200:	00335793          	srli	a5,t1,0x3
    a204:	bf2d                	j	a13e <__subdf3+0x314>
    a206:	41df09b3          	sub	s3,t5,t4
    a20a:	40e30933          	sub	s2,t1,a4
    a20e:	013f3633          	sltu	a2,t5,s3
    a212:	40c90933          	sub	s2,s2,a2
    a216:	00891793          	slli	a5,s2,0x8
    a21a:	2007ca63          	bltz	a5,a42e <__subdf3+0x604>
    a21e:	0129e833          	or	a6,s3,s2
    a222:	cc0815e3          	bnez	a6,9eec <__subdf3+0xc2>
    a226:	4781                	li	a5,0
    a228:	4401                	li	s0,0
    a22a:	bf31                	j	a146 <__subdf3+0x31c>
    a22c:	409885b3          	sub	a1,a7,s1
    a230:	14048163          	beqz	s1,a372 <__subdf3+0x548>
    a234:	008006b7          	lui	a3,0x800
    a238:	7ff00793          	li	a5,2047
    a23c:	00d36333          	or	t1,t1,a3
    a240:	20f88163          	beq	a7,a5,a442 <__subdf3+0x618>
    a244:	03800793          	li	a5,56
    a248:	22b7cc63          	blt	a5,a1,a480 <__subdf3+0x656>
    a24c:	47fd                	li	a5,31
    a24e:	2cb7c963          	blt	a5,a1,a520 <__subdf3+0x6f6>
    a252:	02000793          	li	a5,32
    a256:	8f8d                	sub	a5,a5,a1
    a258:	00f31833          	sll	a6,t1,a5
    a25c:	00bf56b3          	srl	a3,t5,a1
    a260:	00ff17b3          	sll	a5,t5,a5
    a264:	00d86833          	or	a6,a6,a3
    a268:	00f039b3          	snez	s3,a5
    a26c:	00b35333          	srl	t1,t1,a1
    a270:	01386833          	or	a6,a6,s3
    a274:	971a                	add	a4,a4,t1
    a276:	01d809b3          	add	s3,a6,t4
    a27a:	01d9b7b3          	sltu	a5,s3,t4
    a27e:	00e78633          	add	a2,a5,a4
    a282:	84c6                	mv	s1,a7
    a284:	b5cd                	j	a166 <__subdf3+0x33c>
    a286:	f20811e3          	bnez	a6,a1a8 <__subdf3+0x37e>
    a28a:	00351813          	slli	a6,a0,0x3
    a28e:	01d31793          	slli	a5,t1,0x1d
    a292:	00385813          	srli	a6,a6,0x3
    a296:	00f86833          	or	a6,a6,a5
    a29a:	00335793          	srli	a5,t1,0x3
    a29e:	b711                	j	a1a2 <__subdf3+0x378>
    a2a0:	00800537          	lui	a0,0x800
    a2a4:	7ff00793          	li	a5,2047
    a2a8:	00a36333          	or	t1,t1,a0
    a2ac:	e0f892e3          	bne	a7,a5,a0b0 <__subdf3+0x286>
    a2b0:	060e                	slli	a2,a2,0x3
    a2b2:	01d71813          	slli	a6,a4,0x1d
    a2b6:	820d                	srli	a2,a2,0x3
    a2b8:	00c86833          	or	a6,a6,a2
    a2bc:	00375793          	srli	a5,a4,0x3
    a2c0:	8436                	mv	s0,a3
    a2c2:	b5c5                	j	a1a2 <__subdf3+0x378>
    a2c4:	1705                	addi	a4,a4,-31
    a2c6:	02000693          	li	a3,32
    a2ca:	00e7d733          	srl	a4,a5,a4
    a2ce:	00d60a63          	beq	a2,a3,a2e2 <__subdf3+0x4b8>
    a2d2:	04000693          	li	a3,64
    a2d6:	40c68633          	sub	a2,a3,a2
    a2da:	00c79633          	sll	a2,a5,a2
    a2de:	00c9e9b3          	or	s3,s3,a2
    a2e2:	01303833          	snez	a6,s3
    a2e6:	00e869b3          	or	s3,a6,a4
    a2ea:	4601                	li	a2,0
    a2ec:	4481                	li	s1,0
    a2ee:	bd1d                	j	a124 <__subdf3+0x2fa>
    a2f0:	01df09b3          	add	s3,t5,t4
    a2f4:	00e307b3          	add	a5,t1,a4
    a2f8:	01e9bf33          	sltu	t5,s3,t5
    a2fc:	01e78633          	add	a2,a5,t5
    a300:	00861793          	slli	a5,a2,0x8
    a304:	4485                	li	s1,1
    a306:	e007dfe3          	bgez	a5,a124 <__subdf3+0x2fa>
    a30a:	4489                	li	s1,2
    a30c:	ff8007b7          	lui	a5,0xff800
    a310:	17fd                	addi	a5,a5,-1
    a312:	8ff1                	and	a5,a5,a2
    a314:	0019d713          	srli	a4,s3,0x1
    a318:	0019f813          	andi	a6,s3,1
    a31c:	01076833          	or	a6,a4,a6
    a320:	01f79993          	slli	s3,a5,0x1f
    a324:	0109e9b3          	or	s3,s3,a6
    a328:	0017d613          	srli	a2,a5,0x1
    a32c:	b911                	j	9f40 <__subdf3+0x116>
    a32e:	fe058813          	addi	a6,a1,-32
    a332:	02000793          	li	a5,32
    a336:	010759b3          	srl	s3,a4,a6
    a33a:	00f58a63          	beq	a1,a5,a34e <__subdf3+0x524>
    a33e:	04000793          	li	a5,64
    a342:	40b785b3          	sub	a1,a5,a1
    a346:	00b71733          	sll	a4,a4,a1
    a34a:	00eeeeb3          	or	t4,t4,a4
    a34e:	01d03833          	snez	a6,t4
    a352:	01386833          	or	a6,a6,s3
    a356:	bea5                	j	9ece <__subdf3+0xa4>
    a358:	01e36333          	or	t1,t1,t5
    a35c:	00603833          	snez	a6,t1
    a360:	410e89b3          	sub	s3,t4,a6
    a364:	013eb7b3          	sltu	a5,t4,s3
    a368:	40f70633          	sub	a2,a4,a5
    a36c:	84c6                	mv	s1,a7
    a36e:	8436                	mv	s0,a3
    a370:	b6ad                	j	9eda <__subdf3+0xb0>
    a372:	01e367b3          	or	a5,t1,t5
    a376:	18078763          	beqz	a5,a504 <__subdf3+0x6da>
    a37a:	fff58793          	addi	a5,a1,-1
    a37e:	1c078c63          	beqz	a5,a556 <__subdf3+0x72c>
    a382:	7ff00693          	li	a3,2047
    a386:	0ad58e63          	beq	a1,a3,a442 <__subdf3+0x618>
    a38a:	85be                	mv	a1,a5
    a38c:	bd65                	j	a244 <__subdf3+0x41a>
    a38e:	02000793          	li	a5,32
    a392:	8f8d                	sub	a5,a5,a1
    a394:	00bed9b3          	srl	s3,t4,a1
    a398:	00f71833          	sll	a6,a4,a5
    a39c:	00fe9eb3          	sll	t4,t4,a5
    a3a0:	01386833          	or	a6,a6,s3
    a3a4:	00b75733          	srl	a4,a4,a1
    a3a8:	01d039b3          	snez	s3,t4
    a3ac:	01386833          	or	a6,a6,s3
    a3b0:	933a                	add	t1,t1,a4
    a3b2:	b365                	j	a15a <__subdf3+0x330>
    a3b4:	00361813          	slli	a6,a2,0x3
    a3b8:	01d71793          	slli	a5,a4,0x1d
    a3bc:	00385813          	srli	a6,a6,0x3
    a3c0:	0107e833          	or	a6,a5,a6
    a3c4:	8436                	mv	s0,a3
    a3c6:	00375793          	srli	a5,a4,0x3
    a3ca:	bb95                	j	a13e <__subdf3+0x314>
    a3cc:	cbbd                	beqz	a5,a442 <__subdf3+0x618>
    a3ce:	01d76733          	or	a4,a4,t4
    a3d2:	dc071be3          	bnez	a4,a1a8 <__subdf3+0x37e>
    a3d6:	050e                	slli	a0,a0,0x3
    a3d8:	01d31813          	slli	a6,t1,0x1d
    a3dc:	810d                	srli	a0,a0,0x3
    a3de:	00a86833          	or	a6,a6,a0
    a3e2:	00335793          	srli	a5,t1,0x3
    a3e6:	bb75                	j	a1a2 <__subdf3+0x378>
    a3e8:	e2080fe3          	beqz	a6,a226 <__subdf3+0x3fc>
    a3ec:	00361813          	slli	a6,a2,0x3
    a3f0:	01d71793          	slli	a5,a4,0x1d
    a3f4:	00385813          	srli	a6,a6,0x3
    a3f8:	00f86833          	or	a6,a6,a5
    a3fc:	8436                	mv	s0,a3
    a3fe:	00375793          	srli	a5,a4,0x3
    a402:	b391                	j	a146 <__subdf3+0x31c>
    a404:	41df09b3          	sub	s3,t5,t4
    a408:	40e307b3          	sub	a5,t1,a4
    a40c:	013f3f33          	sltu	t5,t5,s3
    a410:	41e78633          	sub	a2,a5,t5
    a414:	4485                	li	s1,1
    a416:	b4d1                	j	9eda <__subdf3+0xb0>
    a418:	00351813          	slli	a6,a0,0x3
    a41c:	01d31693          	slli	a3,t1,0x1d
    a420:	00385813          	srli	a6,a6,0x3
    a424:	0106e833          	or	a6,a3,a6
    a428:	00335793          	srli	a5,t1,0x3
    a42c:	bb9d                	j	a1a2 <__subdf3+0x378>
    a42e:	41ee89b3          	sub	s3,t4,t5
    a432:	40670633          	sub	a2,a4,t1
    a436:	013eb933          	sltu	s2,t4,s3
    a43a:	41260933          	sub	s2,a2,s2
    a43e:	8436                	mv	s0,a3
    a440:	b475                	j	9eec <__subdf3+0xc2>
    a442:	060e                	slli	a2,a2,0x3
    a444:	01d71813          	slli	a6,a4,0x1d
    a448:	820d                	srli	a2,a2,0x3
    a44a:	00c86833          	or	a6,a6,a2
    a44e:	00375793          	srli	a5,a4,0x3
    a452:	bb81                	j	a1a2 <__subdf3+0x378>
    a454:	41df09b3          	sub	s3,t5,t4
    a458:	40e307b3          	sub	a5,t1,a4
    a45c:	013f3633          	sltu	a2,t5,s3
    a460:	40c78633          	sub	a2,a5,a2
    a464:	00861793          	slli	a5,a2,0x8
    a468:	0a07d763          	bgez	a5,a516 <__subdf3+0x6ec>
    a46c:	41ee89b3          	sub	s3,t4,t5
    a470:	406707b3          	sub	a5,a4,t1
    a474:	013ebeb3          	sltu	t4,t4,s3
    a478:	41d78633          	sub	a2,a5,t4
    a47c:	8436                	mv	s0,a3
    a47e:	b4c9                	j	9f40 <__subdf3+0x116>
    a480:	01e36333          	or	t1,t1,t5
    a484:	00603833          	snez	a6,t1
    a488:	b3fd                	j	a276 <__subdf3+0x44c>
    a48a:	fe058813          	addi	a6,a1,-32
    a48e:	02000793          	li	a5,32
    a492:	010359b3          	srl	s3,t1,a6
    a496:	00f58a63          	beq	a1,a5,a4aa <__subdf3+0x680>
    a49a:	04000793          	li	a5,64
    a49e:	40b785b3          	sub	a1,a5,a1
    a4a2:	00b31333          	sll	t1,t1,a1
    a4a6:	006f6f33          	or	t5,t5,t1
    a4aa:	01e03833          	snez	a6,t5
    a4ae:	01386833          	or	a6,a6,s3
    a4b2:	b57d                	j	a360 <__subdf3+0x536>
    a4b4:	41ee89b3          	sub	s3,t4,t5
    a4b8:	406707b3          	sub	a5,a4,t1
    a4bc:	013ebeb3          	sltu	t4,t4,s3
    a4c0:	41d78633          	sub	a2,a5,t4
    a4c4:	8436                	mv	s0,a3
    a4c6:	4485                	li	s1,1
    a4c8:	bc09                	j	9eda <__subdf3+0xb0>
    a4ca:	00361813          	slli	a6,a2,0x3
    a4ce:	01d71793          	slli	a5,a4,0x1d
    a4d2:	00385813          	srli	a6,a6,0x3
    a4d6:	00f86833          	or	a6,a6,a5
    a4da:	00375793          	srli	a5,a4,0x3
    a4de:	b1a5                	j	a146 <__subdf3+0x31c>
    a4e0:	01df09b3          	add	s3,t5,t4
    a4e4:	00e307b3          	add	a5,t1,a4
    a4e8:	01e9bf33          	sltu	t5,s3,t5
    a4ec:	01e78633          	add	a2,a5,t5
    a4f0:	00861793          	slli	a5,a2,0x8
    a4f4:	c207d8e3          	bgez	a5,a124 <__subdf3+0x2fa>
    a4f8:	ff8007b7          	lui	a5,0xff800
    a4fc:	17fd                	addi	a5,a5,-1
    a4fe:	8e7d                	and	a2,a2,a5
    a500:	4485                	li	s1,1
    a502:	b10d                	j	a124 <__subdf3+0x2fa>
    a504:	060e                	slli	a2,a2,0x3
    a506:	01d71813          	slli	a6,a4,0x1d
    a50a:	820d                	srli	a2,a2,0x3
    a50c:	00c86833          	or	a6,a6,a2
    a510:	00375793          	srli	a5,a4,0x3
    a514:	b12d                	j	a13e <__subdf3+0x314>
    a516:	00c9e833          	or	a6,s3,a2
    a51a:	d00806e3          	beqz	a6,a226 <__subdf3+0x3fc>
    a51e:	b119                	j	a124 <__subdf3+0x2fa>
    a520:	fe058813          	addi	a6,a1,-32
    a524:	02000793          	li	a5,32
    a528:	010359b3          	srl	s3,t1,a6
    a52c:	00f58a63          	beq	a1,a5,a540 <__subdf3+0x716>
    a530:	04000793          	li	a5,64
    a534:	40b785b3          	sub	a1,a5,a1
    a538:	00b31333          	sll	t1,t1,a1
    a53c:	006f6f33          	or	t5,t5,t1
    a540:	01e03833          	snez	a6,t5
    a544:	01386833          	or	a6,a6,s3
    a548:	b33d                	j	a276 <__subdf3+0x44c>
    a54a:	4401                	li	s0,0
    a54c:	7ff00713          	li	a4,2047
    a550:	000807b7          	lui	a5,0x80
    a554:	bc2d                	j	9f8e <__subdf3+0x164>
    a556:	01df09b3          	add	s3,t5,t4
    a55a:	00e307b3          	add	a5,t1,a4
    a55e:	01d9beb3          	sltu	t4,s3,t4
    a562:	01d78633          	add	a2,a5,t4
    a566:	bb69                	j	a300 <__subdf3+0x4d6>

0000a568 <__fixdfsi>:
    a568:	0145d793          	srli	a5,a1,0x14
    a56c:	001006b7          	lui	a3,0x100
    a570:	fff68713          	addi	a4,a3,-1 # fffff <_data_lma+0xf3713>
    a574:	7ff7f793          	andi	a5,a5,2047
    a578:	3fe00613          	li	a2,1022
    a57c:	8f6d                	and	a4,a4,a1
    a57e:	81fd                	srli	a1,a1,0x1f
    a580:	00f65c63          	bge	a2,a5,a598 <__fixdfsi+0x30>
    a584:	41d00613          	li	a2,1053
    a588:	00f65a63          	bge	a2,a5,a59c <__fixdfsi+0x34>
    a58c:	80000537          	lui	a0,0x80000
    a590:	fff54513          	not	a0,a0
    a594:	952e                	add	a0,a0,a1
    a596:	8082                	ret
    a598:	4501                	li	a0,0
    a59a:	8082                	ret
    a59c:	43300613          	li	a2,1075
    a5a0:	8e1d                	sub	a2,a2,a5
    a5a2:	487d                	li	a6,31
    a5a4:	8f55                	or	a4,a4,a3
    a5a6:	00c85d63          	bge	a6,a2,a5c0 <__fixdfsi+0x58>
    a5aa:	41300693          	li	a3,1043
    a5ae:	40f687b3          	sub	a5,a3,a5
    a5b2:	00f757b3          	srl	a5,a4,a5
    a5b6:	40f00533          	neg	a0,a5
    a5ba:	f1e5                	bnez	a1,a59a <__fixdfsi+0x32>
    a5bc:	853e                	mv	a0,a5
    a5be:	8082                	ret
    a5c0:	bed78793          	addi	a5,a5,-1043 # 7fbed <_data_lma+0x73301>
    a5c4:	00f717b3          	sll	a5,a4,a5
    a5c8:	00c55533          	srl	a0,a0,a2
    a5cc:	8fc9                	or	a5,a5,a0
    a5ce:	b7e5                	j	a5b6 <__fixdfsi+0x4e>

0000a5d0 <__fixunsdfsi>:
    a5d0:	0145d793          	srli	a5,a1,0x14
    a5d4:	001006b7          	lui	a3,0x100
    a5d8:	fff68713          	addi	a4,a3,-1 # fffff <_data_lma+0xf3713>
    a5dc:	7ff7f793          	andi	a5,a5,2047
    a5e0:	3fe00613          	li	a2,1022
    a5e4:	882a                	mv	a6,a0
    a5e6:	8f6d                	and	a4,a4,a1
    a5e8:	4501                	li	a0,0
    a5ea:	81fd                	srli	a1,a1,0x1f
    a5ec:	00f65463          	bge	a2,a5,a5f4 <__fixunsdfsi+0x24>
    a5f0:	c199                	beqz	a1,a5f6 <__fixunsdfsi+0x26>
    a5f2:	8082                	ret
    a5f4:	8082                	ret
    a5f6:	41e00613          	li	a2,1054
    a5fa:	557d                	li	a0,-1
    a5fc:	fef64be3          	blt	a2,a5,a5f2 <__fixunsdfsi+0x22>
    a600:	43300513          	li	a0,1075
    a604:	8d1d                	sub	a0,a0,a5
    a606:	467d                	li	a2,31
    a608:	8f55                	or	a4,a4,a3
    a60a:	00a64a63          	blt	a2,a0,a61e <__fixunsdfsi+0x4e>
    a60e:	bed78793          	addi	a5,a5,-1043
    a612:	00f71733          	sll	a4,a4,a5
    a616:	00a85533          	srl	a0,a6,a0
    a61a:	8d59                	or	a0,a0,a4
    a61c:	8082                	ret
    a61e:	41300513          	li	a0,1043
    a622:	40f507b3          	sub	a5,a0,a5
    a626:	00f75533          	srl	a0,a4,a5
    a62a:	8082                	ret

0000a62c <__floatsidf>:
    a62c:	1141                	addi	sp,sp,-16
    a62e:	c606                	sw	ra,12(sp)
    a630:	c422                	sw	s0,8(sp)
    a632:	c226                	sw	s1,4(sp)
    a634:	cd0d                	beqz	a0,a66e <__floatsidf+0x42>
    a636:	41f55793          	srai	a5,a0,0x1f
    a63a:	00a7c4b3          	xor	s1,a5,a0
    a63e:	8c9d                	sub	s1,s1,a5
    a640:	842a                	mv	s0,a0
    a642:	8526                	mv	a0,s1
    a644:	d95fa0ef          	jal	ra,53d8 <__clzsi2>
    a648:	41e00693          	li	a3,1054
    a64c:	8e89                	sub	a3,a3,a0
    a64e:	47a9                	li	a5,10
    a650:	807d                	srli	s0,s0,0x1f
    a652:	7ff6f693          	andi	a3,a3,2047
    a656:	02a7cd63          	blt	a5,a0,a690 <__floatsidf+0x64>
    a65a:	472d                	li	a4,11
    a65c:	8f09                	sub	a4,a4,a0
    a65e:	00e4d7b3          	srl	a5,s1,a4
    a662:	0555                	addi	a0,a0,21
    a664:	07b2                	slli	a5,a5,0xc
    a666:	00a494b3          	sll	s1,s1,a0
    a66a:	83b1                	srli	a5,a5,0xc
    a66c:	a029                	j	a676 <__floatsidf+0x4a>
    a66e:	4401                	li	s0,0
    a670:	4681                	li	a3,0
    a672:	4781                	li	a5,0
    a674:	4481                	li	s1,0
    a676:	07b2                	slli	a5,a5,0xc
    a678:	06d2                	slli	a3,a3,0x14
    a67a:	83b1                	srli	a5,a5,0xc
    a67c:	047e                	slli	s0,s0,0x1f
    a67e:	8fd5                	or	a5,a5,a3
    a680:	8fc1                	or	a5,a5,s0
    a682:	40b2                	lw	ra,12(sp)
    a684:	4422                	lw	s0,8(sp)
    a686:	8526                	mv	a0,s1
    a688:	85be                	mv	a1,a5
    a68a:	4492                	lw	s1,4(sp)
    a68c:	0141                	addi	sp,sp,16
    a68e:	8082                	ret
    a690:	1555                	addi	a0,a0,-11
    a692:	00a497b3          	sll	a5,s1,a0
    a696:	07b2                	slli	a5,a5,0xc
    a698:	83b1                	srli	a5,a5,0xc
    a69a:	4481                	li	s1,0
    a69c:	bfe9                	j	a676 <__floatsidf+0x4a>

0000a69e <__floatunsidf>:
    a69e:	cd1d                	beqz	a0,a6dc <__floatunsidf+0x3e>
    a6a0:	1141                	addi	sp,sp,-16
    a6a2:	c422                	sw	s0,8(sp)
    a6a4:	c606                	sw	ra,12(sp)
    a6a6:	842a                	mv	s0,a0
    a6a8:	d31fa0ef          	jal	ra,53d8 <__clzsi2>
    a6ac:	41e00693          	li	a3,1054
    a6b0:	8e89                	sub	a3,a3,a0
    a6b2:	47a9                	li	a5,10
    a6b4:	7ff6f693          	andi	a3,a3,2047
    a6b8:	02a7dc63          	bge	a5,a0,a6f0 <__floatunsidf+0x52>
    a6bc:	1555                	addi	a0,a0,-11
    a6be:	00a417b3          	sll	a5,s0,a0
    a6c2:	07b2                	slli	a5,a5,0xc
    a6c4:	83b1                	srli	a5,a5,0xc
    a6c6:	4701                	li	a4,0
    a6c8:	40b2                	lw	ra,12(sp)
    a6ca:	4422                	lw	s0,8(sp)
    a6cc:	07b2                	slli	a5,a5,0xc
    a6ce:	06d2                	slli	a3,a3,0x14
    a6d0:	83b1                	srli	a5,a5,0xc
    a6d2:	8fd5                	or	a5,a5,a3
    a6d4:	853a                	mv	a0,a4
    a6d6:	85be                	mv	a1,a5
    a6d8:	0141                	addi	sp,sp,16
    a6da:	8082                	ret
    a6dc:	4781                	li	a5,0
    a6de:	4681                	li	a3,0
    a6e0:	07b2                	slli	a5,a5,0xc
    a6e2:	06d2                	slli	a3,a3,0x14
    a6e4:	83b1                	srli	a5,a5,0xc
    a6e6:	4701                	li	a4,0
    a6e8:	8fd5                	or	a5,a5,a3
    a6ea:	853a                	mv	a0,a4
    a6ec:	85be                	mv	a1,a5
    a6ee:	8082                	ret
    a6f0:	472d                	li	a4,11
    a6f2:	8f09                	sub	a4,a4,a0
    a6f4:	00e457b3          	srl	a5,s0,a4
    a6f8:	07b2                	slli	a5,a5,0xc
    a6fa:	01550713          	addi	a4,a0,21 # 80000015 <_eusrstack+0x5fff8015>
    a6fe:	00e41733          	sll	a4,s0,a4
    a702:	83b1                	srli	a5,a5,0xc
    a704:	b7d1                	j	a6c8 <__floatunsidf+0x2a>

0000a706 <_close>:
    a706:	05800793          	li	a5,88
    a70a:	1fff7717          	auipc	a4,0x1fff7
    a70e:	06f72d23          	sw	a5,122(a4) # 20001784 <errno>
    a712:	557d                	li	a0,-1
    a714:	8082                	ret

0000a716 <_fstat>:
    a716:	05800793          	li	a5,88
    a71a:	1fff7717          	auipc	a4,0x1fff7
    a71e:	06f72523          	sw	a5,106(a4) # 20001784 <errno>
    a722:	557d                	li	a0,-1
    a724:	8082                	ret

0000a726 <_isatty>:
    a726:	05800793          	li	a5,88
    a72a:	1fff7717          	auipc	a4,0x1fff7
    a72e:	04f72d23          	sw	a5,90(a4) # 20001784 <errno>
    a732:	4501                	li	a0,0
    a734:	8082                	ret

0000a736 <_lseek>:
    a736:	05800793          	li	a5,88
    a73a:	1fff7717          	auipc	a4,0x1fff7
    a73e:	04f72523          	sw	a5,74(a4) # 20001784 <errno>
    a742:	557d                	li	a0,-1
    a744:	8082                	ret

0000a746 <_read>:
    a746:	05800793          	li	a5,88
    a74a:	1fff7717          	auipc	a4,0x1fff7
    a74e:	02f72d23          	sw	a5,58(a4) # 20001784 <errno>
    a752:	557d                	li	a0,-1
    a754:	8082                	ret
    a756:	0000                	unimp
    a758:	c104                	sw	s1,0(a0)
    a75a:	0000                	unimp
    a75c:	c1dc                	sw	a5,4(a1)
    a75e:	0000                	unimp
    a760:	c110                	sw	a2,0(a0)
    a762:	0000                	unimp
    a764:	c11c                	sw	a5,0(a0)
    a766:	0000                	unimp
    a768:	58a8                	lw	a0,112(s1)
    a76a:	54a8                	lw	a0,104(s1)
    a76c:	54a8                	lw	a0,104(s1)
    a76e:	54a8                	lw	a0,104(s1)
    a770:	54a8                	lw	a0,104(s1)
    a772:	54a8                	lw	a0,104(s1)
    a774:	54a8                	lw	a0,104(s1)
    a776:	54a8                	lw	a0,104(s1)
    a778:	54a8                	lw	a0,104(s1)
    a77a:	54a8                	lw	a0,104(s1)
    a77c:	54a8                	lw	a0,104(s1)
    a77e:	54a8                	lw	a0,104(s1)
    a780:	54a8                	lw	a0,104(s1)
    a782:	54a8                	lw	a0,104(s1)
    a784:	54a8                	lw	a0,104(s1)
    a786:	54a8                	lw	a0,104(s1)
    a788:	54a8                	lw	a0,104(s1)
    a78a:	54a8                	lw	a0,104(s1)
    a78c:	54a8                	lw	a0,104(s1)
    a78e:	54a8                	lw	a0,104(s1)
    a790:	54a8                	lw	a0,104(s1)
    a792:	54a8                	lw	a0,104(s1)
    a794:	54a8                	lw	a0,104(s1)
    a796:	54a8                	lw	a0,104(s1)
    a798:	54a8                	lw	a0,104(s1)
    a79a:	54a8                	lw	a0,104(s1)
    a79c:	54a8                	lw	a0,104(s1)
    a79e:	54a8                	lw	a0,104(s1)
    a7a0:	54a8                	lw	a0,104(s1)
    a7a2:	54a8                	lw	a0,104(s1)
    a7a4:	54a8                	lw	a0,104(s1)
    a7a6:	54a8                	lw	a0,104(s1)
    a7a8:	54a8                	lw	a0,104(s1)
    a7aa:	54a8                	lw	a0,104(s1)
    a7ac:	54a8                	lw	a0,104(s1)
    a7ae:	54a8                	lw	a0,104(s1)
    a7b0:	54a8                	lw	a0,104(s1)
    a7b2:	54a8                	lw	a0,104(s1)
    a7b4:	54a8                	lw	a0,104(s1)
    a7b6:	54a8                	lw	a0,104(s1)
    a7b8:	54a8                	lw	a0,104(s1)
    a7ba:	54a8                	lw	a0,104(s1)
    a7bc:	54a8                	lw	a0,104(s1)
    a7be:	5ba8                	lw	a0,112(a5)
    a7c0:	000d                	c.nop	3
    a7c2:	0000                	unimp
    a7c4:	55a8                	lw	a0,104(a1)
    a7c6:	2020                	lbu	s0,2(s0)
    a7c8:	2020                	lbu	s0,2(s0)
    a7ca:	2020                	lbu	s0,2(s0)
    a7cc:	2020                	lbu	s0,2(s0)
    a7ce:	2020                	lbu	s0,2(s0)
    a7d0:	afb6d4d7          	0xafb6d4d7
    a7d4:	e9b9                	bnez	a1,a82a <_read+0xe4>
    a7d6:	e3c1                	bnez	a5,a856 <_read+0x110>
    a7d8:	a3d0                	sb	a2,4(a5)
    a7da:	2020bcd7          	0x2020bcd7
    a7de:	2020                	lbu	s0,2(s0)
    a7e0:	2020                	lbu	s0,2(s0)
    a7e2:	2020                	lbu	s0,2(s0)
    a7e4:	2020                	lbu	s0,2(s0)
    a7e6:	2020                	lbu	s0,2(s0)
    a7e8:	2020                	lbu	s0,2(s0)
    a7ea:	2020                	lbu	s0,2(s0)
    a7ec:	2020                	lbu	s0,2(s0)
    a7ee:	2020                	lbu	s0,2(s0)
    a7f0:	55a8                	lw	a0,104(a1)
    a7f2:	000d                	c.nop	3
    a7f4:	64a8                	flw	fa0,72(s1)
    a7f6:	54a8                	lw	a0,104(s1)
    a7f8:	54a8                	lw	a0,104(s1)
    a7fa:	54a8                	lw	a0,104(s1)
    a7fc:	54a8                	lw	a0,104(s1)
    a7fe:	54a8                	lw	a0,104(s1)
    a800:	54a8                	lw	a0,104(s1)
    a802:	54a8                	lw	a0,104(s1)
    a804:	54a8                	lw	a0,104(s1)
    a806:	54a8                	lw	a0,104(s1)
    a808:	54a8                	lw	a0,104(s1)
    a80a:	54a8                	lw	a0,104(s1)
    a80c:	54a8                	lw	a0,104(s1)
    a80e:	54a8                	lw	a0,104(s1)
    a810:	54a8                	lw	a0,104(s1)
    a812:	54a8                	lw	a0,104(s1)
    a814:	54a8                	lw	a0,104(s1)
    a816:	54a8                	lw	a0,104(s1)
    a818:	54a8                	lw	a0,104(s1)
    a81a:	54a8                	lw	a0,104(s1)
    a81c:	54a8                	lw	a0,104(s1)
    a81e:	54a8                	lw	a0,104(s1)
    a820:	54a8                	lw	a0,104(s1)
    a822:	54a8                	lw	a0,104(s1)
    a824:	54a8                	lw	a0,104(s1)
    a826:	54a8                	lw	a0,104(s1)
    a828:	54a8                	lw	a0,104(s1)
    a82a:	54a8                	lw	a0,104(s1)
    a82c:	54a8                	lw	a0,104(s1)
    a82e:	54a8                	lw	a0,104(s1)
    a830:	54a8                	lw	a0,104(s1)
    a832:	54a8                	lw	a0,104(s1)
    a834:	54a8                	lw	a0,104(s1)
    a836:	54a8                	lw	a0,104(s1)
    a838:	54a8                	lw	a0,104(s1)
    a83a:	54a8                	lw	a0,104(s1)
    a83c:	54a8                	lw	a0,104(s1)
    a83e:	54a8                	lw	a0,104(s1)
    a840:	54a8                	lw	a0,104(s1)
    a842:	54a8                	lw	a0,104(s1)
    a844:	54a8                	lw	a0,104(s1)
    a846:	54a8                	lw	a0,104(s1)
    a848:	54a8                	lw	a0,104(s1)
    a84a:	67a8                	flw	fa0,72(a5)
    a84c:	000d                	c.nop	3
    a84e:	0000                	unimp
    a850:	55a8                	lw	a0,104(a1)
    a852:	2020                	lbu	s0,2(s0)
    a854:	b7c8ebc7          	fmsub.q	fs7,fa7,ft8,fs6,unknown
    a858:	a3b1                	j	ada4 <_read+0x65e>
    a85a:	d0d3f9cb          	fnmsub.s	fs3,ft7,fa3,fs10
    a85e:	a8ccc6b3          	0xa8ccc6b3
    a862:	d8d4d5bf 2020a1a3 	0x2020a1a3d8d4d5bf
    a86a:	2020                	lbu	s0,2(s0)
    a86c:	2020                	lbu	s0,2(s0)
    a86e:	2020                	lbu	s0,2(s0)
    a870:	2020                	lbu	s0,2(s0)
    a872:	2020                	lbu	s0,2(s0)
    a874:	2020                	lbu	s0,2(s0)
    a876:	2020                	lbu	s0,2(s0)
    a878:	2020                	lbu	s0,2(s0)
    a87a:	2020                	lbu	s0,2(s0)
    a87c:	55a8                	lw	a0,104(a1)
    a87e:	000d                	c.nop	3
    a880:	55a8                	lw	a0,104(a1)
    a882:	2020                	lbu	s0,2(s0)
    a884:	fdd5                	bnez	a1,a840 <_read+0xfa>
    a886:	dad4                	sw	a3,52(a3)
    a888:	c1b6                	sw	a3,192(sp)
    a88a:	a1c8                	sb	a0,4(a1)
    a88c:	4441                	li	s0,16
    a88e:	a3b5d643          	fmadd.d	fa2,fa1,fs11,fs4,unknown
    a892:	c7ac                	sw	a1,72(a5)
    a894:	bad4c9eb          	0xbad4c9eb
    a898:	33f2                	lhu	a2,38(a5)
    a89a:	2e2eebc3          	fmadd.q	fs7,ft9,ft2,ft5,unknown
    a89e:	202e                	lhu	a1,2(s0)
    a8a0:	2020                	lbu	s0,2(s0)
    a8a2:	2020                	lbu	s0,2(s0)
    a8a4:	2020                	lbu	s0,2(s0)
    a8a6:	2020                	lbu	s0,2(s0)
    a8a8:	2020                	lbu	s0,2(s0)
    a8aa:	2020                	lbu	s0,2(s0)
    a8ac:	55a8                	lw	a0,104(a1)
    a8ae:	000d                	c.nop	3
    a8b0:	5ea8                	lw	a0,120(a3)
    a8b2:	54a8                	lw	a0,104(s1)
    a8b4:	54a8                	lw	a0,104(s1)
    a8b6:	54a8                	lw	a0,104(s1)
    a8b8:	54a8                	lw	a0,104(s1)
    a8ba:	54a8                	lw	a0,104(s1)
    a8bc:	54a8                	lw	a0,104(s1)
    a8be:	54a8                	lw	a0,104(s1)
    a8c0:	54a8                	lw	a0,104(s1)
    a8c2:	54a8                	lw	a0,104(s1)
    a8c4:	54a8                	lw	a0,104(s1)
    a8c6:	54a8                	lw	a0,104(s1)
    a8c8:	54a8                	lw	a0,104(s1)
    a8ca:	54a8                	lw	a0,104(s1)
    a8cc:	54a8                	lw	a0,104(s1)
    a8ce:	54a8                	lw	a0,104(s1)
    a8d0:	54a8                	lw	a0,104(s1)
    a8d2:	54a8                	lw	a0,104(s1)
    a8d4:	54a8                	lw	a0,104(s1)
    a8d6:	54a8                	lw	a0,104(s1)
    a8d8:	54a8                	lw	a0,104(s1)
    a8da:	54a8                	lw	a0,104(s1)
    a8dc:	54a8                	lw	a0,104(s1)
    a8de:	54a8                	lw	a0,104(s1)
    a8e0:	54a8                	lw	a0,104(s1)
    a8e2:	54a8                	lw	a0,104(s1)
    a8e4:	54a8                	lw	a0,104(s1)
    a8e6:	54a8                	lw	a0,104(s1)
    a8e8:	54a8                	lw	a0,104(s1)
    a8ea:	54a8                	lw	a0,104(s1)
    a8ec:	54a8                	lw	a0,104(s1)
    a8ee:	54a8                	lw	a0,104(s1)
    a8f0:	54a8                	lw	a0,104(s1)
    a8f2:	54a8                	lw	a0,104(s1)
    a8f4:	54a8                	lw	a0,104(s1)
    a8f6:	54a8                	lw	a0,104(s1)
    a8f8:	54a8                	lw	a0,104(s1)
    a8fa:	54a8                	lw	a0,104(s1)
    a8fc:	54a8                	lw	a0,104(s1)
    a8fe:	54a8                	lw	a0,104(s1)
    a900:	54a8                	lw	a0,104(s1)
    a902:	54a8                	lw	a0,104(s1)
    a904:	54a8                	lw	a0,104(s1)
    a906:	61a8                	flw	fa0,64(a1)
    a908:	000d                	c.nop	3
    a90a:	0000                	unimp
    a90c:	55a8                	lw	a0,104(a1)
    a90e:	2020                	lbu	s0,2(s0)
    a910:	2020                	lbu	s0,2(s0)
    a912:	2020                	lbu	s0,2(s0)
    a914:	2020                	lbu	s0,2(s0)
    a916:	2020                	lbu	s0,2(s0)
    a918:	afb6d4d7          	0xafb6d4d7
    a91c:	e9b9                	bnez	a1,a972 <_read+0x22c>
    a91e:	e3c1                	bnez	a5,a99e <_read+0x258>
    a920:	eacd                	bnez	a3,a9d2 <_read+0x28c>
    a922:	2020c9b3          	0x2020c9b3
    a926:	2020                	lbu	s0,2(s0)
    a928:	2020                	lbu	s0,2(s0)
    a92a:	2020                	lbu	s0,2(s0)
    a92c:	2020                	lbu	s0,2(s0)
    a92e:	2020                	lbu	s0,2(s0)
    a930:	2020                	lbu	s0,2(s0)
    a932:	2020                	lbu	s0,2(s0)
    a934:	2020                	lbu	s0,2(s0)
    a936:	2020                	lbu	s0,2(s0)
    a938:	55a8                	lw	a0,104(a1)
    a93a:	000d                	c.nop	3
    a93c:	55a8                	lw	a0,104(a1)
    a93e:	2020                	lbu	s0,2(s0)
    a940:	a8cd                	j	aa32 <_read+0x2ec>
    a942:	c0b5                	beqz	s1,a9a6 <_read+0x260>
    a944:	2031                	jal	a950 <_read+0x20a>
    a946:	e3c1                	bnez	a5,a9c6 <_read+0x280>
    a948:	e3b5                	bnez	a5,a9ac <_read+0x266>
    a94a:	203a                	lhu	a4,2(s0)
    a94c:	3825                	jal	a184 <__subdf3+0x35a>
    a94e:	646c                	flw	fa1,76(s0)
    a950:	2020                	lbu	s0,2(s0)
    a952:	2020                	lbu	s0,2(s0)
    a954:	2020                	lbu	s0,2(s0)
    a956:	2020                	lbu	s0,2(s0)
    a958:	2020                	lbu	s0,2(s0)
    a95a:	2020                	lbu	s0,2(s0)
    a95c:	2020                	lbu	s0,2(s0)
    a95e:	2020                	lbu	s0,2(s0)
    a960:	2020                	lbu	s0,2(s0)
    a962:	2020                	lbu	s0,2(s0)
    a964:	2020                	lbu	s0,2(s0)
    a966:	2020                	lbu	s0,2(s0)
    a968:	55a8                	lw	a0,104(a1)
    a96a:	0a0d                	addi	s4,s4,3
    a96c:	0000                	unimp
    a96e:	0000                	unimp
    a970:	55a8                	lw	a0,104(a1)
    a972:	2020                	lbu	s0,2(s0)
    a974:	a8cd                	j	aa66 <_read+0x320>
    a976:	c0b5                	beqz	s1,a9da <_read+0x294>
    a978:	2032                	lhu	a2,2(s0)
    a97a:	e3c1                	bnez	a5,a9fa <_read+0x2b4>
    a97c:	e3b5                	bnez	a5,a9e0 <_read+0x29a>
    a97e:	203a                	lhu	a4,2(s0)
    a980:	3825                	jal	a1b8 <__subdf3+0x38e>
    a982:	646c                	flw	fa1,76(s0)
    a984:	2020                	lbu	s0,2(s0)
    a986:	2020                	lbu	s0,2(s0)
    a988:	2020                	lbu	s0,2(s0)
    a98a:	2020                	lbu	s0,2(s0)
    a98c:	2020                	lbu	s0,2(s0)
    a98e:	2020                	lbu	s0,2(s0)
    a990:	2020                	lbu	s0,2(s0)
    a992:	2020                	lbu	s0,2(s0)
    a994:	2020                	lbu	s0,2(s0)
    a996:	2020                	lbu	s0,2(s0)
    a998:	2020                	lbu	s0,2(s0)
    a99a:	2020                	lbu	s0,2(s0)
    a99c:	55a8                	lw	a0,104(a1)
    a99e:	0a0d                	addi	s4,s4,3
    a9a0:	0000                	unimp
    a9a2:	0000                	unimp
    a9a4:	55a8                	lw	a0,104(a1)
    a9a6:	2020                	lbu	s0,2(s0)
    a9a8:	a8cd                	j	aa9a <_read+0x354>
    a9aa:	c0b5                	beqz	s1,aa0e <_read+0x2c8>
    a9ac:	e3c12033          	0xe3c12033
    a9b0:	e3b5                	bnez	a5,aa14 <_read+0x2ce>
    a9b2:	203a                	lhu	a4,2(s0)
    a9b4:	3825                	jal	a1ec <__subdf3+0x3c2>
    a9b6:	646c                	flw	fa1,76(s0)
    a9b8:	2020                	lbu	s0,2(s0)
    a9ba:	2020                	lbu	s0,2(s0)
    a9bc:	2020                	lbu	s0,2(s0)
    a9be:	2020                	lbu	s0,2(s0)
    a9c0:	2020                	lbu	s0,2(s0)
    a9c2:	2020                	lbu	s0,2(s0)
    a9c4:	2020                	lbu	s0,2(s0)
    a9c6:	2020                	lbu	s0,2(s0)
    a9c8:	2020                	lbu	s0,2(s0)
    a9ca:	2020                	lbu	s0,2(s0)
    a9cc:	2020                	lbu	s0,2(s0)
    a9ce:	2020                	lbu	s0,2(s0)
    a9d0:	55a8                	lw	a0,104(a1)
    a9d2:	0a0d                	addi	s4,s4,3
    a9d4:	0000                	unimp
    a9d6:	0000                	unimp
    a9d8:	55a8                	lw	a0,104(a1)
    a9da:	2020                	lbu	s0,2(s0)
    a9dc:	a8cd                	j	aace <_read+0x388>
    a9de:	c0b5                	beqz	s1,aa42 <_read+0x2fc>
    a9e0:	2034                	lbu	a3,2(s0)
    a9e2:	e3c1                	bnez	a5,aa62 <_read+0x31c>
    a9e4:	e3b5                	bnez	a5,aa48 <_read+0x302>
    a9e6:	203a                	lhu	a4,2(s0)
    a9e8:	3825                	jal	a220 <__subdf3+0x3f6>
    a9ea:	646c                	flw	fa1,76(s0)
    a9ec:	2020                	lbu	s0,2(s0)
    a9ee:	2020                	lbu	s0,2(s0)
    a9f0:	2020                	lbu	s0,2(s0)
    a9f2:	2020                	lbu	s0,2(s0)
    a9f4:	2020                	lbu	s0,2(s0)
    a9f6:	2020                	lbu	s0,2(s0)
    a9f8:	2020                	lbu	s0,2(s0)
    a9fa:	2020                	lbu	s0,2(s0)
    a9fc:	2020                	lbu	s0,2(s0)
    a9fe:	2020                	lbu	s0,2(s0)
    aa00:	2020                	lbu	s0,2(s0)
    aa02:	2020                	lbu	s0,2(s0)
    aa04:	55a8                	lw	a0,104(a1)
    aa06:	0a0d                	addi	s4,s4,3
    aa08:	0000                	unimp
    aa0a:	0000                	unimp
    aa0c:	3131                	jal	a618 <__fixunsdfsi+0x48>
    aa0e:	3131                	jal	a61a <__fixunsdfsi+0x4a>
    aa10:	3131                	jal	a61c <__fixunsdfsi+0x4c>
    aa12:	3131                	jal	a61e <__fixunsdfsi+0x4e>
    aa14:	3131                	jal	a620 <__fixunsdfsi+0x50>
    aa16:	3131                	jal	a622 <__fixunsdfsi+0x52>
    aa18:	3131                	jal	a624 <__fixunsdfsi+0x54>
    aa1a:	0d31                	addi	s10,s10,12
    aa1c:	0000                	unimp
    aa1e:	0000                	unimp
    aa20:	5344415b          	0x5344415b
    aa24:	205d                	jal	aaca <_read+0x384>
    aa26:	4f495047          	fmsub.q	ft0,fs2,fs4,fs1,unknown
    aa2a:	e4c5                	bnez	s1,aad2 <_read+0x38c>
    aa2c:	c3d6                	sw	s5,196(sp)
    aa2e:	eacd                	bnez	a3,aae0 <_read+0x39a>
    aa30:	2820c9b3          	0x2820c9b3
    aa34:	4450                	lw	a2,12(s0)
    aa36:	503d4e57          	0x503d4e57
    aa3a:	3042                	lhu	s0,36(s0)
    aa3c:	202c                	lbu	a1,2(s0)
    aa3e:	4b4c4353          	0x4b4c4353
    aa42:	503d                	c.li	zero,-17
    aa44:	3041                	jal	a2c4 <__subdf3+0x49a>
    aa46:	202c                	lbu	a1,2(s0)
    aa48:	4f44                	lw	s1,28(a4)
    aa4a:	5455                	li	s0,-11
    aa4c:	503d                	c.li	zero,-17
    aa4e:	3141                	jal	a6ce <__floatunsidf+0x30>
    aa50:	202c                	lbu	a1,2(s0)
    aa52:	3041                	jal	a2d2 <__subdf3+0x4a8>
    aa54:	503d                	c.li	zero,-17
    aa56:	3242                	lhu	s0,36(a2)
    aa58:	202c                	lbu	a1,2(s0)
    aa5a:	3141                	jal	a6da <__floatunsidf+0x3c>
    aa5c:	503d                	c.li	zero,-17
    aa5e:	3542                	lhu	s0,44(a0)
    aa60:	0d29                	addi	s10,s10,10
    aa62:	0000                	unimp
    aa64:	5344415b          	0x5344415b
    aa68:	205d                	jal	ab0e <_read+0x3c8>
    aa6a:	bccaf5b3          	0xbccaf5b3
    aa6e:	aabfafbb          	0xaabfafbb
    aa72:	bcca                	sh	a0,60(s1)
    aa74:	2e2e                	lhu	a1,26(a2)
    aa76:	0d2e                	slli	s10,s10,0xb
    aa78:	0000                	unimp
    aa7a:	0000                	unimp
    aa7c:	5344415b          	0x5344415b
    aa80:	205d                	jal	ab26 <_read+0x3e0>
    aa82:	bccaf5b3          	0xbccaf5b3
    aa86:	eacdafbb          	0xeacdafbb
    aa8a:	000dc9b3          	xor	s3,s11,zero
    aa8e:	0000                	unimp
    aa90:	5344415b          	0x5344415b
    aa94:	205d                	jal	ab3a <_read+0x3f4>
    aa96:	4450                	lw	a2,12(s0)
    aa98:	50284e57          	0x50284e57
    aa9c:	3142                	lhu	s0,36(a0)
    aa9e:	d729                	beqz	a4,a9e8 <_read+0x2a2>
    aaa0:	ccb4                	sw	a3,88(s1)
    aaa2:	3dac                	lbu	a1,27(a1)
    aaa4:	6425                	lui	s0,0x9
    aaa6:	0a0d                	addi	s4,s4,3
    aaa8:	0000                	unimp
    aaaa:	0000                	unimp
    aaac:	caf7b55b          	0xcaf7b55b
    aab0:	5dd4                	lw	a3,60(a1)
    aab2:	4120                	lw	s0,64(a0)
    aab4:	ca30                	sw	a2,80(a2)
    aab6:	bcb5                	j	a532 <__subdf3+0x708>
    aab8:	3dca                	lhu	a0,60(a1)
    aaba:	6425                	lui	s0,0x9
    aabc:	202c                	lbu	a1,2(s0)
    aabe:	3141                	jal	a73e <_lseek+0x8>
    aac0:	b5ca                	sh	a0,44(a1)
    aac2:	cabc                	sw	a5,80(a3)
    aac4:	253d                	jal	b0f2 <_read+0x9ac>
    aac6:	0d64                	addi	s1,sp,668
    aac8:	000a                	c.slli	zero,0x2
    aaca:	0000                	unimp
    aacc:	ceedb45b          	0xceedb45b
    aad0:	cd205df3          	csrrwi	s11,0xcd2,0
    aad4:	b5a8                	sb	a0,11(a1)
    aad6:	25c0                	lbu	s0,12(a1)
    aad8:	2064                	lbu	s1,6(s0)
    aada:	4f44                	lw	s1,28(a4)
    aadc:	5455                	li	s0,-11
    aade:	b1caacb3          	0xb1caacb3
    aae2:	0d21                	addi	s10,s10,8
    aae4:	000a                	c.slli	zero,0x2
    aae6:	0000                	unimp
    aae8:	b5a8cd5b          	0xb5a8cd5b
    aaec:	5dc0                	lw	s0,60(a1)
    aaee:	c720                	sw	s0,72(a4)
    aaf0:	bbd0                	sb	a2,21(a5)
    aaf2:	cdbdb5bb          	0xcdbdb5bb
    aaf6:	b5a8                	sb	a0,11(a1)
    aaf8:	31c0                	lbu	s0,5(a1)
    aafa:	2820                	lbu	s0,18(s0)
    aafc:	3041                	jal	a37c <__subdf3+0x552>
    aafe:	303d                	jal	a32c <__subdf3+0x502>
    ab00:	412c                	lw	a1,64(a0)
    ab02:	3d31                	jal	a91e <_read+0x1d8>
    ab04:	2930                	lbu	a2,18(a0)
    ab06:	000d                	c.nop	3
    ab08:	b5a8cd5b          	0xb5a8cd5b
    ab0c:	5dc0                	lw	s0,60(a1)
    ab0e:	c720                	sw	s0,72(a4)
    ab10:	bbd0                	sb	a2,21(a5)
    ab12:	cdbdb5bb          	0xcdbdb5bb
    ab16:	b5a8                	sb	a0,11(a1)
    ab18:	32c0                	lbu	s0,5(a3)
    ab1a:	2820                	lbu	s0,18(s0)
    ab1c:	3041                	jal	a39c <__subdf3+0x572>
    ab1e:	313d                	jal	a74c <_read+0x6>
    ab20:	412c                	lw	a1,64(a0)
    ab22:	3d31                	jal	a93e <_read+0x1f8>
    ab24:	2930                	lbu	a2,18(a0)
    ab26:	000d                	c.nop	3
    ab28:	b5a8cd5b          	0xb5a8cd5b
    ab2c:	5dc0                	lw	s0,60(a1)
    ab2e:	c720                	sw	s0,72(a4)
    ab30:	bbd0                	sb	a2,21(a5)
    ab32:	cdbdb5bb          	0xcdbdb5bb
    ab36:	b5a8                	sb	a0,11(a1)
    ab38:	33c0                	lbu	s0,5(a5)
    ab3a:	2820                	lbu	s0,18(s0)
    ab3c:	3041                	jal	a3bc <__subdf3+0x592>
    ab3e:	303d                	jal	a36c <__subdf3+0x542>
    ab40:	412c                	lw	a1,64(a0)
    ab42:	3d31                	jal	a95e <_read+0x218>
    ab44:	2931                	jal	af60 <_read+0x81a>
    ab46:	000d                	c.nop	3
    ab48:	b5a8cd5b          	0xb5a8cd5b
    ab4c:	5dc0                	lw	s0,60(a1)
    ab4e:	c720                	sw	s0,72(a4)
    ab50:	bbd0                	sb	a2,21(a5)
    ab52:	cdbdb5bb          	0xcdbdb5bb
    ab56:	b5a8                	sb	a0,11(a1)
    ab58:	34c0                	lbu	s0,13(s1)
    ab5a:	2820                	lbu	s0,18(s0)
    ab5c:	3041                	jal	a3dc <__subdf3+0x5b2>
    ab5e:	313d                	jal	a78c <_read+0x46>
    ab60:	412c                	lw	a1,64(a0)
    ab62:	3d31                	jal	a97e <_read+0x238>
    ab64:	2931                	jal	af80 <_read+0x83a>
    ab66:	000d                	c.nop	3
    ab68:	0000                	unimp
    ab6a:	3f80                	lbu	s0,25(a5)
    ab6c:	3f333333          	0x3f333333
    ab70:	0000                	unimp
    ab72:	4120                	lw	s0,64(a0)
    ab74:	0000                	unimp
    ab76:	42c8                	lw	a0,4(a3)
    ab78:	0000                	unimp
    ab7a:	447a                	lw	s0,156(sp)
    ab7c:	c1d8d65b          	0xc1d8d65b
    ab80:	cd205dbf 25c0b5a8 	0x25c0b5a8cd205dbf
    ab88:	2064                	lbu	s1,6(s0)
    ab8a:	b4ce                	sh	a1,44(s1)
    ab8c:	a3d0                	sb	a2,4(a5)
    ab8e:	2021bcd7          	0x2021bcd7
    ab92:	4441                	li	s0,16
    ab94:	6c253d43          	0x6c253d43
    ab98:	0d64                	addi	s1,sp,668
    ab9a:	000a                	c.slli	zero,0x2
    ab9c:	c1d8d65b          	0xc1d8d65b
    aba0:	cd205dbf 25c0b5a8 	0x25c0b5a8cd205dbf
    aba8:	3a64                	lbu	s1,23(a2)
    abaa:	4120                	lw	s0,64(a0)
    abac:	4344                	lw	s1,4(a4)
    abae:	253d                	jal	b1dc <_read+0xa96>
    abb0:	6c38                	flw	fa4,88(s0)
    abb2:	2c64                	lbu	s1,30(s0)
    abb4:	5a20                	lw	s0,112(a2)
    abb6:	7265                	lui	tp,0xffff9
    abb8:	38253d6f          	jal	s10,5df3a <_data_lma+0x5164e>
    abbc:	646c                	flw	fa1,76(s0)
    abbe:	202c                	lbu	a1,2(s0)
    abc0:	6944                	flw	fs1,20(a0)
    abc2:	6666                	flw	fa2,88(sp)
    abc4:	253d                	jal	b1f2 <_read+0xaac>
    abc6:	6c38                	flw	fa4,88(s0)
    abc8:	2c64                	lbu	s1,30(s0)
    abca:	d620                	sw	s0,104(a2)
    abcc:	c1d8                	sw	a4,4(a1)
    abce:	33253dbf 30252e64 	0x30252e6433253dbf
    abd6:	6432                	flw	fs0,12(sp)
    abd8:	6720                	flw	fs0,72(a4)
    abda:	202c                	lbu	a1,2(s0)
    abdc:	d8d6                	sw	s5,112(sp)
    abde:	bfc1                	j	abae <_read+0x468>
    abe0:	253d                	jal	b20e <_read+0xac8>
    abe2:	2e64                	lbu	s1,30(a2)
    abe4:	3025                	jal	a40c <__subdf3+0x5e2>
    abe6:	6432                	flw	fs0,12(sp)
    abe8:	6b20                	flw	fs0,80(a4)
    abea:	000a0d67          	jalr	s10,s4
    abee:	0000                	unimp
    abf0:	d6dcd75b          	0xd6dcd75b
    abf4:	5dd8                	lw	a4,60(a1)
    abf6:	cd20                	sw	s0,88(a0)
    abf8:	b5a8                	sb	a0,11(a1)
    abfa:	31c0                	lbu	s0,5(a1)
    abfc:	332b322b          	0x332b322b
    ac00:	3d20342b          	0x3d20342b
    ac04:	2520                	lbu	s0,10(a0)
    ac06:	252e6433          	0x252e6433
    ac0a:	3230                	lbu	a2,3(a2)
    ac0c:	2064                	lbu	s1,6(s0)
    ac0e:	000a0d67          	jalr	s10,s4
    ac12:	0000                	unimp
    ac14:	3574                	lbu	a3,15(a0)
    ac16:	742e                	flw	fs0,232(sp)
    ac18:	7478                	flw	fa4,108(s0)
    ac1a:	223d                	jal	ad48 <_read+0x602>
    ac1c:	d8d6dcd7          	0xd8d6dcd7
    ac20:	253a                	lhu	a4,10(a0)
    ac22:	252e6433          	0x252e6433
    ac26:	3230                	lbu	a2,3(a2)
    ac28:	2064                	lbu	s1,6(s0)
    ac2a:	ffff2267          	0xffff2267
    ac2e:	00ff                	0xff
    ac30:	3025                	jal	a458 <__subdf3+0x62e>
    ac32:	5832                	lw	a6,44(sp)
    ac34:	252d                	jal	b25e <_read+0xb18>
    ac36:	3230                	lbu	a2,3(a2)
    ac38:	2d58                	lbu	a4,28(a0)
    ac3a:	3025                	jal	a462 <__subdf3+0x638>
    ac3c:	5832                	lw	a6,44(sp)
    ac3e:	252d                	jal	b268 <_read+0xb22>
    ac40:	3230                	lbu	a2,3(a2)
    ac42:	0058                	addi	a4,sp,4
    ac44:	6964                	flw	fs1,84(a0)
    ac46:	00006873          	csrrsi	a6,ustatus,0
    ac4a:	0000                	unimp
    ac4c:	494e495b          	0x494e495b
    ac50:	5d54                	lw	a3,60(a0)
    ac52:	5520                	lw	s0,104(a0)
    ac54:	5241                	li	tp,-16
    ac56:	3454                	lbu	a3,13(s0)
    ac58:	efbdbfef          	jal	t6,fffe6b52 <_eusrstack+0xdffdeb52>
    ac5c:	bccabdbf efbdbfef 	0xefbdbfefbccabdbf
    ac64:	bfefbdbf bdbfefbd 	0xbdbfefbdbfefbdbf
    ac6c:	20bdbfef          	jal	t6,e6676 <_data_lma+0xd9d8a>
    ac70:	5028                	lw	a0,96(s0)
    ac72:	2f303143          	fmadd.q	ft2,ft0,fs3,ft5,rup
    ac76:	5854                	lw	a3,52(s0)
    ac78:	202c                	lbu	a1,2(s0)
    ac7a:	4350                	lw	a2,4(a4)
    ac7c:	3131                	jal	a888 <_read+0x142>
    ac7e:	2c58522f          	0x2c58522f
    ac82:	3120                	lbu	s0,3(a0)
    ac84:	3531                	jal	aa90 <_read+0x34a>
    ac86:	3032                	lhu	a2,34(s0)
    ac88:	2930                	lbu	a2,18(a0)
    ac8a:	000d                	c.nop	3
    ac8c:	0000                	unimp
    ac8e:	43fa                	lw	t2,156(sp)
    ac90:	0000                	unimp
    ac92:	4348                	lw	a0,4(a4)
    ac94:	0000                	unimp
    ac96:	4220                	lw	s0,64(a2)
    ac98:	6f4e                	flw	ft10,208(sp)
    ac9a:	6d72                	flw	fs10,28(sp)
    ac9c:	6c61                	lui	s8,0x18
    ac9e:	5520                	lw	s0,104(a0)
    aca0:	00726573          	csrrsi	a0,0x7,4
    aca4:	6441                	lui	s0,0x10
    aca6:	696d                	lui	s2,0x1b
    aca8:	696e                	flw	fs2,216(sp)
    acaa:	61727473          	csrrci	s0,0x617,4
    acae:	6f74                	flw	fa3,92(a4)
    acb0:	0072                	c.slli	zero,0x1c
    acb2:	0000                	unimp
    acb4:	3d3d                	jal	aaf2 <_read+0x3ac>
    acb6:	3d3d                	jal	aaf4 <_read+0x3ae>
    acb8:	3d3d                	jal	aaf6 <_read+0x3b0>
    acba:	3d3d                	jal	aaf8 <_read+0x3b2>
    acbc:	3d3d                	jal	aafa <_read+0x3b4>
    acbe:	5520                	lw	s0,104(a0)
    acc0:	20726573          	csrrsi	a0,0x207,4
    acc4:	6544                	flw	fs1,12(a0)
    acc6:	6174                	flw	fa3,68(a0)
    acc8:	6c69                	lui	s8,0x1a
    acca:	3d3d2073          	csrs	0x3d3,s10
    acce:	3d3d                	jal	ab0c <_read+0x3c6>
    acd0:	3d3d                	jal	ab0e <_read+0x3c8>
    acd2:	3d3d                	jal	ab10 <_read+0x3ca>
    acd4:	3d3d                	jal	ab12 <_read+0x3cc>
    acd6:	0a0d                	addi	s4,s4,3
    acd8:	0000                	unimp
    acda:	0000                	unimp
    acdc:	7355                	lui	t1,0xffff5
    acde:	7265                	lui	tp,0xffff9
    ace0:	4920                	lw	s0,80(a0)
    ace2:	3a44                	lbu	s1,21(a2)
    ace4:	2520                	lbu	s0,10(a0)
    ace6:	756c                	flw	fa1,108(a0)
    ace8:	0a0d                	addi	s4,s4,3
    acea:	0000                	unimp
    acec:	7355                	lui	t1,0xffff5
    acee:	7265                	lui	tp,0xffff9
    acf0:	4e20                	lw	s0,88(a2)
    acf2:	6d61                	lui	s10,0x18
    acf4:	3a65                	jal	a6ac <__floatunsidf+0xe>
    acf6:	2520                	lbu	s0,10(a0)
    acf8:	000a0d73          	0xa0d73
    acfc:	7355                	lui	t1,0xffff5
    acfe:	7265                	lui	tp,0xffff9
    ad00:	4c20                	lw	s0,88(s0)
    ad02:	7665                	lui	a2,0xffff9
    ad04:	6c65                	lui	s8,0x19
    ad06:	203a                	lhu	a4,2(s0)
    ad08:	7325                	lui	t1,0xfffe9
    ad0a:	0a0d                	addi	s4,s4,3
    ad0c:	0000                	unimp
    ad0e:	0000                	unimp
    ad10:	6544                	flw	fs1,12(a0)
    ad12:	6170                	flw	fa2,68(a0)
    ad14:	7472                	flw	fs0,60(sp)
    ad16:	656d                	lui	a0,0x1b
    ad18:	746e                	flw	fs0,248(sp)
    ad1a:	4320                	lw	s0,64(a4)
    ad1c:	3a65646f          	jal	s0,610c2 <_data_lma+0x547d6>
    ad20:	2520                	lbu	s0,10(a0)
    ad22:	0d64                	addi	s1,sp,668
    ad24:	000a                	c.slli	zero,0x2
    ad26:	0000                	unimp
    ad28:	0a0d                	addi	s4,s4,3
    ad2a:	2d2d                	jal	b364 <_read+0xc1e>
    ad2c:	202d                	jal	ad56 <_read+0x610>
    ad2e:	72617453          	0x72617453
    ad32:	6974                	flw	fa3,84(a0)
    ad34:	676e                	flw	fa4,216(sp)
    ad36:	6e20                	flw	fs0,88(a2)
    ad38:	7765                	lui	a4,0xffff9
    ad3a:	6320                	flw	fs0,64(a4)
    ad3c:	7261                	lui	tp,0xffff8
    ad3e:	2064                	lbu	s1,6(s0)
    ad40:	6e69                	lui	t3,0x1a
    ad42:	7469                	lui	s0,0xffffa
    ad44:	6169                	addi	sp,sp,208
    ad46:	696c                	flw	fa1,84(a0)
    ad48:	617a                	flw	ft2,156(sp)
    ad4a:	6974                	flw	fa3,84(a0)
    ad4c:	2d206e6f          	jal	t3,1101e <_data_lma+0x4732>
    ad50:	2d2d                	jal	b38a <_read+0xc44>
    ad52:	0a0d                	addi	s4,s4,3
    ad54:	0000                	unimp
    ad56:	0000                	unimp
    ad58:	6154                	flw	fa3,4(a0)
    ad5a:	6772                	flw	fa4,28(sp)
    ad5c:	7465                	lui	s0,0xffff9
    ad5e:	5520                	lw	s0,104(a0)
    ad60:	4449                	li	s0,18
    ad62:	203a                	lhu	a4,2(s0)
    ad64:	3025                	jal	a58c <__fixdfsi+0x24>
    ad66:	5832                	lw	a6,44(sp)
    ad68:	252d                	jal	b392 <_read+0xc4c>
    ad6a:	3230                	lbu	a2,3(a2)
    ad6c:	2d58                	lbu	a4,28(a0)
    ad6e:	3025                	jal	a596 <__fixdfsi+0x2e>
    ad70:	5832                	lw	a6,44(sp)
    ad72:	252d                	jal	b39c <_read+0xc56>
    ad74:	3230                	lbu	a2,3(a2)
    ad76:	0d58                	addi	a4,sp,660
    ad78:	000a                	c.slli	zero,0x2
    ad7a:	0000                	unimp
    ad7c:	6e41                	lui	t3,0x10
    ad7e:	6974                	flw	fa3,84(a0)
    ad80:	632d                	lui	t1,0xb
    ad82:	696c6c6f          	jal	s8,d1418 <_data_lma+0xc4b2c>
    ad86:	6e6f6973          	csrrsi	s2,0x6e6,30
    ad8a:	6620                	flw	fs0,72(a2)
    ad8c:	6961                	lui	s2,0x18
    ad8e:	656c                	flw	fa1,76(a0)
    ad90:	0d64                	addi	s1,sp,668
    ad92:	000a                	c.slli	zero,0x2
    ad94:	6142                	flw	ft2,16(sp)
    ad96:	616c                	flw	fa1,68(a0)
    ad98:	636e                	flw	ft6,216(sp)
    ad9a:	2065                	jal	ae42 <_read+0x6fc>
    ad9c:	6e69                	lui	t3,0x1a
    ad9e:	7469                	lui	s0,0xffffa
    ada0:	6169                	addi	sp,sp,208
    ada2:	696c                	flw	fa1,84(a0)
    ada4:	657a                	flw	fa0,156(sp)
    ada6:	3a64                	lbu	s1,23(a2)
    ada8:	2520                	lbu	s0,10(a0)
    adaa:	2064                	lbu	s1,6(s0)
    adac:	7579                	lui	a0,0xffffe
    adae:	6e61                	lui	t3,0x18
    adb0:	0a0d                	addi	s4,s4,3
    adb2:	0000                	unimp
    adb4:	6142                	flw	ft2,16(sp)
    adb6:	616c                	flw	fa1,68(a0)
    adb8:	636e                	flw	ft6,216(sp)
    adba:	2065                	jal	ae62 <_read+0x71c>
    adbc:	74697277          	0x74697277
    adc0:	2065                	jal	ae68 <_read+0x722>
    adc2:	6166                	flw	ft2,88(sp)
    adc4:	6c69                	lui	s8,0x1a
    adc6:	6465                	lui	s0,0x19
    adc8:	0d21                	addi	s10,s10,8
    adca:	000a                	c.slli	zero,0x2
    adcc:	64726143          	0x64726143
    add0:	6920                	flw	fs0,80(a0)
    add2:	696e                	flw	fs2,216(sp)
    add4:	6974                	flw	fa3,84(a0)
    add6:	6c61                	lui	s8,0x18
    add8:	7a69                	lui	s4,0xffffa
    adda:	7461                	lui	s0,0xffff8
    addc:	6f69                	lui	t5,0x1a
    adde:	206e                	lhu	a1,6(s0)
    ade0:	706d6f63          	bltu	s10,t1,b4fe <_read+0xdb8>
    ade4:	656c                	flw	fa1,76(a0)
    ade6:	6574                	flw	fa3,76(a0)
    ade8:	0d21                	addi	s10,s10,8
    adea:	000a                	c.slli	zero,0x2
    adec:	74636553          	0x74636553
    adf0:	3520726f          	jal	tp,12142 <_data_lma+0x5856>
    adf4:	6120                	flw	fs0,64(a0)
    adf6:	7475                	lui	s0,0xffffd
    adf8:	6568                	flw	fa0,76(a0)
    adfa:	746e                	flw	fs0,248(sp)
    adfc:	6369                	lui	t1,0x1a
    adfe:	7461                	lui	s0,0xffff8
    ae00:	6f69                	lui	t5,0x1a
    ae02:	206e                	lhu	a1,6(s0)
    ae04:	6166                	flw	ft2,88(sp)
    ae06:	6c69                	lui	s8,0x1a
    ae08:	6465                	lui	s0,0x19
    ae0a:	0d21                	addi	s10,s10,8
    ae0c:	000a                	c.slli	zero,0x2
    ae0e:	0000                	unimp
    ae10:	64726143          	0x64726143
    ae14:	7320                	flw	fs0,96(a4)
    ae16:	6c65                	lui	s8,0x19
    ae18:	6365                	lui	t1,0x19
    ae1a:	6974                	flw	fa3,84(a0)
    ae1c:	66206e6f          	jal	t3,1147e <_data_lma+0x4b92>
    ae20:	6961                	lui	s2,0x18
    ae22:	656c                	flw	fa1,76(a0)
    ae24:	0d64                	addi	s1,sp,668
    ae26:	000a                	c.slli	zero,0x2
    ae28:	6552                	flw	fa0,20(sp)
    ae2a:	7571                	lui	a0,0xffffc
    ae2c:	7365                	lui	t1,0xffff9
    ae2e:	2074                	lbu	a3,6(s0)
    ae30:	6166                	flw	ft2,88(sp)
    ae32:	6c69                	lui	s8,0x1a
    ae34:	6465                	lui	s0,0x19
    ae36:	202c                	lbu	a1,2(s0)
    ae38:	6e6e6163          	bltu	t3,t1,b51a <_read+0xdd4>
    ae3c:	6920746f          	jal	s0,124ce <_data_lma+0x5be2>
    ae40:	696e                	flw	fs2,216(sp)
    ae42:	6974                	flw	fa3,84(a0)
    ae44:	6c61                	lui	s8,0x18
    ae46:	7a69                	lui	s4,0xffffa
    ae48:	0d65                	addi	s10,s10,25
    ae4a:	000a                	c.slli	zero,0x2
    ae4c:	6f70                	flw	fa2,92(a4)
    ae4e:	69746973          	csrrsi	s2,0x697,8
    ae52:	00006e6f          	jal	t3,10e52 <_data_lma+0x4566>
    ae56:	0000                	unimp
    ae58:	616c                	flw	fa1,68(a0)
    ae5a:	6562                	flw	fa0,24(sp)
    ae5c:	006c                	addi	a1,sp,12
    ae5e:	0000                	unimp
    ae60:	6f74                	flw	fa3,92(a4)
    ae62:	5f70                	lw	a2,124(a4)
    ae64:	656c                	flw	fa1,76(a0)
    ae66:	7466                	flw	fs0,120(sp)
    ae68:	0000                	unimp
    ae6a:	0000                	unimp
    ae6c:	6f74                	flw	fa3,92(a4)
    ae6e:	5f70                	lw	a2,124(a4)
    ae70:	6972                	flw	fs2,28(sp)
    ae72:	00746867          	0x746867
    ae76:	0000                	unimp
    ae78:	6f62                	flw	ft10,24(sp)
    ae7a:	7474                	flw	fa3,108(s0)
    ae7c:	6c5f6d6f          	jal	s10,101d40 <_data_lma+0xf5454>
    ae80:	6665                	lui	a2,0x19
    ae82:	0074                	addi	a3,sp,12
    ae84:	6f62                	flw	ft10,24(sp)
    ae86:	7474                	flw	fa3,108(s0)
    ae88:	725f6d6f          	jal	s10,101dac <_data_lma+0xf54c0>
    ae8c:	6769                	lui	a4,0x1a
    ae8e:	7468                	flw	fa0,108(s0)
    ae90:	0000                	unimp
    ae92:	0000                	unimp
    ae94:	666e6f63          	bltu	t3,t1,b512 <_read+0xdcc>
    ae98:	6469                	lui	s0,0x1a
    ae9a:	6e65                	lui	t3,0x19
    ae9c:	00006563          	bltu	zero,zero,aea6 <_read+0x760>
    aea0:	4f534a5b          	0x4f534a5b
    aea4:	5d4e                	lw	s10,240(sp)
    aea6:	e520                	fsw	fs0,72(a0)
    aea8:	b38d                	j	ac0a <_read+0x4c4>
    aeaa:	b0e5                	j	a792 <_read+0x4c>
    aeac:	e886                	fsw	ft1,80(sp)
    aeae:	beae                	sh	a1,58(a3)
    aeb0:	e6aebde7          	0xe6aebde7
    aeb4:	97e9b697          	auipc	a3,0x97e9b
    aeb8:	e6b4                	fsw	fa3,72(a3)
    aeba:	b388                	sb	a0,1(a5)
    aebc:	202c                	lbu	a1,2(s0)
    aebe:	3d737973          	csrrci	s2,0x3d7,6
    aec2:	6c25                	lui	s8,0x9
    aec4:	0d75                	addi	s10,s10,29
    aec6:	000a                	c.slli	zero,0x2
    aec8:	4f534a5b          	0x4f534a5b
    aecc:	5d4e                	lw	s10,240(sp)
    aece:	6320                	flw	fs0,64(a4)
    aed0:	2568                	lbu	a0,14(a0)
    aed2:	3d64                	lbu	s1,31(a0)
    aed4:	7325                	lui	t1,0xfffe9
    aed6:	0a0d                	addi	s4,s4,3
    aed8:	0000                	unimp
    aeda:	0000                	unimp
    aedc:	2020                	lbu	s0,2(s0)
    aede:	2020                	lbu	s0,2(s0)
    aee0:	e520                	fsw	fs0,72(a0)
    aee2:	80e99b9b          	0x80e99b9b
    aee6:	e99a                	fsw	ft6,208(sp)
    aee8:	9381                	srli	a5,a5,0x20
    aeea:	e9b0a7e7          	0xe9b0a7e7
    aeee:	2b208d87          	0x2b208d87
    aef2:	4b20                	lw	s0,80(a4)
    aef4:	3332                	lhu	a2,34(a4)
    aef6:	e430                	fsw	fa2,72(s0)
    aef8:	8dbd                	xor	a1,a1,a5
    aefa:	e8aebde7          	0xe8aebde7
    aefe:	88e586af          	0x88e586af
    af02:	b98ce5ab          	0xb98ce5ab
    af06:	85e9                	srai	a1,a1,0x1a
    af08:	e78d                	bnez	a5,af32 <_read+0x7ec>
    af0a:	bbe7bbb3          	0xbbe7bbb3
    af0e:	209f 3456 302e      	0x302e3456209f
    af14:	2020                	lbu	s0,2(s0)
    af16:	2020                	lbu	s0,2(s0)
    af18:	2020                	lbu	s0,2(s0)
    af1a:	2020                	lbu	s0,2(s0)
    af1c:	2020                	lbu	s0,2(s0)
    af1e:	2020                	lbu	s0,2(s0)
    af20:	000d                	c.nop	3
    af22:	0000                	unimp
    af24:	2020                	lbu	s0,2(s0)
    af26:	2020                	lbu	s0,2(s0)
    af28:	4d20                	lw	s0,88(a0)
    af2a:	203a5543          	fmadd.s	fa0,fs4,ft3,ft4,unknown
    af2e:	32334843          	fmadd.d	fa6,ft6,ft3,ft6,rmm
    af32:	3356                	lhu	a3,36(a4)
    af34:	3730                	lbu	a2,11(a4)
    af36:	2020                	lbu	s0,2(s0)
    af38:	97e6                	add	a5,a5,s9
    af3a:	e9b6                	fsw	fa3,208(sp)
    af3c:	9f92                	add	t6,t6,tp
    af3e:	203a                	lhu	a4,2(s0)
    af40:	6425                	lui	s0,0x9
    af42:	484d                	li	a6,19
    af44:	207a                	lhu	a4,6(s0)
    af46:	2020                	lbu	s0,2(s0)
    af48:	2020                	lbu	s0,2(s0)
    af4a:	2020                	lbu	s0,2(s0)
    af4c:	2020                	lbu	s0,2(s0)
    af4e:	2020                	lbu	s0,2(s0)
    af50:	2020                	lbu	s0,2(s0)
    af52:	2020                	lbu	s0,2(s0)
    af54:	2020                	lbu	s0,2(s0)
    af56:	2020                	lbu	s0,2(s0)
    af58:	2020                	lbu	s0,2(s0)
    af5a:	2020                	lbu	s0,2(s0)
    af5c:	0d20                	addi	s0,sp,664
    af5e:	000a                	c.slli	zero,0x2
    af60:	2020                	lbu	s0,2(s0)
    af62:	80e9                	srli	s1,s1,0x1a
    af64:	e99a                	fsw	ft6,208(sp)
    af66:	9381                	srli	a5,a5,0x20
    af68:	98e6                	add	a7,a7,s9
    af6a:	e5a0                	fsw	fs0,72(a1)
    af6c:	84b0                	lhu	a2,24(sp)
    af6e:	203a                	lhu	a4,2(s0)
    af70:	2020                	lbu	s0,2(s0)
    af72:	2020                	lbu	s0,2(s0)
    af74:	2020                	lbu	s0,2(s0)
    af76:	2020                	lbu	s0,2(s0)
    af78:	2020                	lbu	s0,2(s0)
    af7a:	2020                	lbu	s0,2(s0)
    af7c:	2020                	lbu	s0,2(s0)
    af7e:	2020                	lbu	s0,2(s0)
    af80:	2020                	lbu	s0,2(s0)
    af82:	2020                	lbu	s0,2(s0)
    af84:	2020                	lbu	s0,2(s0)
    af86:	2020                	lbu	s0,2(s0)
    af88:	2020                	lbu	s0,2(s0)
    af8a:	2020                	lbu	s0,2(s0)
    af8c:	2020                	lbu	s0,2(s0)
    af8e:	2020                	lbu	s0,2(s0)
    af90:	2020                	lbu	s0,2(s0)
    af92:	2020                	lbu	s0,2(s0)
    af94:	2020                	lbu	s0,2(s0)
    af96:	2020                	lbu	s0,2(s0)
    af98:	2020                	lbu	s0,2(s0)
    af9a:	2020                	lbu	s0,2(s0)
    af9c:	0d20                	addi	s0,sp,664
    af9e:	0000                	unimp
    afa0:	2020                	lbu	s0,2(s0)
    afa2:	2020                	lbu	s0,2(s0)
    afa4:	80e9                	srli	s1,s1,0x1a
    afa6:	e99a                	fsw	ft6,208(sp)
    afa8:	9381                	srli	a5,a5,0x20
    afaa:	2031                	jal	afb6 <_read+0x870>
    afac:	2d3c                	lbu	a5,26(a0)
    afae:	203e                	lhu	a5,2(s0)
    afb0:	6f74                	flw	fa3,92(a4)
    afb2:	5f70                	lw	a2,124(a4)
    afb4:	656c                	flw	fa1,76(a0)
    afb6:	7466                	flw	fs0,120(sp)
    afb8:	2820                	lbu	s0,18(s0)
    afba:	b7e5                	j	afa2 <_read+0x85c>
    afbc:	e4a6                	fsw	fs1,72(sp)
    afbe:	8ab8                	0x8ab8
    afc0:	2029                	jal	afca <_read+0x884>
    afc2:	2020                	lbu	s0,2(s0)
    afc4:	2020                	lbu	s0,2(s0)
    afc6:	2020                	lbu	s0,2(s0)
    afc8:	2020                	lbu	s0,2(s0)
    afca:	2020                	lbu	s0,2(s0)
    afcc:	2020                	lbu	s0,2(s0)
    afce:	2020                	lbu	s0,2(s0)
    afd0:	2020                	lbu	s0,2(s0)
    afd2:	2020                	lbu	s0,2(s0)
    afd4:	2020                	lbu	s0,2(s0)
    afd6:	2020                	lbu	s0,2(s0)
    afd8:	2020                	lbu	s0,2(s0)
    afda:	2020                	lbu	s0,2(s0)
    afdc:	0d20                	addi	s0,sp,664
    afde:	0000                	unimp
    afe0:	2020                	lbu	s0,2(s0)
    afe2:	2020                	lbu	s0,2(s0)
    afe4:	80e9                	srli	s1,s1,0x1a
    afe6:	e99a                	fsw	ft6,208(sp)
    afe8:	9381                	srli	a5,a5,0x20
    afea:	2032                	lhu	a2,2(s0)
    afec:	2d3c                	lbu	a5,26(a0)
    afee:	203e                	lhu	a5,2(s0)
    aff0:	6f74                	flw	fa3,92(a4)
    aff2:	5f70                	lw	a2,124(a4)
    aff4:	6972                	flw	fs2,28(sp)
    aff6:	20746867          	0x20746867
    affa:	e528                	fsw	fa0,72(a0)
    affc:	b8e4b38f          	0xb8e4b38f
    b000:	298a                	lhu	a0,16(a1)
    b002:	2020                	lbu	s0,2(s0)
    b004:	2020                	lbu	s0,2(s0)
    b006:	2020                	lbu	s0,2(s0)
    b008:	2020                	lbu	s0,2(s0)
    b00a:	2020                	lbu	s0,2(s0)
    b00c:	2020                	lbu	s0,2(s0)
    b00e:	2020                	lbu	s0,2(s0)
    b010:	2020                	lbu	s0,2(s0)
    b012:	2020                	lbu	s0,2(s0)
    b014:	2020                	lbu	s0,2(s0)
    b016:	2020                	lbu	s0,2(s0)
    b018:	2020                	lbu	s0,2(s0)
    b01a:	2020                	lbu	s0,2(s0)
    b01c:	0d20                	addi	s0,sp,664
    b01e:	0000                	unimp
    b020:	2020                	lbu	s0,2(s0)
    b022:	2020                	lbu	s0,2(s0)
    b024:	80e9                	srli	s1,s1,0x1a
    b026:	e99a                	fsw	ft6,208(sp)
    b028:	9381                	srli	a5,a5,0x20
    b02a:	2d3c2033          	0x2d3c2033
    b02e:	203e                	lhu	a5,2(s0)
    b030:	6f62                	flw	ft10,24(sp)
    b032:	7474                	flw	fa3,108(s0)
    b034:	6c5f6d6f          	jal	s10,101ef8 <_data_lma+0xf560c>
    b038:	6665                	lui	a2,0x19
    b03a:	2074                	lbu	a3,6(s0)
    b03c:	e528                	fsw	fa0,72(a0)
    b03e:	b8e4a6b7          	lui	a3,0xb8e4a
    b042:	2020298b          	0x2020298b
    b046:	2020                	lbu	s0,2(s0)
    b048:	2020                	lbu	s0,2(s0)
    b04a:	2020                	lbu	s0,2(s0)
    b04c:	2020                	lbu	s0,2(s0)
    b04e:	2020                	lbu	s0,2(s0)
    b050:	2020                	lbu	s0,2(s0)
    b052:	2020                	lbu	s0,2(s0)
    b054:	2020                	lbu	s0,2(s0)
    b056:	2020                	lbu	s0,2(s0)
    b058:	2020                	lbu	s0,2(s0)
    b05a:	2020                	lbu	s0,2(s0)
    b05c:	0d20                	addi	s0,sp,664
    b05e:	0000                	unimp
    b060:	2020                	lbu	s0,2(s0)
    b062:	2020                	lbu	s0,2(s0)
    b064:	80e9                	srli	s1,s1,0x1a
    b066:	e99a                	fsw	ft6,208(sp)
    b068:	9381                	srli	a5,a5,0x20
    b06a:	2034                	lbu	a3,2(s0)
    b06c:	2d3c                	lbu	a5,26(a0)
    b06e:	203e                	lhu	a5,2(s0)
    b070:	6f62                	flw	ft10,24(sp)
    b072:	7474                	flw	fa3,108(s0)
    b074:	725f6d6f          	jal	s10,101f98 <_data_lma+0xf56ac>
    b078:	6769                	lui	a4,0x1a
    b07a:	7468                	flw	fa0,108(s0)
    b07c:	2820                	lbu	s0,18(s0)
    b07e:	8fe5                	and	a5,a5,s1
    b080:	8bb8e4b3          	0x8bb8e4b3
    b084:	2029                	jal	b08e <_read+0x948>
    b086:	2020                	lbu	s0,2(s0)
    b088:	2020                	lbu	s0,2(s0)
    b08a:	2020                	lbu	s0,2(s0)
    b08c:	2020                	lbu	s0,2(s0)
    b08e:	2020                	lbu	s0,2(s0)
    b090:	2020                	lbu	s0,2(s0)
    b092:	2020                	lbu	s0,2(s0)
    b094:	2020                	lbu	s0,2(s0)
    b096:	2020                	lbu	s0,2(s0)
    b098:	2020                	lbu	s0,2(s0)
    b09a:	2020                	lbu	s0,2(s0)
    b09c:	0d20                	addi	s0,sp,664
    b09e:	0000                	unimp
    b0a0:	9ce2                	add	s9,s9,s8
    b0a2:	9ce20093          	addi	ra,tp,-1586 # ffff79ce <_eusrstack+0xdffef9ce>
    b0a6:	3d3d0097          	auipc	ra,0x3d3d0
    b0aa:	3d3d                	jal	aee8 <_read+0x7a2>
    b0ac:	3d3d                	jal	aeea <_read+0x7a4>
    b0ae:	3d3d                	jal	aeec <_read+0x7a6>
    b0b0:	3d3d                	jal	aeee <_read+0x7a8>
    b0b2:	3d3d                	jal	aef0 <_read+0x7aa>
    b0b4:	3d3d                	jal	aef2 <_read+0x7ac>
    b0b6:	3d3d                	jal	aef4 <_read+0x7ae>
    b0b8:	3d3d                	jal	aef6 <_read+0x7b0>
    b0ba:	3d3d                	jal	aef8 <_read+0x7b2>
    b0bc:	3d3d                	jal	aefa <_read+0x7b4>
    b0be:	3d3d                	jal	aefc <_read+0x7b6>
    b0c0:	3d3d                	jal	aefe <_read+0x7b8>
    b0c2:	3d3d                	jal	af00 <_read+0x7ba>
    b0c4:	3d3d                	jal	af02 <_read+0x7bc>
    b0c6:	3d3d                	jal	af04 <_read+0x7be>
    b0c8:	3d3d                	jal	af06 <_read+0x7c0>
    b0ca:	3d3d                	jal	af08 <_read+0x7c2>
    b0cc:	3d3d                	jal	af0a <_read+0x7c4>
    b0ce:	3d3d                	jal	af0c <_read+0x7c6>
    b0d0:	3d3d                	jal	af0e <_read+0x7c8>
    b0d2:	3d3d                	jal	af10 <_read+0x7ca>
    b0d4:	3d3d                	jal	af12 <_read+0x7cc>
    b0d6:	3d3d                	jal	af14 <_read+0x7ce>
    b0d8:	3d3d                	jal	af16 <_read+0x7d0>
    b0da:	3d3d                	jal	af18 <_read+0x7d2>
    b0dc:	3d3d                	jal	af1a <_read+0x7d4>
    b0de:	3d3d                	jal	af1c <_read+0x7d6>
    b0e0:	3d3d                	jal	af1e <_read+0x7d8>
    b0e2:	3d3d                	jal	af20 <_read+0x7da>
    b0e4:	3d3d                	jal	af22 <_read+0x7dc>
    b0e6:	3d3d                	jal	af24 <_read+0x7de>
    b0e8:	3d3d                	jal	af26 <_read+0x7e0>
    b0ea:	3d3d                	jal	af28 <_read+0x7e2>
    b0ec:	3d3d                	jal	af2a <_read+0x7e4>
    b0ee:	3d3d                	jal	af2c <_read+0x7e6>
    b0f0:	3d3d                	jal	af2e <_read+0x7e8>
    b0f2:	3d3d                	jal	af30 <_read+0x7ea>
    b0f4:	0d3d                	addi	s10,s10,15
    b0f6:	0000                	unimp
    b0f8:	2020                	lbu	s0,2(s0)
    b0fa:	2020                	lbu	s0,2(s0)
    b0fc:	2020                	lbu	s0,2(s0)
    b0fe:	2020                	lbu	s0,2(s0)
    b100:	2020                	lbu	s0,2(s0)
    b102:	2020                	lbu	s0,2(s0)
    b104:	2020                	lbu	s0,2(s0)
    b106:	2020                	lbu	s0,2(s0)
    b108:	2020                	lbu	s0,2(s0)
    b10a:	2020                	lbu	s0,2(s0)
    b10c:	2020                	lbu	s0,2(s0)
    b10e:	2020                	lbu	s0,2(s0)
    b110:	e720                	fsw	fs0,72(a4)
    b112:	a989                	j	b564 <_read+0xe1e>
    b114:	93e5                	srli	a5,a5,0x39
    b116:	e881                	bnez	s1,b126 <_read+0x9e0>
    b118:	88e586af          	0x88e586af
    b11c:	8eb8e4ab          	0x8eb8e4ab
    b120:	e9b0a7e7          	0xe9b0a7e7
    b124:	95e68d87          	0x95e68d87
    b128:	e6b0                	fsw	fa2,72(a3)
    b12a:	ae8d                	j	b49c <_read+0xd56>
    b12c:	90e5                	srli	s1,s1,0x39
    b12e:	e588                	fsw	fa0,8(a1)
    b130:	b6b9                	j	ac7e <_read+0x538>
    b132:	2020                	lbu	s0,2(s0)
    b134:	2020                	lbu	s0,2(s0)
    b136:	2020                	lbu	s0,2(s0)
    b138:	2020                	lbu	s0,2(s0)
    b13a:	2020                	lbu	s0,2(s0)
    b13c:	2020                	lbu	s0,2(s0)
    b13e:	2020                	lbu	s0,2(s0)
    b140:	2020                	lbu	s0,2(s0)
    b142:	2020                	lbu	s0,2(s0)
    b144:	2020                	lbu	s0,2(s0)
    b146:	2020                	lbu	s0,2(s0)
    b148:	2020                	lbu	s0,2(s0)
    b14a:	2020                	lbu	s0,2(s0)
    b14c:	2020                	lbu	s0,2(s0)
    b14e:	2020                	lbu	s0,2(s0)
    b150:	000d                	c.nop	3
    b152:	0000                	unimp
    b154:	2d2d                	jal	b78e <_read+0x1048>
    b156:	2d2d                	jal	b790 <_read+0x104a>
    b158:	2d2d                	jal	b792 <_read+0x104c>
    b15a:	2d2d                	jal	b794 <_read+0x104e>
    b15c:	2d2d                	jal	b796 <_read+0x1050>
    b15e:	2d2d                	jal	b798 <_read+0x1052>
    b160:	2d2d                	jal	b79a <_read+0x1054>
    b162:	2d2d                	jal	b79c <_read+0x1056>
    b164:	2d2d                	jal	b79e <_read+0x1058>
    b166:	2d2d                	jal	b7a0 <_read+0x105a>
    b168:	2d2d                	jal	b7a2 <_read+0x105c>
    b16a:	2d2d                	jal	b7a4 <_read+0x105e>
    b16c:	2d2d                	jal	b7a6 <_read+0x1060>
    b16e:	2d2d                	jal	b7a8 <_read+0x1062>
    b170:	2d2d                	jal	b7aa <_read+0x1064>
    b172:	2d2d                	jal	b7ac <_read+0x1066>
    b174:	2d2d                	jal	b7ae <_read+0x1068>
    b176:	2d2d                	jal	b7b0 <_read+0x106a>
    b178:	2d2d                	jal	b7b2 <_read+0x106c>
    b17a:	2d2d                	jal	b7b4 <_read+0x106e>
    b17c:	2d2d                	jal	b7b6 <_read+0x1070>
    b17e:	2d2d                	jal	b7b8 <_read+0x1072>
    b180:	2d2d                	jal	b7ba <_read+0x1074>
    b182:	2d2d                	jal	b7bc <_read+0x1076>
    b184:	2d2d                	jal	b7be <_read+0x1078>
    b186:	2d2d                	jal	b7c0 <_read+0x107a>
    b188:	2d2d                	jal	b7c2 <_read+0x107c>
    b18a:	2d2d                	jal	b7c4 <_read+0x107e>
    b18c:	2d2d                	jal	b7c6 <_read+0x1080>
    b18e:	2d2d                	jal	b7c8 <_read+0x1082>
    b190:	2d2d                	jal	b7ca <_read+0x1084>
    b192:	2d2d                	jal	b7cc <_read+0x1086>
    b194:	2d2d                	jal	b7ce <_read+0x1088>
    b196:	2d2d                	jal	b7d0 <_read+0x108a>
    b198:	2d2d                	jal	b7d2 <_read+0x108c>
    b19a:	2d2d                	jal	b7d4 <_read+0x108e>
    b19c:	2d2d                	jal	b7d6 <_read+0x1090>
    b19e:	2d2d                	jal	b7d8 <_read+0x1092>
    b1a0:	0d2d                	addi	s10,s10,11
    b1a2:	0000                	unimp
    b1a4:	2020                	lbu	s0,2(s0)
    b1a6:	bde4                	sb	s1,31(a1)
    b1a8:	e78d                	bnez	a5,b1d2 <_read+0xa8c>
    b1aa:	aebd                	j	b528 <_read+0xde2>
    b1ac:	2020                	lbu	s0,2(s0)
    b1ae:	2020                	lbu	s0,2(s0)
    b1b0:	2020                	lbu	s0,2(s0)
    b1b2:	2020                	lbu	s0,2(s0)
    b1b4:	7c20                	flw	fs0,120(s0)
    b1b6:	e720                	fsw	fs0,72(a4)
    b1b8:	a989                	j	b60a <_read+0xec4>
    b1ba:	93e5                	srli	a5,a5,0x39
    b1bc:	e581                	bnez	a1,b1c4 <_read+0xa7e>
    b1be:	8d90                	0x8d90
    b1c0:	20b0a7e7          	0x20b0a7e7
    b1c4:	2020                	lbu	s0,2(s0)
    b1c6:	2020                	lbu	s0,2(s0)
    b1c8:	2020                	lbu	s0,2(s0)
    b1ca:	7c20                	flw	fs0,120(s0)
    b1cc:	e720                	fsw	fs0,72(a4)
    b1ce:	aebd                	j	b54c <_read+0xe06>
    b1d0:	bfe4                	sb	s1,31(a5)
    b1d2:	e5a1                	bnez	a1,b21a <_read+0xad4>
    b1d4:	a6ba                	sh	a4,10(a3)
    b1d6:	2020                	lbu	s0,2(s0)
    b1d8:	7c20                	flw	fs0,120(s0)
    b1da:	e920                	fsw	fs0,80(a0)
    b1dc:	87e98d87          	0x87e98d87
    b1e0:	2967288f          	0x2967288f
    b1e4:	2020                	lbu	s0,2(s0)
    b1e6:	7c20                	flw	fs0,120(s0)
    b1e8:	e820                	fsw	fs0,80(s0)
    b1ea:	88e586af          	0x88e586af
    b1ee:	207c20ab          	0x207c20ab
    b1f2:	e9b0a7e7          	0xe9b0a7e7
    b1f6:	20208d87          	0x20208d87
    b1fa:	2020                	lbu	s0,2(s0)
    b1fc:	2020                	lbu	s0,2(s0)
    b1fe:	2020                	lbu	s0,2(s0)
    b200:	000d                	c.nop	3
    b202:	0000                	unimp
    b204:	2d2d                	jal	b83e <_read+0x10f8>
    b206:	2d2d                	jal	b840 <_read+0x10fa>
    b208:	2d2d                	jal	b842 <_read+0x10fc>
    b20a:	2d2d                	jal	b844 <_read+0x10fe>
    b20c:	2d2d                	jal	b846 <_read+0x1100>
    b20e:	2d2d                	jal	b848 <_read+0x1102>
    b210:	2d2d                	jal	b84a <_read+0x1104>
    b212:	7c2d                	lui	s8,0xfffeb
    b214:	2d2d                	jal	b84e <_read+0x1108>
    b216:	2d2d                	jal	b850 <_read+0x110a>
    b218:	2d2d                	jal	b852 <_read+0x110c>
    b21a:	2d2d                	jal	b854 <_read+0x110e>
    b21c:	2d2d                	jal	b856 <_read+0x1110>
    b21e:	2d2d                	jal	b858 <_read+0x1112>
    b220:	2d2d                	jal	b85a <_read+0x1114>
    b222:	2d2d                	jal	b85c <_read+0x1116>
    b224:	7c2d                	lui	s8,0xfffeb
    b226:	2d2d                	jal	b860 <_read+0x111a>
    b228:	2d2d                	jal	b862 <_read+0x111c>
    b22a:	2d2d                	jal	b864 <_read+0x111e>
    b22c:	2d2d                	jal	b866 <_read+0x1120>
    b22e:	2d2d                	jal	b868 <_read+0x1122>
    b230:	2d7c                	lbu	a5,30(a0)
    b232:	2d2d                	jal	b86c <_read+0x1126>
    b234:	2d2d                	jal	b86e <_read+0x1128>
    b236:	2d2d                	jal	b870 <_read+0x112a>
    b238:	2d2d                	jal	b872 <_read+0x112c>
    b23a:	2d2d                	jal	b874 <_read+0x112e>
    b23c:	2d7c                	lbu	a5,30(a0)
    b23e:	2d2d                	jal	b878 <_read+0x1132>
    b240:	2d2d                	jal	b87a <_read+0x1134>
    b242:	7c2d                	lui	s8,0xfffeb
    b244:	2d2d                	jal	b87e <_read+0x1138>
    b246:	2d2d                	jal	b880 <_read+0x113a>
    b248:	2d2d                	jal	b882 <_read+0x113c>
    b24a:	2d2d                	jal	b884 <_read+0x113e>
    b24c:	2d2d                	jal	b886 <_read+0x1140>
    b24e:	2d2d                	jal	b888 <_read+0x1142>
    b250:	0d2d                	addi	s10,s10,11
    b252:	0000                	unimp
    b254:	2520                	lbu	s0,10(a0)
    b256:	312d                	jal	ae80 <_read+0x73a>
    b258:	7c207333          	0x7c207333
    b25c:	2520                	lbu	s0,10(a0)
    b25e:	312d                	jal	ae88 <_read+0x742>
    b260:	7335                	lui	t1,0xfffed
    b262:	7c20                	flw	fs0,120(s0)
    b264:	2520                	lbu	s0,10(a0)
    b266:	322e                	lhu	a1,34(a2)
    b268:	2066                	lhu	s1,6(s0)
    b26a:	2020                	lbu	s0,2(s0)
    b26c:	2020                	lbu	s0,2(s0)
    b26e:	207c                	lbu	a5,6(s0)
    b270:	3825                	jal	aaa8 <_read+0x362>
    b272:	322e                	lhu	a1,34(a2)
    b274:	2066                	lhu	s1,6(s0)
    b276:	207c                	lbu	a5,6(s0)
    b278:	2d25                	jal	b8b0 <_read+0x116a>
    b27a:	7334                	flw	fa3,96(a4)
    b27c:	7c20                	flw	fs0,120(s0)
    b27e:	2520                	lbu	s0,10(a0)
    b280:	342d                	jal	acaa <_read+0x564>
    b282:	000a0d73          	0xa0d73
    b286:	0000                	unimp
    b288:	2020                	lbu	s0,2(s0)
    b28a:	a3e6                	sh	s1,6(a5)
    b28c:	e680                	fsw	fs0,8(a3)
    b28e:	8bb5                	andi	a5,a5,13
    b290:	88e5                	andi	s1,s1,25
    b292:	e7b0                	fsw	fa2,72(a5)
    b294:	a989                	j	b6e6 <_read+0xfa0>
    b296:	93e5                	srli	a5,a5,0x39
    b298:	e681                	bnez	a3,b2a0 <_read+0xb5a>
    b29a:	b095                	j	aafe <_read+0x3b8>
    b29c:	203a                	lhu	a4,2(s0)
    b29e:	6425                	lui	s0,0x9
    b2a0:	2020                	lbu	s0,2(s0)
    b2a2:	207c                	lbu	a5,6(s0)
    b2a4:	e620                	fsw	fs0,72(a2)
    b2a6:	bb80                	sb	s0,17(a5)
    b2a8:	87e9                	srai	a5,a5,0x1a
    b2aa:	e98d                	bnez	a1,b2dc <_read+0xb96>
    b2ac:	203a8f87          	0x203a8f87
    b2b0:	2e25                	jal	b5e8 <_read+0xea2>
    b2b2:	6632                	flw	fa2,12(sp)
    b2b4:	6720                	flw	fs0,72(a4)
    b2b6:	0a0d                	addi	s4,s4,3
    b2b8:	0000                	unimp
    b2ba:	0000                	unimp
    b2bc:	33324b5b          	0x33324b5b
    b2c0:	e530                	fsw	fa2,72(a0)
    b2c2:	9f8e                	add	t6,t6,gp
    b2c4:	a7e5                	j	baac <g_item_map+0x3c>
    b2c6:	00205d8b          	0x205d8b
    b2ca:	0000                	unimp
    b2cc:	6441                	lui	s0,0x10
    b2ce:	696d                	lui	s2,0x1b
    b2d0:	206e                	lhu	a1,6(s0)
    b2d2:	6f6d                	lui	t5,0x1b
    b2d4:	6564                	flw	fs1,76(a0)
    b2d6:	7420                	flw	fs0,104(s0)
    b2d8:	6d69                	lui	s10,0x1a
    b2da:	6f65                	lui	t5,0x19
    b2dc:	7475                	lui	s0,0xffffd
    b2de:	202c                	lbu	a1,2(s0)
    b2e0:	7865                	lui	a6,0xffff9
    b2e2:	7469                	lui	s0,0xffffa
    b2e4:	6e69                	lui	t3,0x1a
    b2e6:	2e2e2e67          	0x2e2e2e67
    b2ea:	0a0d                	addi	s4,s4,3
    b2ec:	0000                	unimp
    b2ee:	0000                	unimp
    b2f0:	0a0d                	addi	s4,s4,3
    b2f2:	64726143          	0x64726143
    b2f6:	6420                	flw	fs0,72(s0)
    b2f8:	7465                	lui	s0,0xffff9
    b2fa:	6365                	lui	t1,0x19
    b2fc:	6574                	flw	fa3,76(a0)
    b2fe:	2c64                	lbu	s1,30(s0)
    b300:	5520                	lw	s0,104(a0)
    b302:	4449                	li	s0,18
    b304:	203a                	lhu	a4,2(s0)
    b306:	3025                	jal	ab2e <_read+0x3e8>
    b308:	5832                	lw	a6,44(sp)
    b30a:	252d                	jal	b934 <_read+0x11ee>
    b30c:	3230                	lbu	a2,3(a2)
    b30e:	2d58                	lbu	a4,28(a0)
    b310:	3025                	jal	ab38 <_read+0x3f2>
    b312:	5832                	lw	a6,44(sp)
    b314:	252d                	jal	b93e <_read+0x11f8>
    b316:	3230                	lbu	a2,3(a2)
    b318:	0d58                	addi	a4,sp,660
    b31a:	000a                	c.slli	zero,0x2
    b31c:	64726143          	0x64726143
    b320:	7320                	flw	fs0,96(a4)
    b322:	6c65                	lui	s8,0x19
    b324:	6365                	lui	t1,0x19
    b326:	6974                	flw	fa3,84(a0)
    b328:	73206e6f          	jal	t3,11a5a <_data_lma+0x516e>
    b32c:	6375                	lui	t1,0x1d
    b32e:	73736563          	bltu	t1,s7,ba58 <_read+0x1312>
    b332:	0a0d                	addi	s4,s4,3
    b334:	0000                	unimp
    b336:	0000                	unimp
    b338:	64726143          	0x64726143
    b33c:	7320                	flw	fs0,96(a4)
    b33e:	6c65                	lui	s8,0x19
    b340:	6365                	lui	t1,0x19
    b342:	6974                	flw	fa3,84(a0)
    b344:	72206e6f          	jal	t3,11a66 <_data_lma+0x517a>
    b348:	7465                	lui	s0,0xffff9
    b34a:	7972                	flw	fs2,60(sp)
    b34c:	2520                	lbu	s0,10(a0)
    b34e:	2f64                	lbu	s1,30(a4)
    b350:	2e2e2e33          	0x2e2e2e33
    b354:	0a0d                	addi	s4,s4,3
    b356:	0000                	unimp
    b358:	6146                	flw	ft2,80(sp)
    b35a:	6c69                	lui	s8,0x1a
    b35c:	6465                	lui	s0,0x19
    b35e:	7420                	flw	fs0,104(s0)
    b360:	6572206f          	j	2e1b6 <_data_lma+0x218ca>
    b364:	6461                	lui	s0,0x18
    b366:	7420                	flw	fs0,104(s0)
    b368:	7261                	lui	tp,0xffff8
    b36a:	20746567          	0x20746567
    b36e:	64726163          	bltu	tp,t2,b9b0 <_read+0x126a>
    b372:	6920                	flw	fs0,80(a0)
    b374:	666e                	flw	fa2,216(sp)
    b376:	0a0d216f          	jal	sp,dd416 <_data_lma+0xd0b2a>
    b37a:	0000                	unimp
    b37c:	0a0d                	addi	s4,s4,3
    b37e:	3e3e                	lhu	a5,58(a2)
    b380:	203e                	lhu	a5,2(s0)
    b382:	6154                	flw	fa3,4(a0)
    b384:	6772                	flw	fa4,28(sp)
    b386:	7465                	lui	s0,0xffff9
    b388:	6320                	flw	fs0,64(a4)
    b38a:	7261                	lui	tp,0xffff8
    b38c:	2064                	lbu	s1,6(s0)
    b38e:	4e28                	lw	a0,88(a2)
    b390:	616d726f          	jal	tp,e29a6 <_data_lma+0xd60ba>
    b394:	206c                	lbu	a1,6(s0)
    b396:	7355                	lui	t1,0xffff5
    b398:	7265                	lui	tp,0xffff9
    b39a:	2029                	jal	b3a4 <_read+0xc5e>
    b39c:	6564                	flw	fs1,76(a0)
    b39e:	6574                	flw	fa3,76(a0)
    b3a0:	64657463          	bgeu	a0,t1,b9e8 <_read+0x12a2>
    b3a4:	2021                	jal	b3ac <_read+0xc66>
    b3a6:	3c3c                	lbu	a5,27(s0)
    b3a8:	0d3c                	addi	a5,sp,664
    b3aa:	000a                	c.slli	zero,0x2
    b3ac:	3e3e                	lhu	a5,58(a2)
    b3ae:	203e                	lhu	a5,2(s0)
    b3b0:	6552                	flw	fa0,20(sp)
    b3b2:	74746573          	csrrsi	a0,0x747,8
    b3b6:	6e69                	lui	t3,0x1a
    b3b8:	61622067          	0x61622067
    b3bc:	616c                	flw	fa1,68(a0)
    b3be:	636e                	flw	ft6,216(sp)
    b3c0:	2065                	jal	b468 <_read+0xd22>
    b3c2:	6f74                	flw	fa3,92(a4)
    b3c4:	6420                	flw	fs0,72(s0)
    b3c6:	6665                	lui	a2,0x19
    b3c8:	7561                	lui	a0,0xffff8
    b3ca:	746c                	flw	fa1,108(s0)
    b3cc:	2e2e                	lhu	a1,26(a2)
    b3ce:	202e                	lhu	a1,2(s0)
    b3d0:	3c3c                	lbu	a5,27(s0)
    b3d2:	0d3c                	addi	a5,sp,664
    b3d4:	000a                	c.slli	zero,0x2
    b3d6:	0000                	unimp
    b3d8:	20646c4f          	fnmadd.s	fs8,fs0,ft6,ft4,unknown
    b3dc:	6162                	flw	ft2,24(sp)
    b3de:	616c                	flw	fa1,68(a0)
    b3e0:	636e                	flw	ft6,216(sp)
    b3e2:	3a65                	jal	ad9a <_read+0x654>
    b3e4:	2520                	lbu	s0,10(a0)
    b3e6:	756c                	flw	fa1,108(a0)
    b3e8:	7920                	flw	fs0,112(a0)
    b3ea:	6175                	addi	sp,sp,368
    b3ec:	0d6e                	slli	s10,s10,0x1b
    b3ee:	000a                	c.slli	zero,0x2
    b3f0:	0a0d                	addi	s4,s4,3
    b3f2:	3d3d                	jal	b230 <_read+0xaea>
    b3f4:	3d3d                	jal	b232 <_read+0xaec>
    b3f6:	3d3d                	jal	b234 <_read+0xaee>
    b3f8:	3d3d                	jal	b236 <_read+0xaf0>
    b3fa:	3d3d                	jal	b238 <_read+0xaf2>
    b3fc:	3d3d                	jal	b23a <_read+0xaf4>
    b3fe:	3d3d                	jal	b23c <_read+0xaf6>
    b400:	3d3d                	jal	b23e <_read+0xaf8>
    b402:	3d3d                	jal	b240 <_read+0xafa>
    b404:	3d3d                	jal	b242 <_read+0xafc>
    b406:	3d3d                	jal	b244 <_read+0xafe>
    b408:	3d3d                	jal	b246 <_read+0xb00>
    b40a:	3d3d                	jal	b248 <_read+0xb02>
    b40c:	3d3d                	jal	b24a <_read+0xb04>
    b40e:	3d3d                	jal	b24c <_read+0xb06>
    b410:	3d3d                	jal	b24e <_read+0xb08>
    b412:	3d3d                	jal	b250 <_read+0xb0a>
    b414:	3d3d                	jal	b252 <_read+0xb0c>
    b416:	3d3d                	jal	b254 <_read+0xb0e>
    b418:	3d3d                	jal	b256 <_read+0xb10>
    b41a:	0a0d                	addi	s4,s4,3
    b41c:	0000                	unimp
    b41e:	0000                	unimp
    b420:	3e3e                	lhu	a5,58(a2)
    b422:	203e                	lhu	a5,2(s0)
    b424:	6552                	flw	fa0,20(sp)
    b426:	72616863          	bltu	sp,t1,bb56 <g_item_map+0xe6>
    b42a:	73206567          	0x73206567
    b42e:	6375                	lui	t1,0x1d
    b430:	73736563          	bltu	t1,s7,bb5a <g_item_map+0xea>
    b434:	7566                	flw	fa0,120(sp)
    b436:	216c                	lbu	a1,6(a0)
    b438:	3c20                	lbu	s0,27(s0)
    b43a:	3c3c                	lbu	a5,27(s0)
    b43c:	0a0d                	addi	s4,s4,3
    b43e:	0000                	unimp
    b440:	2020                	lbu	s0,2(s0)
    b442:	6154                	flw	fa3,4(a0)
    b444:	6772                	flw	fa4,28(sp)
    b446:	7465                	lui	s0,0xffff9
    b448:	6320                	flw	fs0,64(a4)
    b44a:	7261                	lui	tp,0xffff8
    b44c:	2064                	lbu	s1,6(s0)
    b44e:	4955                	li	s2,21
    b450:	3a44                	lbu	s1,21(a2)
    b452:	2520                	lbu	s0,10(a0)
    b454:	3230                	lbu	a2,3(a2)
    b456:	2d58                	lbu	a4,28(a0)
    b458:	3025                	jal	ac80 <_read+0x53a>
    b45a:	5832                	lw	a6,44(sp)
    b45c:	252d                	jal	ba86 <g_item_map+0x16>
    b45e:	3230                	lbu	a2,3(a2)
    b460:	2d58                	lbu	a4,28(a0)
    b462:	3025                	jal	ac8a <_read+0x544>
    b464:	5832                	lw	a6,44(sp)
    b466:	0a0d                	addi	s4,s4,3
    b468:	0000                	unimp
    b46a:	0000                	unimp
    b46c:	2020                	lbu	s0,2(s0)
    b46e:	6142                	flw	ft2,16(sp)
    b470:	616c                	flw	fa1,68(a0)
    b472:	636e                	flw	ft6,216(sp)
    b474:	2065                	jal	b51c <_read+0xdd6>
    b476:	6572                	flw	fa0,28(sp)
    b478:	20746573          	csrrsi	a0,0x207,8
    b47c:	6f74                	flw	fa3,92(a4)
    b47e:	203a                	lhu	a4,2(s0)
    b480:	6425                	lui	s0,0x9
    b482:	252e                	lhu	a1,10(a0)
    b484:	3230                	lbu	a2,3(a2)
    b486:	2064                	lbu	s1,6(s0)
    b488:	7579                	lui	a0,0xffffe
    b48a:	6e61                	lui	t3,0x18
    b48c:	0a0d                	addi	s4,s4,3
    b48e:	0000                	unimp
    b490:	2020                	lbu	s0,2(s0)
    b492:	654e                	flw	fa0,208(sp)
    b494:	61622077          	0x61622077
    b498:	616c                	flw	fa1,68(a0)
    b49a:	636e                	flw	ft6,216(sp)
    b49c:	3a65                	jal	ae54 <_read+0x70e>
    b49e:	2520                	lbu	s0,10(a0)
    b4a0:	756c                	flw	fa1,108(a0)
    b4a2:	252e                	lhu	a1,10(a0)
    b4a4:	3230                	lbu	a2,3(a2)
    b4a6:	756c                	flw	fa1,108(a0)
    b4a8:	7920                	flw	fs0,112(a0)
    b4aa:	6175                	addi	sp,sp,368
    b4ac:	0d6e                	slli	s10,s10,0x1b
    b4ae:	000a                	c.slli	zero,0x2
    b4b0:	3d3d                	jal	b2ee <_read+0xba8>
    b4b2:	3d3d                	jal	b2f0 <_read+0xbaa>
    b4b4:	3d3d                	jal	b2f2 <_read+0xbac>
    b4b6:	3d3d                	jal	b2f4 <_read+0xbae>
    b4b8:	3d3d                	jal	b2f6 <_read+0xbb0>
    b4ba:	3d3d                	jal	b2f8 <_read+0xbb2>
    b4bc:	3d3d                	jal	b2fa <_read+0xbb4>
    b4be:	3d3d                	jal	b2fc <_read+0xbb6>
    b4c0:	3d3d                	jal	b2fe <_read+0xbb8>
    b4c2:	3d3d                	jal	b300 <_read+0xbba>
    b4c4:	3d3d                	jal	b302 <_read+0xbbc>
    b4c6:	3d3d                	jal	b304 <_read+0xbbe>
    b4c8:	3d3d                	jal	b306 <_read+0xbc0>
    b4ca:	3d3d                	jal	b308 <_read+0xbc2>
    b4cc:	3d3d                	jal	b30a <_read+0xbc4>
    b4ce:	3d3d                	jal	b30c <_read+0xbc6>
    b4d0:	3d3d                	jal	b30e <_read+0xbc8>
    b4d2:	3d3d                	jal	b310 <_read+0xbca>
    b4d4:	3d3d                	jal	b312 <_read+0xbcc>
    b4d6:	3d3d                	jal	b314 <_read+0xbce>
    b4d8:	0a0d                	addi	s4,s4,3
    b4da:	0000                	unimp
    b4dc:	74697257          	0x74697257
    b4e0:	2065                	jal	b588 <_read+0xe42>
    b4e2:	6162                	flw	ft2,24(sp)
    b4e4:	616c                	flw	fa1,68(a0)
    b4e6:	636e                	flw	ft6,216(sp)
    b4e8:	2065                	jal	b590 <_read+0xe4a>
    b4ea:	6166                	flw	ft2,88(sp)
    b4ec:	6c69                	lui	s8,0x1a
    b4ee:	6465                	lui	s0,0x19
    b4f0:	0d21                	addi	s10,s10,8
    b4f2:	000a                	c.slli	zero,0x2
    b4f4:	6552                	flw	fa0,20(sp)
    b4f6:	6461                	lui	s0,0x18
    b4f8:	6220                	flw	fs0,64(a2)
    b4fa:	6c61                	lui	s8,0x18
    b4fc:	6e61                	lui	t3,0x18
    b4fe:	66206563          	bltu	zero,sp,bb68 <g_item_map+0xf8>
    b502:	6961                	lui	s2,0x18
    b504:	656c                	flw	fa1,76(a0)
    b506:	2164                	lbu	s1,6(a0)
    b508:	0a0d                	addi	s4,s4,3
    b50a:	0000                	unimp
    b50c:	6142                	flw	ft2,16(sp)
    b50e:	616c                	flw	fa1,68(a0)
    b510:	636e                	flw	ft6,216(sp)
    b512:	2065                	jal	b5ba <_read+0xe74>
    b514:	74636573          	csrrsi	a0,0x746,6
    b518:	6120726f          	jal	tp,12b2a <_data_lma+0x623e>
    b51c:	7475                	lui	s0,0xffffd
    b51e:	6568                	flw	fa0,76(a0)
    b520:	746e                	flw	fs0,248(sp)
    b522:	6369                	lui	t1,0x1a
    b524:	7461                	lui	s0,0xffff8
    b526:	6f69                	lui	t5,0x1a
    b528:	206e                	lhu	a1,6(s0)
    b52a:	6166                	flw	ft2,88(sp)
    b52c:	6c69                	lui	s8,0x1a
    b52e:	6465                	lui	s0,0x19
    b530:	0d21                	addi	s10,s10,8
    b532:	000a                	c.slli	zero,0x2
    b534:	6154                	flw	fa3,4(a0)
    b536:	6772                	flw	fa4,28(sp)
    b538:	7465                	lui	s0,0xffff9
    b53a:	6320                	flw	fs0,64(a4)
    b53c:	7261                	lui	tp,0xffff8
    b53e:	2064                	lbu	s1,6(s0)
    b540:	7369                	lui	t1,0xffffa
    b542:	6e20                	flw	fs0,88(a2)
    b544:	6120746f          	jal	s0,12b56 <_data_lma+0x626a>
    b548:	6e20                	flw	fs0,88(a2)
    b54a:	616d726f          	jal	tp,e2b60 <_data_lma+0xd6274>
    b54e:	206c                	lbu	a1,6(s0)
    b550:	7375                	lui	t1,0xffffd
    b552:	7265                	lui	tp,0xffff9
    b554:	6320                	flw	fs0,64(a4)
    b556:	7261                	lui	tp,0xffff8
    b558:	2164                	lbu	s1,6(a0)
    b55a:	4320                	lw	s0,64(a4)
    b55c:	7275                	lui	tp,0xffffd
    b55e:	6572                	flw	fa0,28(sp)
    b560:	746e                	flw	fs0,248(sp)
    b562:	6c20                	flw	fs0,88(s0)
    b564:	7665                	lui	a2,0xffff9
    b566:	6c65                	lui	s8,0x19
    b568:	203a                	lhu	a4,2(s0)
    b56a:	6425                	lui	s0,0x9
    b56c:	0a0d                	addi	s4,s4,3
    b56e:	0000                	unimp
    b570:	0a0d                	addi	s4,s4,3
    b572:	6441                	lui	s0,0x10
    b574:	696d                	lui	s2,0x1b
    b576:	206e                	lhu	a1,6(s0)
    b578:	6f6d                	lui	t5,0x1b
    b57a:	6564                	flw	fs1,76(a0)
    b57c:	6520                	flw	fs0,72(a0)
    b57e:	6978                	flw	fa4,84(a0)
    b580:	6574                	flw	fa3,76(a0)
    b582:	2e64                	lbu	s1,30(a2)
    b584:	0a0d                	addi	s4,s4,3
    b586:	0000                	unimp
    b588:	6552                	flw	fa0,20(sp)
    b58a:	6461                	lui	s0,0x18
    b58c:	7520                	flw	fs0,104(a0)
    b58e:	20726573          	csrrsi	a0,0x207,4
    b592:	6e69                	lui	t3,0x1a
    b594:	6f66                	flw	ft10,88(sp)
    b596:	7220                	flw	fs0,96(a2)
    b598:	7465                	lui	s0,0xffff9
    b59a:	7972                	flw	fs2,60(sp)
    b59c:	2520                	lbu	s0,10(a0)
    b59e:	2f64                	lbu	s1,30(a4)
    b5a0:	2e2e2e33          	0x2e2e2e33
    b5a4:	0a0d                	addi	s4,s4,3
    b5a6:	0000                	unimp
    b5a8:	64726143          	0x64726143
    b5ac:	6e20                	flw	fs0,88(a2)
    b5ae:	6920746f          	jal	s0,12c40 <_data_lma+0x6354>
    b5b2:	696e                	flw	fs2,216(sp)
    b5b4:	6974                	flw	fa3,84(a0)
    b5b6:	6c61                	lui	s8,0x18
    b5b8:	7a69                	lui	s4,0xffffa
    b5ba:	6465                	lui	s0,0x19
    b5bc:	202c                	lbu	a1,2(s0)
    b5be:	72617473          	csrrci	s0,0x726,2
    b5c2:	6974                	flw	fa3,84(a0)
    b5c4:	676e                	flw	fa4,216(sp)
    b5c6:	6920                	flw	fs0,80(a0)
    b5c8:	696e                	flw	fs2,216(sp)
    b5ca:	6974                	flw	fa3,84(a0)
    b5cc:	6c61                	lui	s8,0x18
    b5ce:	7a69                	lui	s4,0xffffa
    b5d0:	7461                	lui	s0,0xffff8
    b5d2:	6f69                	lui	t5,0x1a
    b5d4:	2e6e                	lhu	a1,30(a2)
    b5d6:	2e2e                	lhu	a1,26(a2)
    b5d8:	0a0d                	addi	s4,s4,3
    b5da:	0000                	unimp
    b5dc:	687a                	flw	fa6,156(sp)
    b5de:	6e61                	lui	t3,0x18
    b5e0:	6e617367          	0x6e617367
    b5e4:	0000                	unimp
    b5e6:	0000                	unimp
    b5e8:	6e49                	lui	t3,0x12
    b5ea:	7469                	lui	s0,0xffffa
    b5ec:	6169                	addi	sp,sp,208
    b5ee:	696c                	flw	fa1,84(a0)
    b5f0:	617a                	flw	ft2,156(sp)
    b5f2:	6974                	flw	fa3,84(a0)
    b5f4:	63206e6f          	jal	t3,11c26 <_data_lma+0x533a>
    b5f8:	6c706d6f          	jal	s10,124be <_data_lma+0x5bd2>
    b5fc:	7465                	lui	s0,0xffff9
    b5fe:	2c65                	jal	b8b6 <_read+0x1170>
    b600:	7020                	flw	fs0,96(s0)
    b602:	656c                	flw	fa1,76(a0)
    b604:	7361                	lui	t1,0xffff8
    b606:	2065                	jal	b6ae <_read+0xf68>
    b608:	6c70                	flw	fa2,92(s0)
    b60a:	6361                	lui	t1,0x18
    b60c:	2065                	jal	b6b4 <_read+0xf6e>
    b60e:	6874                	flw	fa3,84(s0)
    b610:	2065                	jal	b6b8 <_read+0xf72>
    b612:	64726163          	bltu	tp,t2,bc54 <g_item_map+0x1e4>
    b616:	6120                	flw	fs0,64(a0)
    b618:	6e696167          	0x6e696167
    b61c:	0a0d                	addi	s4,s4,3
    b61e:	0000                	unimp
    b620:	6170                	flw	fa2,68(a0)
    b622:	43206567          	0x43206567
    b626:	7261                	lui	tp,0xffff8
    b628:	5f64                	lw	s1,124(a4)
    b62a:	6146                	flw	ft2,80(sp)
    b62c:	6c69                	lui	s8,0x1a
    b62e:	0000                	unimp
    b630:	0a0d                	addi	s4,s4,3
    b632:	3e3e                	lhu	a5,58(a2)
    b634:	203e                	lhu	a5,2(s0)
    b636:	6441                	lui	s0,0x10
    b638:	696d                	lui	s2,0x1b
    b63a:	696e                	flw	fs2,216(sp)
    b63c:	61727473          	csrrci	s0,0x617,4
    b640:	6f74                	flw	fa3,92(a4)
    b642:	2072                	lhu	a2,6(s0)
    b644:	64726163          	bltu	tp,t2,bc86 <g_item_map+0x216>
    b648:	6420                	flw	fs0,72(s0)
    b64a:	7465                	lui	s0,0xffff9
    b64c:	6365                	lui	t1,0x19
    b64e:	6574                	flw	fa3,76(a0)
    b650:	2164                	lbu	s1,6(a0)
    b652:	3c20                	lbu	s0,27(s0)
    b654:	3c3c                	lbu	a5,27(s0)
    b656:	0a0d                	addi	s4,s4,3
    b658:	0000                	unimp
    b65a:	0000                	unimp
    b65c:	3e3e                	lhu	a5,58(a2)
    b65e:	203e                	lhu	a5,2(s0)
    b660:	6c50                	flw	fa2,28(s0)
    b662:	6165                	addi	sp,sp,112
    b664:	70206573          	csrrsi	a0,0x702,0
    b668:	616c                	flw	fa1,68(a0)
    b66a:	74206563          	bltu	zero,sp,bdb4 <g_item_map+0x344>
    b66e:	6568                	flw	fa0,76(a0)
    b670:	7420                	flw	fs0,104(s0)
    b672:	7261                	lui	tp,0xffff8
    b674:	20746567          	0x20746567
    b678:	64726163          	bltu	tp,t2,bcba <g_item_map+0x24a>
    b67c:	2820                	lbu	s0,18(s0)
    b67e:	6f4e                	flw	ft10,208(sp)
    b680:	6d72                	flw	fs10,28(sp)
    b682:	6c61                	lui	s8,0x18
    b684:	5520                	lw	s0,104(a0)
    b686:	29726573          	csrrsi	a0,0x297,4
    b68a:	3c20                	lbu	s0,27(s0)
    b68c:	3c3c                	lbu	a5,27(s0)
    b68e:	0a0d                	addi	s4,s4,3
    b690:	0000                	unimp
    b692:	0000                	unimp
    b694:	3e3e                	lhu	a5,58(a2)
    b696:	203e                	lhu	a5,2(s0)
    b698:	74696157          	0x74696157
    b69c:	6e69                	lui	t3,0x1a
    b69e:	6f662067          	0x6f662067
    b6a2:	2072                	lhu	a2,6(s0)
    b6a4:	6174                	flw	fa3,68(a0)
    b6a6:	6772                	flw	fa4,28(sp)
    b6a8:	7465                	lui	s0,0xffff9
    b6aa:	6320                	flw	fs0,64(a4)
    b6ac:	7261                	lui	tp,0xffff8
    b6ae:	2e64                	lbu	s1,30(a2)
    b6b0:	2e2e                	lhu	a1,26(a2)
    b6b2:	3c20                	lbu	s0,27(s0)
    b6b4:	3c3c                	lbu	a5,27(s0)
    b6b6:	0a0d                	addi	s4,s4,3
    b6b8:	0000                	unimp
    b6ba:	0000                	unimp
    b6bc:	4f4c435b          	0x4f4c435b
    b6c0:	4455                	li	s0,21
    b6c2:	205d                	jal	b768 <_read+0x1022>
    b6c4:	6552                	flw	fa0,20(sp)
    b6c6:	72616863          	bltu	sp,t1,bdf6 <g_item_map+0x386>
    b6ca:	25206567          	0x25206567
    b6ce:	756c                	flw	fa1,108(a0)
    b6d0:	202c                	lbu	a1,2(s0)
    b6d2:	656e                	flw	fa0,216(sp)
    b6d4:	61622077          	0x61622077
    b6d8:	616c                	flw	fa1,68(a0)
    b6da:	636e                	flw	ft6,216(sp)
    b6dc:	2565                	jal	bd84 <g_item_map+0x314>
    b6de:	756c                	flw	fa1,108(a0)
    b6e0:	0a0d                	addi	s4,s4,3
    b6e2:	0000                	unimp
    b6e4:	7355                	lui	t1,0xffff5
    b6e6:	7265                	lui	tp,0xffff9
    b6e8:	203a                	lhu	a4,2(s0)
    b6ea:	7325                	lui	t1,0xfffe9
    b6ec:	0a0d                	addi	s4,s4,3
    b6ee:	0000                	unimp
    b6f0:	6f54                	flw	fa3,28(a4)
    b6f2:	6174                	flw	fa3,68(a0)
    b6f4:	206c                	lbu	a1,6(s0)
    b6f6:	7270                	flw	fa2,100(a2)
    b6f8:	6369                	lui	t1,0x1a
    b6fa:	3a65                	jal	b0b2 <_read+0x96c>
    b6fc:	2520                	lbu	s0,10(a0)
    b6fe:	2e64                	lbu	s1,30(a2)
    b700:	3025                	jal	af28 <_read+0x7e2>
    b702:	6432                	flw	fs0,12(sp)
    b704:	7920                	flw	fs0,112(a0)
    b706:	6175                	addi	sp,sp,368
    b708:	0d6e                	slli	s10,s10,0x1b
    b70a:	000a                	c.slli	zero,0x2
    b70c:	72727543          	fmadd.d	fa0,ft4,ft7,fa4
    b710:	6e65                	lui	t3,0x19
    b712:	2074                	lbu	a3,6(s0)
    b714:	6162                	flw	ft2,24(sp)
    b716:	616c                	flw	fa1,68(a0)
    b718:	636e                	flw	ft6,216(sp)
    b71a:	3a65                	jal	b0d2 <_read+0x98c>
    b71c:	2520                	lbu	s0,10(a0)
    b71e:	756c                	flw	fa1,108(a0)
    b720:	252e                	lhu	a1,10(a0)
    b722:	3230                	lbu	a2,3(a2)
    b724:	756c                	flw	fa1,108(a0)
    b726:	7920                	flw	fs0,112(a0)
    b728:	6175                	addi	sp,sp,368
    b72a:	0d6e                	slli	s10,s10,0x1b
    b72c:	000a                	c.slli	zero,0x2
    b72e:	0000                	unimp
    b730:	6544                	flw	fs1,12(a0)
    b732:	7564                	flw	fs1,108(a0)
    b734:	6f697463          	bgeu	s2,s6,be1c <g_item_map+0x3ac>
    b738:	206e                	lhu	a1,6(s0)
    b73a:	63637573          	csrrci	a0,0x636,6
    b73e:	7365                	lui	t1,0xffff9
    b740:	6c756673          	csrrsi	a2,0x6c7,10
    b744:	2021                	jal	b74c <_read+0x1006>
    b746:	654e                	flw	fa0,208(sp)
    b748:	61622077          	0x61622077
    b74c:	616c                	flw	fa1,68(a0)
    b74e:	636e                	flw	ft6,216(sp)
    b750:	3a65                	jal	b108 <_read+0x9c2>
    b752:	2520                	lbu	s0,10(a0)
    b754:	756c                	flw	fa1,108(a0)
    b756:	252e                	lhu	a1,10(a0)
    b758:	3230                	lbu	a2,3(a2)
    b75a:	756c                	flw	fa1,108(a0)
    b75c:	7920                	flw	fs0,112(a0)
    b75e:	6175                	addi	sp,sp,368
    b760:	0d6e                	slli	s10,s10,0x1b
    b762:	000a                	c.slli	zero,0x2
    b764:	7254                	flw	fa3,36(a2)
    b766:	6e61                	lui	t3,0x18
    b768:	74636173          	csrrsi	sp,0x746,6
    b76c:	6f69                	lui	t5,0x1a
    b76e:	206e                	lhu	a1,6(s0)
    b770:	6572                	flw	fa0,28(sp)
    b772:	64726f63          	bltu	tp,t2,bdd0 <g_item_map+0x360>
    b776:	203a                	lhu	a4,2(s0)
    b778:	7325                	lui	t1,0xfffe9
    b77a:	7320                	flw	fs0,96(a4)
    b77c:	6570                	flw	fa2,76(a0)
    b77e:	746e                	flw	fs0,248(sp)
    b780:	2520                	lbu	s0,10(a0)
    b782:	2e64                	lbu	s1,30(a2)
    b784:	3025                	jal	afac <_read+0x866>
    b786:	6432                	flw	fs0,12(sp)
    b788:	7920                	flw	fs0,112(a0)
    b78a:	6175                	addi	sp,sp,368
    b78c:	0d6e                	slli	s10,s10,0x1b
    b78e:	000a                	c.slli	zero,0x2
    b790:	6170                	flw	fa2,68(a0)
    b792:	43206567          	0x43206567
    b796:	7261                	lui	tp,0xffff8
    b798:	5f64                	lw	s1,124(a4)
    b79a:	63637553          	0x63637553
    b79e:	7365                	lui	t1,0xffff9
    b7a0:	00000073          	ecall
    b7a4:	6e49                	lui	t3,0x12
    b7a6:	66667573          	csrrci	a0,0x666,12
    b7aa:	6369                	lui	t1,0x1a
    b7ac:	6569                	lui	a0,0x1a
    b7ae:	746e                	flw	fs0,248(sp)
    b7b0:	6220                	flw	fs0,64(a2)
    b7b2:	6c61                	lui	s8,0x18
    b7b4:	6e61                	lui	t3,0x18
    b7b6:	20216563          	bltu	sp,sp,b9c0 <_read+0x127a>
    b7ba:	72727543          	fmadd.d	fa0,ft4,ft7,fa4
    b7be:	6e65                	lui	t3,0x19
    b7c0:	3a74                	lbu	a3,23(a2)
    b7c2:	2520                	lbu	s0,10(a0)
    b7c4:	756c                	flw	fa1,108(a0)
    b7c6:	7920                	flw	fs0,112(a0)
    b7c8:	6175                	addi	sp,sp,368
    b7ca:	2c6e                	lhu	a1,30(s0)
    b7cc:	6e20                	flw	fs0,88(a2)
    b7ce:	6565                	lui	a0,0x19
    b7d0:	2064                	lbu	s1,6(s0)
    b7d2:	6425                	lui	s0,0x9
    b7d4:	7920                	flw	fs0,112(a0)
    b7d6:	6175                	addi	sp,sp,368
    b7d8:	0d6e                	slli	s10,s10,0x1b
    b7da:	000a                	c.slli	zero,0x2
    b7dc:	6146                	flw	ft2,80(sp)
    b7de:	6c69                	lui	s8,0x1a
    b7e0:	6465                	lui	s0,0x19
    b7e2:	7420                	flw	fs0,104(s0)
    b7e4:	6572206f          	j	2e63a <_data_lma+0x21d4e>
    b7e8:	6461                	lui	s0,0x18
    b7ea:	6220                	flw	fs0,64(a2)
    b7ec:	6c61                	lui	s8,0x18
    b7ee:	6e61                	lui	t3,0x18
    b7f0:	0d216563          	bltu	sp,s2,b8ba <_read+0x1174>
    b7f4:	000a                	c.slli	zero,0x2
    b7f6:	0000                	unimp
    b7f8:	4f4c435b          	0x4f4c435b
    b7fc:	4455                	li	s0,21
    b7fe:	205d                	jal	b8a4 <_read+0x115e>
    b800:	64726143          	0x64726143
    b804:	6154                	flw	fa3,4(a0)
    b806:	2070                	lbu	a2,6(s0)
    b808:	7266                	flw	ft4,120(sp)
    b80a:	6d61                	lui	s10,0x18
    b80c:	2065                	jal	b8b4 <_read+0x116e>
    b80e:	746e6573          	csrrsi	a0,0x746,28
    b812:	0a0d                	addi	s4,s4,3
    b814:	0000                	unimp
    b816:	0000                	unimp
    b818:	6552                	flw	fa0,20(sp)
    b81a:	6461                	lui	s0,0x18
    b81c:	7520                	flw	fs0,104(a0)
    b81e:	20726573          	csrrsi	a0,0x207,4
    b822:	4449                	li	s0,18
    b824:	6620                	flw	fs0,72(a2)
    b826:	6961                	lui	s2,0x18
    b828:	656c                	flw	fa1,76(a0)
    b82a:	2164                	lbu	s1,6(a0)
    b82c:	0a0d                	addi	s4,s4,3
    b82e:	0000                	unimp
    b830:	7355                	lui	t1,0xffff5
    b832:	7265                	lui	tp,0xffff9
    b834:	4920                	lw	s0,80(a0)
    b836:	2044                	lbu	s1,4(s0)
    b838:	7369                	lui	t1,0xffffa
    b83a:	3020                	lbu	s0,3(s0)
    b83c:	202c                	lbu	a1,2(s0)
    b83e:	64726163          	bltu	tp,t2,be80 <g_item_map+0x410>
    b842:	6e20                	flw	fs0,88(a2)
    b844:	6920746f          	jal	s0,12ed6 <_data_lma+0x65ea>
    b848:	696e                	flw	fs2,216(sp)
    b84a:	6974                	flw	fa3,84(a0)
    b84c:	6c61                	lui	s8,0x18
    b84e:	7a69                	lui	s4,0xffffa
    b850:	6465                	lui	s0,0x19
    b852:	0a0d                	addi	s4,s4,3
    b854:	0000                	unimp
    b856:	0000                	unimp
    b858:	6552                	flw	fa0,20(sp)
    b85a:	6461                	lui	s0,0x18
    b85c:	7520                	flw	fs0,104(a0)
    b85e:	20726573          	csrrsi	a0,0x207,4
    b862:	6570                	flw	fa2,76(a0)
    b864:	6d72                	flw	fs10,28(sp)
    b866:	7369                	lui	t1,0xffffa
    b868:	6e6f6973          	csrrsi	s2,0x6e6,30
    b86c:	6620                	flw	fs0,72(a2)
    b86e:	6961                	lui	s2,0x18
    b870:	656c                	flw	fa1,76(a0)
    b872:	2164                	lbu	s1,6(a0)
    b874:	0a0d                	addi	s4,s4,3
    b876:	0000                	unimp
    b878:	74636553          	0x74636553
    b87c:	6120726f          	jal	tp,12e8e <_data_lma+0x65a2>
    b880:	7475                	lui	s0,0xffffd
    b882:	6568                	flw	fa0,76(a0)
    b884:	746e                	flw	fs0,248(sp)
    b886:	6369                	lui	t1,0x1a
    b888:	7461                	lui	s0,0xffff8
    b88a:	6f69                	lui	t5,0x1a
    b88c:	206e                	lhu	a1,6(s0)
    b88e:	6166                	flw	ft2,88(sp)
    b890:	6c69                	lui	s8,0x1a
    b892:	6465                	lui	s0,0x19
    b894:	0d21                	addi	s10,s10,8
    b896:	000a                	c.slli	zero,0x2
    b898:	7242                	flw	ft4,48(sp)
    b89a:	6165                	addi	sp,sp,112
    b89c:	7361666b          	0x7361666b
    b8a0:	2e74                	lbu	a3,30(a2)
    b8a2:	2574                	lbu	a3,14(a0)
    b8a4:	2e64                	lbu	s1,30(a2)
    b8a6:	7874                	flw	fa3,116(s0)
    b8a8:	3d74                	lbu	a3,31(a0)
    b8aa:	0022                	c.slli	zero,0x8
    b8ac:	7242                	flw	ft4,48(sp)
    b8ae:	6165                	addi	sp,sp,112
    b8b0:	7361666b          	0x7361666b
    b8b4:	2e74                	lbu	a3,30(a2)
    b8b6:	2578                	lbu	a4,14(a0)
    b8b8:	2e64                	lbu	s1,30(a2)
    b8ba:	6176                	flw	ft2,92(sp)
    b8bc:	3d6c                	lbu	a1,31(a0)
    b8be:	6425                	lui	s0,0x9
    b8c0:	ffff                	0xffff
    b8c2:	00ff                	0xff
    b8c4:	0000                	unimp
    b8c6:	3f00                	lbu	s0,25(a4)
    b8c8:	6f48                	flw	fa0,28(a4)
    b8ca:	656d                	lui	a0,0x1b
    b8cc:	742e                	flw	fs0,232(sp)
    b8ce:	6425                	lui	s0,0x9
    b8d0:	742e                	flw	fs0,232(sp)
    b8d2:	7478                	flw	fa4,108(s0)
    b8d4:	223d                	jal	ba02 <_read+0x12bc>
    b8d6:	0000                	unimp
    b8d8:	0022                	c.slli	zero,0x8
    b8da:	0000                	unimp
    b8dc:	694c                	flw	fa1,20(a0)
    b8de:	742e7473          	csrrci	s0,0x742,28
    b8e2:	6425                	lui	s0,0x9
    b8e4:	742e                	flw	fs0,232(sp)
    b8e6:	7478                	flw	fa4,108(s0)
    b8e8:	223d                	jal	ba16 <_read+0x12d0>
    b8ea:	6425                	lui	s0,0x9
    b8ec:	252e                	lhu	a1,10(a0)
    b8ee:	2264                	lbu	s1,6(a2)
    b8f0:	0000                	unimp
    b8f2:	0000                	unimp
    b8f4:	694c                	flw	fa1,20(a0)
    b8f6:	742e7473          	csrrci	s0,0x742,28
    b8fa:	6425                	lui	s0,0x9
    b8fc:	742e                	flw	fs0,232(sp)
    b8fe:	7478                	flw	fa4,108(s0)
    b900:	223d                	jal	ba2e <_read+0x12e8>
    b902:	0022                	c.slli	zero,0x8
    b904:	6f48                	flw	fa0,28(a4)
    b906:	656d                	lui	a0,0x1b
    b908:	742e                	flw	fs0,232(sp)
    b90a:	6425                	lui	s0,0x9
    b90c:	742e                	flw	fs0,232(sp)
    b90e:	7478                	flw	fa4,108(s0)
    b910:	223d                	jal	ba3e <_read+0x12f8>
    b912:	6425                	lui	s0,0x9
    b914:	252e                	lhu	a1,10(a0)
    b916:	3230                	lbu	a2,3(a2)
    b918:	2264                	lbu	s1,6(a2)
    b91a:	0000                	unimp
    b91c:	6f48                	flw	fa0,28(a4)
    b91e:	656d                	lui	a0,0x1b
    b920:	742e                	flw	fs0,232(sp)
    b922:	6425                	lui	s0,0x9
    b924:	742e                	flw	fs0,232(sp)
    b926:	7478                	flw	fa4,108(s0)
    b928:	223d                	jal	ba56 <_read+0x1310>
    b92a:	0022                	c.slli	zero,0x8
    b92c:	6f48                	flw	fa0,28(a4)
    b92e:	656d                	lui	a0,0x1b
    b930:	742e                	flw	fs0,232(sp)
    b932:	0000                	unimp
    b934:	742e                	flw	fs0,232(sp)
    b936:	7478                	flw	fa4,108(s0)
    b938:	223d                	jal	ba66 <_read+0x1320>
    b93a:	2220                	lbu	s0,2(a2)
    b93c:	0000                	unimp
    b93e:	0000                	unimp
    b940:	694c                	flw	fa1,20(a0)
    b942:	782e7473          	csrrci	s0,0x782,28
    b946:	2e38                	lbu	a4,26(a2)
    b948:	6176                	flw	ft2,92(sp)
    b94a:	3d6c                	lbu	a1,31(a0)
    b94c:	0000                	unimp
    b94e:	0000                	unimp
    b950:	6425                	lui	s0,0x9
    b952:	0000                	unimp
    b954:	742e                	flw	fs0,232(sp)
    b956:	7478                	flw	fa4,108(s0)
    b958:	223d                	jal	ba86 <g_item_map+0x16>
    b95a:	aad4                	sb	a3,20(a3)
    b95c:	22f6b82f          	0x22f6b82f
    b960:	0000                	unimp
    b962:	0000                	unimp
    b964:	742e                	flw	fs0,232(sp)
    b966:	7478                	flw	fa4,108(s0)
    b968:	223d                	jal	ba96 <g_item_map+0x26>
    b96a:	aad4                	sb	a3,20(a3)
    b96c:	3030352f          	0x3030352f
    b970:	00002267          	0x2267
    b974:	7250                	flw	fa2,36(a2)
    b976:	6369                	lui	t1,0x1a
    b978:	3165                	jal	b620 <_read+0xeda>
    b97a:	742e                	flw	fs0,232(sp)
    b97c:	6425                	lui	s0,0x9
    b97e:	742e                	flw	fs0,232(sp)
    b980:	7478                	flw	fa4,108(s0)
    b982:	223d                	jal	bab0 <g_item_map+0x40>
    b984:	0000                	unimp
    b986:	0000                	unimp
    b988:	ff22                	fsw	fs0,188(sp)
    b98a:	ffff                	0xffff
    b98c:	0000                	unimp
    b98e:	0000                	unimp
    b990:	7250                	flw	fa2,36(a2)
    b992:	6369                	lui	t1,0x1a
    b994:	3165                	jal	b63c <_read+0xef6>
    b996:	782e                	flw	fa6,232(sp)
    b998:	6425                	lui	s0,0x9
    b99a:	762e                	flw	fa2,232(sp)
    b99c:	6c61                	lui	s8,0x18
    b99e:	253d                	jal	bfcc <g_item_map+0x55c>
    b9a0:	ff64                	fsw	fs1,124(a4)
    b9a2:	ffff                	0xffff
    b9a4:	0000                	unimp
    b9a6:	0000                	unimp
    b9a8:	7250                	flw	fa2,36(a2)
    b9aa:	6369                	lui	t1,0x1a
    b9ac:	3265                	jal	b354 <_read+0xc0e>
    b9ae:	742e                	flw	fs0,232(sp)
    b9b0:	6425                	lui	s0,0x9
    b9b2:	742e                	flw	fs0,232(sp)
    b9b4:	7478                	flw	fa4,108(s0)
    b9b6:	223d                	jal	bae4 <g_item_map+0x74>
    b9b8:	0000                	unimp
    b9ba:	0000                	unimp
    b9bc:	7250                	flw	fa2,36(a2)
    b9be:	6369                	lui	t1,0x1a
    b9c0:	3265                	jal	b368 <_read+0xc22>
    b9c2:	782e                	flw	fa6,232(sp)
    b9c4:	6425                	lui	s0,0x9
    b9c6:	762e                	flw	fa2,232(sp)
    b9c8:	6c61                	lui	s8,0x18
    b9ca:	253d                	jal	bff8 <g_item_map+0x588>
    b9cc:	ff64                	fsw	fs1,124(a4)
    b9ce:	ffff                	0xffff
    b9d0:	0000                	unimp
    b9d2:	0000                	unimp
    b9d4:	494e495b          	0x494e495b
    b9d8:	5d54                	lw	a3,60(a0)
    b9da:	5520                	lw	s0,104(a0)
    b9dc:	5241                	li	tp,-16
    b9de:	3354                	lbu	a3,5(a4)
    b9e0:	88e5                	andi	s1,s1,25
    b9e2:	e59d                	bnez	a1,ba10 <_read+0x12ca>
    b9e4:	8ce58ba7          	0x8ce58ba7
    b9e8:	e596                	fsw	ft5,200(sp)
    b9ea:	8cae                	mv	s9,a1
    b9ec:	88e6                	mv	a7,s9
    b9ee:	2090                	lbu	a2,0(s1)
    b9f0:	5028                	lw	a0,96(s0)
    b9f2:	3142                	lhu	s0,36(a0)
    b9f4:	2f30                	lbu	a2,26(a4)
    b9f6:	5854                	lw	a3,52(s0)
    b9f8:	202c                	lbu	a1,2(s0)
    b9fa:	4250                	lw	a2,4(a2)
    b9fc:	3131                	jal	b608 <_read+0xec2>
    b9fe:	2c58522f          	0x2c58522f
    ba02:	3120                	lbu	s0,3(a0)
    ba04:	3531                	jal	b810 <_read+0x10ca>
    ba06:	3032                	lhu	a2,34(s0)
    ba08:	2c30                	lbu	a2,26(s0)
    ba0a:	e420                	fsw	fs0,72(s0)
    ba0c:	adb8                	sb	a4,26(a1)
    ba0e:	96e6                	add	a3,a3,s9
    ba10:	e5ad                	bnez	a1,ba7a <g_item_map+0xa>
    ba12:	90e5b2b7          	lui	t0,0x90e5b
    ba16:	a894e7af          	0xa894e7af
    ba1a:	0d29                	addi	s10,s10,10
    ba1c:	0000                	unimp
    ba1e:	0000                	unimp
    ba20:	4c41425b          	0x4c41425b
    ba24:	4e41                	li	t3,16
    ba26:	205d4543          	fmadd.s	fa0,fs10,ft5,ft4,rmm
    ba2a:	74697257          	0x74697257
    ba2e:	2065                	jal	bad6 <g_item_map+0x66>
    ba30:	63637573          	csrrci	a0,0x636,6
    ba34:	7365                	lui	t1,0xffff9
    ba36:	25203a73          	csrrc	s4,0x252,zero
    ba3a:	756c                	flw	fa1,108(a0)
    ba3c:	252e                	lhu	a1,10(a0)
    ba3e:	3230                	lbu	a2,3(a2)
    ba40:	756c                	flw	fa1,108(a0)
    ba42:	7920                	flw	fs0,112(a0)
    ba44:	6175                	addi	sp,sp,368
    ba46:	0d6e                	slli	s10,s10,0x1b
    ba48:	000a                	c.slli	zero,0x2
    ba4a:	0000                	unimp
    ba4c:	4c41425b          	0x4c41425b
    ba50:	4e41                	li	t3,16
    ba52:	205d4543          	fmadd.s	fa0,fs10,ft5,ft4,rmm
    ba56:	74697257          	0x74697257
    ba5a:	2065                	jal	bb02 <g_item_map+0x92>
    ba5c:	6166                	flw	ft2,88(sp)
    ba5e:	6c69                	lui	s8,0x1a
    ba60:	6465                	lui	s0,0x19
    ba62:	0d21                	addi	s10,s10,8
    ba64:	000a                	c.slli	zero,0x2
    ba66:	0000                	unimp
    ba68:	2522                	lhu	s0,10(a0)
    ba6a:	00002273          	csrr	tp,ustatus
	...

0000ba70 <g_item_map>:
    ba70:	0000c124 0000c12c 0000c134 0000c13c     $...,...4...<...
    ba80:	0000c144 0000c14c 0000c154 0000c15c     D...L...T...\...
    ba90:	0000c104 0000c164 0000c1dc 0000c208     ....d...........
    baa0:	0000c110 0000c16c 0000c11c 0000c174     ....l.......t...
    bab0:	0000c17c 0000c188 0000c190 0000c19c     |...............
    bac0:	0000c1a4 0000c1b0 0000c1b4 0000c1c0     ................
    bad0:	0000c1c8 0000c1d0 0000c1d8 0000c1e0     ................
    bae0:	0000c1e8 0000c200 0000c210 0000c22c     ............,...
    baf0:	0000c238 0000c24c 0000c258 0000c268     8...L...X...h...
    bb00:	0000c274 0000c280 0000c28c 0000c2a0     t...............
    bb10:	0000c2a8 0000c2c0 0000c2cc 0000c2dc     ................
    bb20:	0000c2e8 0000c2f8 0000c300 0000c30c     ................
    bb30:	0000c318 0000c328 0000c334 0000c344     ....(...4...D...
    bb40:	3a43166b 3a42775e 3a37f5a5 39d5bbbf     k.C:^wB:..7:...9
    bb50:	e798abe9 b9e5b594 000000b3 e78ebde4     ................
    bb60:	b9e5b594 000000b3 494e495b e6205d54     ........[INIT] .
    bb70:	8de6b095 93bbe7ae e5849ee6 a7e59d88     ................
    bb80:	968ce58b e68caee5 000d9088 464e495b     ............[INF
    bb90:	44205d4f 2854554f 29314150 e593bde5     O] DOUT(PA1)....
    bba0:	94e78d89 b3b9e5b5 7325203a 00000a0d     ........: %s....
    bbb0:	494e495b 55205d54 38545241 6f6c4320     [INIT] UART8 Clo
    bbc0:	50206475 6f746f72 206c6f63 74696e69     ud Protocol init
    bbd0:	696c6169 0d64657a 00000000 5345545b     ialized.....[TES
    bbe0:	55205d54 38545241 73657420 72662074     T] UART8 test fr
    bbf0:	20656d61 746e6573 0000000d 494e495b     ame sent....[INI
    bc00:	53205d54 65747379 726f436d 6f6c4365     T] SystemCoreClo
    bc10:	253d6b63 0a0d756c 00000000 494e495b     ck=%lu......[INI
    bc20:	49205d54 6974696e 7a696c61 20676e69     T] Initializing 
    bc30:	32354352 2e2e2e32 0000000d 32354352     RC522.......RC52
    bc40:	65562032 6f697372 6765526e 30203d20     2 VersionReg = 0
    bc50:	32302578 000a0d58 73726556 526e6f69     x%02X...VersionR
    bc60:	303d6765 32302578 000a0d58 746f4e28     eg=0x%02X...(Not
    bc70:	30203a65 20323878 61207369 70656363     e: 0x82 is accep
    bc80:	6c626174 52202c65 32323543 6c697720     table, RC522 wil
    bc90:	6f77206c 6e206b72 616d726f 29796c6c     l work normally)
    bca0:	0000000d 6f437854 6f72746e 6765526c     ....TxControlReg
    bcb0:	2578303d 0d583230 0000000a 3d3d3d3d     =0x%02X.....====
    bcc0:	3d3d3d3d 3d3d3d3d 3d3d3d3d 3d3d3d3d     ================
    bcd0:	3d3d3d3d 3d3d3d3d 3d3d3d3d 3d3d3d3d     ================
    bce0:	3d3d3d3d 00000000 20202020 52202020     ====....       R
    bcf0:	32323543 49465220 79532044 6d657473     C522 RFID System
    bd00:	61655220 00007964 61656c50 70206573      Ready..Please p
    bd10:	6563616c 72616320 6e6f2064 746e6120     lace card on ant
    bd20:	616e6e65 002e2e2e 65746e41 20616e6e     enna....Antenna 
    bd30:	73204e4f 65636375 000d7373 494e495b     ON success..[INI
    bd40:	52205d54 32323543 696e6920 6c616974     T] RC522 initial
    bd50:	74617a69 206e6f69 706d6f63 6574656c     ization complete
    bd60:	0000000d 3d3d0a0d 3d3d3d3d 3d3d3d3d     ......==========
    bd70:	73795320 206d6574 61726150 6574656d      System Paramete
    bd80:	3d207372 3d3d3d3d 3d3d3d3d 00000d3d     rs ==========...
    bd90:	72657355 666e6920 6573206f 726f7463     User info sector
    bda0:	6425203a 00000a0d 3d3d3d3d 3d3d3d3d     : %d....========
    bdb0:	3d3d3d3d 3d3d3d3d 3d3d3d3d 3d3d3d3d     ================
    bdc0:	3d3d3d3d 3d3d3d3d 3d3d3d3d 3d3d3d3d     ================
    bdd0:	000d0a0d 61656c50 70206573 6563616c     ....Please place
    bde0:	65687420 72616320 6e6f2064 65687420      the card on the
    bdf0:	746e6120 616e6e65 65726120 2e2e2e61      antenna area...
    be00:	0000000d 3d3d3d3d 3d3d3d3d 3d3d3d3d     ....============
    be10:	3d3d3d3d 3d3d3d3d 3d3d3d3d 3d3d3d3d     ================
    be20:	3d3d3d3d 3d3d3d3d 3d3d3d3d 0000000d     ============....
    be30:	495b0a0d 5d4f464e 80bce520 e88ba7e5     ..[INFO] .......
    be40:	8ae5aa87 a1a0e6a8 2eb69be9 000d2e2e     ................
    be50:	495b0a0d 5d4f464e a1a0e620 e78687e5     ..[INFO] .......
    be60:	95e6bbb3 beaee8b0 e5aebde7 88e68cae     ................
    be70:	00000d90 464e495b e7205d4f bbe7bbb3     ....[INFO] .....
    be80:	9d88e59f e58ba7e5 aee5968c 9088e68c     ................
    be90:	e58cbcef a7e580bc 90bfe88b 2e8ca1e8     ................
    bea0:	0a0d2e2e 0000000d 49414d5b e8205d4e     ........[MAIN] .
    beb0:	85e59bbf bbb8e4a5 e7aabee5 2e2eaf8e     ................
    bec0:	00000d2e 20202020 20202020 a7e7202d     ....        - ..
    bed0:	8d87e9b0 e6b095e6 afe6ae8d a7e7328f     .............2..
    bee0:	b49be692 e4b096e6 ace680b8 00000da1     ................
    bef0:	20202020 20202020 324b202d 95e63033             - K230..
    bf00:	ae8de6b0 e69eaee5 8ee6b697 b694e6a5     ................
    bf10:	e5b6b9e5 85e9b98c 0d0a0d8d 00000000     ................
    bf20:	5241555b 525f3554 205d5741 3d6e656c     [UART5_RAW] len=
    bf30:	203a6425 00000000 58323025 00000020     %d: ....%02X ...
    bf40:	4952505b 205d4543 2d207325 6425203e     [PRICE] %s -> %d
    bf50:	00000a0d 4952505b 205d4543 73726170     ....[PRICE] pars
    bf60:	25206465 74692064 0d736d65 0000000a     ed %d items.....
    bf70:	65676170 6d6f4820 00000065 4349545b     page Home...[TIC
    bf80:	74205d4b 3d6b6369 0d756c25 0000000a     K] tick=%lu.....
    bf90:	3d3d0a0d 3d3d3d3d 3d3d3d3d 80bce520     ..========== ...
    bfa0:	e78ba7e5 87e9b0a7 3d3d208d 3d3d3d3d     ......... ======
    bfb0:	3d3d3d3d 0000000d 9994e95b 5dafafe8     ====....[......]
    bfc0:	9a80e920 259381e9 bbafe864 e5968fe5      ......%d.......
    bfd0:	b4e8b1a4 444128a5 29303d43 000a0d21     .....(ADC=0)!...
    bfe0:	575b0a0d 48474945 e7205d54 87e9b0a7     ..[WEIGHT] .....
    bff0:	8caee58d 3a9088e6 31686320 322e253d     .......: ch1=%.2
    c000:	202c6766 3d326863 66322e25 63202c67     fg, ch2=%.2fg, c
    c010:	253d3368 6766322e 6863202c 2e253d34     h3=%.2fg, ch4=%.
    c020:	0d676632 0000000a 4945575b 5d544847     2fg.....[WEIGHT]
    c030:	775f6720 68676965 755f7374 74616470      g_weights_updat
    c040:	313d6465 5f67202c 6d657469 70755f73     ed=1, g_items_up
    c050:	65746164 64253d64 00000a0d 464e495b     dated=%d....[INF
    c060:	e6205d4f 9ce6a1b2 33324b89 a989e730     O] ......K230...
    c070:	e68193e5 8de6b095 8cbcefae e9918fe5     ................
    c080:	bae78180 b0a7e7af e68d87e9 8de6b095     ................
    c090:	00000dae 7473694c 2e34782e 3d6c6176     ....List.x4.val=
    c0a0:	ffff6425 000000ff 7473694c 2e35782e     %d......List.x5.
    c0b0:	3d6c6176 ffff6425 000000ff 7473694c     val=%d......List
    c0c0:	2e36782e 3d6c6176 ffff6425 000000ff     .x6.val=%d......
    c0d0:	7473694c 2e37782e 3d6c6176 ffff6425     List.x7.val=%d..
    c0e0:	000000ff 9994e95b 5dafafe8 b0a7e720     ....[......] ...
    c0f0:	e88d87e9 8fe5bbaf b1a4e596 21a5b4e8     ...............!
    c100:	0000000d 61657473 5f64656d 006e7562     ....steamed_bun.
    c110:	65727570 6c696d5f 0000006b 6f616873     pure_milk...shao
    c120:	0069616d 6c707061 00000065 fbb9bbc6     mai.apple.......
    c130:	00000000 616e6162 0000616e b6bde3cf     ....banana......
    c140:	00000000 6e61726f 00006567 d3d7c8b3     ....orange......
    c150:	00000000 70617267 00000065 d1cccfc6     ....grape.......
    c160:	00000000 b7cdf8c2 00000000 a3c5bfb4     ................
    c170:	0000ccc4 f4c2d5c9 00000000 5f796f73     ............soy_
    c180:	6b6c696d 00000000 acbdb9b6 00000000     milk............
    c190:	65697266 6f645f64 00686775 f5cccdd3     fried_dough.....
    c1a0:	00000000 72726f70 65676469 00000000     ....porridge....
    c1b0:	0000e0d6 7461656d 6e75625f 00000000     ....meat_bun....
    c1c0:	fcb0e2c8 00000000 636e6170 00656b61     ........pancake.
    c1d0:	fdb1e5bc 00000000 5f616574 00676765     ........tea_egg.
    c1e0:	b6d2e8b2 0000b0b5 616d6f74 735f6f74     ........tomato_s
    c1f0:	6d617263 64656c62 6767655f 00000000     crambled_egg....
    c200:	ecbaf7ce b4b3c1ca b0b5a6bc 00000000     ................
    c210:	63697073 6f735f79 705f7275 7461746f     spicy_sour_potat
    c220:	68735f6f 73646572 00000000 b1c0e1cb     o_shreds........
    c230:	b9b6c1cd 0000bfcb 676e756b 6f61705f     ........kung_pao
    c240:	6968635f 6e656b63 00000000 a3b1acb9     _chicken........
    c250:	a1b6a6bc 00000000 65657773 6f735f74     ........sweet_so
    c260:	705f7275 006b726f d7b4c7cc b9bcefc0     ur_pork.........
    c270:	00000000 6f70616d 666f745f 00000075     ....mapo_tofu...
    c280:	c5c6e9c2 afb8b9b6 00000000 63697774     ............twic
    c290:	6f635f65 64656b6f 726f705f 0000006b     e_cooked_pork...
    c2a0:	f8b9d8bb 0000e2c8 68736966 6172665f     ........fish_fra
    c2b0:	6e617267 67655f74 616c7067 0000746e     grant_eggplant..
    c2c0:	e3cfe3d3 d3d7d1c7 00000000 5f797264     ............dry_
    c2d0:	65697266 65625f64 00736e61 d4ecc9b8     fried_beans.....
    c2e0:	bebcc4cb 0000b9b6 69617262 5f646573     ........braised_
    c2f0:	6b726f70 00000000 d5c9ecba 0000e2c8     pork............
    c300:	70706570 625f7265 00666565 b7bde0c7     pepper_beef.....
    c310:	bfcbe2c8 00000000 6c726167 625f6369     ........garlic_b
    c320:	63636f72 00696c6f d8c8e2cb bcc0f7ce     roccoli.........
    c330:	0000a8bb 77616573 5f646565 70756f73     ....seaweed_soup
    c340:	00000000 cbb2cfd7 a8bbb0b5 0000c0cc     ................
    c350:	ffff8472 ffff8398 ffff846c ffff83a0     r.......l.......
    c360:	ffff846c ffff8366 ffff846c ffff83a0     l...f...l.......
    c370:	ffff8398 ffff8398 ffff8366 ffff83a0     ........f.......
    c380:	ffff83a6 ffff83a6 ffff83a6 ffff8366     ............f...
    c390:	ffff8358 ffff8358 ffff842c ffff8508     X...X...,.......
    c3a0:	ffff842c ffff8326 ffff842c ffff8508     ,...&...,.......
    c3b0:	ffff8358 ffff8358 ffff8326 ffff8508     X...X...&.......
    c3c0:	ffff8366 ffff8366 ffff8366 ffff8326     f...f...f...&...
    c3d0:	ffff87dc ffff872a ffff872a ffff8728     ....*...*...(...
    c3e0:	ffff872e ffff872e ffff86fe ffff8728     ............(...
    c3f0:	ffff872e ffff86fe ffff872e ffff8728     ............(...
    c400:	ffff87ca ffff87ca ffff87ca ffff86fe     ................

0000c410 <__clz_tab>:
    c410:	02020100 03030303 04040404 04040404     ................
    c420:	05050505 05050505 05050505 05050505     ................
    c430:	06060606 06060606 06060606 06060606     ................
    c440:	06060606 06060606 06060606 06060606     ................
    c450:	07070707 07070707 07070707 07070707     ................
    c460:	07070707 07070707 07070707 07070707     ................
    c470:	07070707 07070707 07070707 07070707     ................
    c480:	07070707 07070707 07070707 07070707     ................
    c490:	08080808 08080808 08080808 08080808     ................
    c4a0:	08080808 08080808 08080808 08080808     ................
    c4b0:	08080808 08080808 08080808 08080808     ................
    c4c0:	08080808 08080808 08080808 08080808     ................
    c4d0:	08080808 08080808 08080808 08080808     ................
    c4e0:	08080808 08080808 08080808 08080808     ................
    c4f0:	08080808 08080808 08080808 08080808     ................
    c500:	08080808 08080808 08080808 08080808     ................
    c510:	ffff93ca ffff93b6 ffff93e8 ffff93ee     ................
    c520:	ffff93ca 00000000 00000000 3fe00000     ...............?
    c530:	00000000 3ff00000 00000000 40000000     .......?.......@
    c540:	ffc00000 41dfffff 94a03595 3fdfffff     .......A.5.....?
    c550:	35afe535 3fe00000 94a03595 3fcfffff     5..5...?.5.....?
    c560:	0000666e 74696e69 00000079 00006e61     nf..inity...an..

0000c570 <fpi.3395>:
    c570:	00000035 fffffbce 000003cb 00000001     5...............
    c580:	00000000                                ....

0000c584 <fpinan.3431>:
    c584:	00000034 fffffbce 000003cb 00000001     4...............
    c594:	00000000                                ....

0000c598 <tinytens>:
    c598:	97d889bc 3c9cd2b2 d5a8a733 3949f623     .......<3...#.I9
    c5a8:	44f4a73d 32a50ffd cf8c979d 255bba08     =..D...2......[%
    c5b8:	64ac6f43 11680628                       Co.d(.h.

0000c5c0 <__sf_fake_stderr>:
	...

0000c5e0 <__sf_fake_stdin>:
	...

0000c600 <__sf_fake_stdout>:
	...
    c620:	00000043 49534f50 00000058 0000002e     C...POSIX.......

0000c630 <__mprec_bigtens>:
    c630:	37e08000 4341c379 b5056e17 4693b8b5     ...7y.AC.n.....F
    c640:	e93ff9f5 4d384f03 f9301d32 5a827748     ..?..O8M2.0.Hw.Z
    c650:	7f73bf3c 75154fdd                       <.s..O.u

0000c658 <__mprec_tens>:
    c658:	00000000 3ff00000 00000000 40240000     .......?......$@
    c668:	00000000 40590000 00000000 408f4000     ......Y@.....@.@
    c678:	00000000 40c38800 00000000 40f86a00     .......@.....j.@
    c688:	00000000 412e8480 00000000 416312d0     .......A......cA
    c698:	00000000 4197d784 00000000 41cdcd65     .......A....e..A
    c6a8:	20000000 4202a05f e8000000 42374876     ... _..B....vH7B
    c6b8:	a2000000 426d1a94 e5400000 42a2309c     ......mB..@..0.B
    c6c8:	1e900000 42d6bcc4 26340000 430c6bf5     .......B..4&.k.C
    c6d8:	37e08000 4341c379 85d8a000 43763457     ...7y.AC....W4vC
    c6e8:	674ec800 43abc16d 60913d00 43e158e4     ..Ngm..C.=.`.X.C
    c6f8:	78b58c40 4415af1d d6e2ef50 444b1ae4     @..x...DP.....KD
    c708:	064dd592 4480f0cf c7e14af6 44b52d02     ..M....D.J...-.D
    c718:	79d99db4 44ea7843                       ...yCx.D

0000c720 <p05.3319>:
    c720:	00000005 00000019 0000007d 2b302d23     ........}...#-0+
    c730:	00000020 004c6c68 45676665 00004746      ...hlL.efgEFG..
    c740:	33323130 37363534 42413938 46454443     0123456789ABCDEF
    c750:	00000000 33323130 37363534 62613938     ....0123456789ab
    c760:	66656463 00000000                       cdef....

0000c768 <_ctype_>:
    c768:	20202000 20202020 28282020 20282828     .         ((((( 
    c778:	20202020 20202020 20202020 20202020                     
    c788:	10108820 10101010 10101010 10101010      ...............
    c798:	04040410 04040404 10040404 10101010     ................
    c7a8:	41411010 41414141 01010101 01010101     ..AAAAAA........
    c7b8:	01010101 01010101 01010101 10101010     ................
    c7c8:	42421010 42424242 02020202 02020202     ..BBBBBB........
    c7d8:	02020202 02020202 02020202 10101010     ................
    c7e8:	00000020 00000000 00000000 00000000      ...............
	...
    c86c:	ffffcbc6 ffffca4a ffffcb5a ffffcb62     ....J...Z...b...
    c87c:	ffffcb5a ffffca7a ffffcb5a ffffcb62     Z...z...Z...b...
    c88c:	ffffca4a ffffca4a ffffca7a ffffcb62     J...J...z...b...
    c89c:	ffffcbbc ffffcbbc ffffcbbc ffffca7a     ............z...
    c8ac:	ffffd2d6 ffffd1c8 ffffd1c8 ffffd1c6     ................
    c8bc:	ffffd1ce ffffd1ce ffffd194 ffffd1c6     ................
    c8cc:	ffffd1ce ffffd194 ffffd1ce ffffd1c6     ................
    c8dc:	ffffd2c2 ffffd2c2 ffffd2c2 ffffd194     ................
